(dp1
VDCC0081
p2
VCN(C)CC[C@@H](C1=CC=C(Br)C=C1)C1=CC=CC=N1
p3
sVDCC0777
p4
VCN(C1=CC2=NN(C)C(C)=C2C=C1)C1=CC=NC(NC2=CC=C(C)C(=C2)S(N)(=O)=O)=N1
p5
sVDCC1515
p6
VCNCCCN1C2=CC=CC=C2CCC2=CC=CC=C12
p7
sVDCC0099
p8
VOC(=O)CC1(CC1)CS[C@H](CCC1=CC=CC=C1C(O)(C)C)C1=CC=CC(\u005cC=C\u005cC2=NC3=C(C=CC(Cl)=C3)C=C2)=C1
p9
sVDCC1400
p10
VCCOC(=O)C1=CN=C(C=C1)C#CC1=CC2=C(SCCC2(C)C)C=C1
p11
sVDCC1459
p12
VCN1CCCC(CC1)N1N=C(CC2=CC=C(Cl)C=C2)C2=CC=CC=C2C1=O
p13
sVDCC0770
p14
S'CC1=C(C=CC(=C1)F)C2CC(CCN2C(=O)N(C)C(C)C3=CC(=CC(=C3)C(F)(F)F)C(F)(F)F)N4CCN(CC4)C(=O)C.CS(=O)(=O)O'
p15
sVDCC1450
p16
V[H][C@@]12CC[C@H](O)[C@@]1(C)CC[C@@]1([H])C2[C@H](CCCCCCCCCS(=O)CCCC(F)(F)C(F)(F)F)CC2=CC(O)=CC=C12
p17
sVDCC1453
p18
VCCN[C@@H]1C[C@H](N)[C@@H](O[C@H]2OC(CN)=CC[C@H]2N)[C@H](O)[C@H]1O[C@H]1OC[C@H](O)[C@@H](NC)[C@@]1(C)O
p19
sVDCC1455
p20
VCC(C)NCC(O)COC1=CC=CC2=C1C=CN2
p21
sVDCC1454
p22
V[H][C@@]12CC[C@](O)(C(=O)CO)[C@@]1(C)C[C@H](O)[C@@]1([H])[C@@]2([H])C[C@H](C)C2=CC(=O)C=C[C@]12C
p23
sVDCC1489
p24
VCOC(=O)N[C@H](C(=O)N[C@@H](CC1=CC=CC=C1)[C@@H](O)CN(CC1=CC=C(C=C1)C1=CC=CC=N1)NC(=O)[C@@H](NC(=O)OC)C(C)(C)C)C(C)(C)C
p25
sVDCC1498
p26
V[H][C@@]1(CC[C@@]([H])(C2=CC(Cl)=C(Cl)C=C2)C2=CC=CC=C12)NC
p27
sVDCC1218
p28
VClC1=C(CCN2CCN(CC2)C2=NSC3=CC=CC=C23)C=C2CC(=O)NC2=C1
p29
sVDCC0070
p30
V[H][C@@]12CC[C@@](O)(C#C)[C@@]1(CC)CC[C@]1([H])[C@@]3([H])CCC(=O)C=C3CC[C@@]21[H]
p31
sVDCC0071
p32
VCCCC(C)(COC(N)=O)COC(N)=O
p33
sVDCC0072
p34
VCC(C)(C)NCC(O)COC1=NSN=C1N1CCOCC1
p35
sVDCC0073
p36
VCCOC(=O)C1=C(COCCN)NC(C)=C(C1C1=CC=CC=C1Cl)C(=O)OC
p37
sVDCC0074
p38
VNC1=NC(N)=C2N=C(C(N)=NC2=N1)C1=CC=CC=C1
p39
sVDCC0075
p40
VCNC[C@H](O)C1=CC(O)=CC=C1
p41
sVDCC0076
p42
VCOCCOC(=O)C1=C(C)NC(C)=C(C1C1=CC(=CC=C1)[N+]([O-])=O)C(=O)OC(C)C
p43
sVDCC0077
p44
V[H][C@@]12C[C@H](C)[C@](OC(=O)CC)(C(=O)COC(=O)CC)[C@@]1(C)C[C@H](O)[C@@]1(Cl)[C@@]2([H])CCC2=CC(=O)C=C[C@]12C
p45
sVDCC1855
p46
VCC1=CC(C)=NC(NS(=O)(=O)C2=CC=C(N)C=C2)=N1
p47
sVDCC0079
p48
VCNC(=O)C1=NC=CC(OC2=CC=C(NC(=O)NC3=CC(=C(Cl)C=C3)C(F)(F)F)C=C2)=C1
p49
sVDCC1857
p50
V[H][C@@]12CN(C[C@]1([H])[C@H]2N)C1=NC2=C(C=C1F)C(=O)C(=CN2C1=C(F)C=C(F)C=C1)C(O)=O
p51
sVDCC0723
p52
VCOC1=CC2=C(C=C1OCCCN1CCCC1)N=CN=C2OC1=C(F)C2=C(NC(C)=C2)C=C1
p53
sVDCC1851
p54
V[H][C@@]12CCCN1C(=O)[C@@H](CC)NC(=O)[C@@H](NC(=O)C1=NC=CC=C1O)[C@@H](C)OC(=O)[C@@H](NC(=O)[C@]1([H])CC(=O)[C@]([H])(CS[C@@H]3CN4CCC3CC4)CN1C(=O)[C@H](CC1=CC=C(C=C1)N(C)C)N(C)C2=O)C1=CC=CC=C1
p55
sVDCC1850
p56
VCCC1NC(=O)C2=CC(=C(Cl)C=C2N1)S(N)(=O)=O
p57
sVDCC1852
p58
V[H][C@]12C[C@@H](OC(=O)C3=CC(OC)=C(OC)C(OC)=C3)[C@H](OC)[C@@H](C(=O)OC)[C@@]1([H])C[C@@]1([H])N(CCC3=C1NC1=C3C=CC(OC)=C1)C2
p59
sVDCC1637
p60
V[H][C@@](CCN1[C@@]2([H])CC[C@]1([H])C[C@]([H])(C2)N1C(C)=NN=C1C(C)C)(N=C(O)C1CCC(F)(F)CC1)C1=CC=CC=C1
p61
sVDCC0596
p62
S'COC1=CC=C(C=C1)S(=O)(=O)NC2=C(N=CC=C2)NC3=CC=C(C=C3)O'
p63
sVDCC1639
p64
V[H][C@]12C[C@H](NC(=O)C[C@H](O)C(C)(C)C(=O)[C@H](C)[C@@H](O)[C@@H](C)CCC[C@@]1(C)O2)C(\u005cC)=C\u005cC1=CSC(C)=N1
p65
sVDCC0351
p66
VCC(C)[C@H](N1CCCNC1=O)C(=O)N[C@H](C[C@H](O)[C@H](CC1=CC=CC=C1)NC(=O)COC1=C(C)C=CC=C1C)CC1=CC=CC=C1
p67
sVDCC0350
p68
V[H][C@]12CC(SCC\u005cN=C\u005cN)=C(N1C(=O)[C@]2([H])[C@@H](C)O)C(O)=O
p69
sVDCC0353
p70
V[H][C@]12SC(C)(C)[C@@H](N1C(=O)[C@H]2NC(=O)[C@H](C(O)=O)C1=CSC=C1)C(O)=O
p71
sVDCC0352
p72
V[H][C@@]12CC(=O)N1[C@@H](C(O)=O)[C@](C)(CN1C=CN=N1)S2(=O)=O
p73
sVDCC1208
p74
V[H][C@]12CN(C[C@@]1([H])NCCC2)C1=C(F)C=C2C(=O)C(=CN(C3CC3)C2=C1OC)C(O)=O
p75
sVDCC1209
p76
V[H][C@@]12CCCC[C@]1([H])CN(C[C@@H](O)[C@H](CSC1=CC=CC=C1)NC(=O)C1=C(C)C(O)=CC=C1)[C@@H](C2)C(=O)NC(C)(C)C
p77
sVDCC0357
p78
VCC1=CC2=C(C=C1C1(CC1)C1=CC=C(C=N1)C(O)=O)C(C)(C)CCC2(C)C
p79
sVDCC0608
p80
S'CN1C(CNC2=C1C(=O)N=C(N2)N)CNC3=CC=C(C=C3)C(=O)NC(CCC(=O)[O-])C(=O)[O-].[Ca+2]'
p81
sVDCC0210
p82
VCN(C)CCC(C1=CC=C(Br)C=C1)C1=CC=CC=N1
p83
sVDCC0358
p84
VO[C@H](\u005cC=C\u005c[C@@H](C)[C@@]1([H])CC[C@@]2([H])\u005cC(CCC[C@]12C)=C\u005cC=C1\u005cC[C@@H](O)C[C@H](O)C1=C)C1CC1
p85
sVDCC0212
p86
VCC(C)N=C1C=C2N(C3=CC=C(Cl)C=C3)C3=C(C=CC=C3)N=C2C=C1NC1=CC=C(Cl)C=C1
p87
sVDCC1207
p88
VCN(C)CCCC1(OCC2=C1C=CC(=C2)C#N)C1=CC=C(F)C=C1
p89
sVDCC0214
p90
VCN[C@@H](C)[C@@H](O)C1=CC=CC=C1
p91
sVDCC0215
p92
VCN1N=NC2=C(N=CN2C1=O)C(N)=O
p93
sVDCC0216
p94
V[H][C@@]12CC[C@](O)(C(=O)CO)[C@@]1(C)C[C@H](O)[C@@]1([H])[C@@]2([H])CCC2=CC(=O)C=C[C@]12C
p95
sVDCC1203
p96
VClC1=CC=CC=C1CN1CCC2=C(C1)C=CS2
p97
sVDCC0452
p98
V[Cl-].CN(C)C1=CC2=[S+]C3=C(C=CC(=C3)N(C)C)N=C2C=C1
p99
sVDCC0283
p100
VCCOC(=O)C1=C(C)NC(C)=C(C1C1=CC(=CC=C1)[N+]([O-])=O)C(=O)OC
p101
sVDCC0282
p102
VCC(C)CC1=CC=C(C=C1)C(C)C(O)=O
p103
sVDCC0281
p104
VNC1=NC2=C(N=CN2[C@@H]2C[C@H](CO)C=C2)C(NC2CC2)=N1
p105
sVDCC0280
p106
VCO[C@H]1\u005cC=C\u005cO[C@@]2(C)OC3=C(C2=O)C2=C(O)C(\u005cC=N\u005cN4CCN(C)CC4)=C(NC(=O)\u005cC(C)=C/C=C/[C@H](C)[C@H](O)[C@@H](C)[C@@H](O)[C@@H](C)[C@H](OC(C)=O)[C@@H]1C)C(O)=C2C(O)=C3C
p107
sVDCC1684
p108
V[H][C@]12SCC(SC3=NC(=CS3)C3=CC=[N+](C)C=C3)=C(N1C(=O)[C@H]2NC(=O)C(=N/OCC)\u005cC1=NSC(NP(O)(O)=O)=N1)C([O-])=O
p109
sVDCC0286
p110
VCC1=CN=C(C=N1)C(=O)NCCC1=CC=C(C=C1)S(=O)(=O)NC(=O)NC1CCCCC1
p111
sVDCC1686
p112
VCOC1=CC=C(C=C1)N1N=C(C(N)=O)C2=C1C(=O)N(CC2)C1=CC=C(C=C1)N1CCCCC1=O
p113
sVDCC0284
p114
VO=C(C1CCCCC1)N1CC2N(CCC3=CC=CC=C23)C(=O)C1
p115
sVDCC1688
p116
V[H]\u005cC(=C(\u005c[H])C1=CC=CC=N1)C1=C2C=CC(SC3=CC=CC=C3C(O)=NC)=CC2=NN1
p117
sVDCC0289
p118
VCN(C)CCOC(C1=CC=CC=C1)C1=CC=CC=C1
p119
sVDCC0288
p120
VNC1=NC(F)=NC2=C1N=CN2[C@@H]1O[C@H](CO)[C@@H](O)[C@@H]1O
p121
sVDCC1199
p122
VCC(C)(N)CC1=CC=CC=C1
p123
sVDCC0453
p124
S'CCC=CCC=CCC=CCC=CCC=CCC=CCCC(=O)O'
p125
sVDCC0423
p126
S'C1OCOO1'
p127
sVDCC0421
p128
VOC12CC3CC(C1)CC(C3)(C2)NCC(=O)N1CCC[C@H]1C#N
p129
sVDCC0853
p130
S'CC1=CC(=C(C=C1)F)NC(=O)NC2=CC=C(C=C2)C3=C4C(=CC=C3)NN=C4N'
p131
sVDCC0850
p132
VCC(=O)OC1=CC=C(C=C1)C(C1=CC=C(OC(C)=O)C=C1)C1=CC=CC=N1
p133
sVDCC1702
p134
VC[C@@H](O[C@H]1OCCN(CC2=NC(=O)N(N2)P(O)(O)=O)[C@H]1C1=CC=C(F)C=C1)C1=CC(=CC(=C1)C(F)(F)F)C(F)(F)F
p135
sVDCC1705
p136
V[Ca++].[O-]C([O-])=O
p137
sVDCC1704
p138
V[OH-].[OH-].[OH-].[Al+3]
p139
sVDCC1707
p140
V[H][C@@](O)([C@@H](NC(=O)OC(C)(C)C)C1=CC=CC=C1)C(=O)O[C@@]1([H])C[C@@]2(O)[C@@]([H])(OC(=O)C3=CC=CC=C3)[C@]3([H])[C@@]4(CO[C@]4([H])C[C@]([H])(OC)[C@@]3(C)C(=O)[C@]([H])(OC)C(=C1C)C2(C)C)OC(C)=O
p141
sVDCC1424
p142
VCCN(CC)CCOC1=CC=C(C=C1)C(=C(Cl)C1=CC=CC=C1)C1=CC=CC=C1
p143
sVDCC1425
p144
VOC(CC1=CN=CC=C1)(P(O)(O)=O)P(O)(O)=O
p145
sVDCC1338
p146
VNC1=C2N=CN([C@@H]3O[C@H](CO)[C@@H](O)[C@H]3O)C2=NC=N1
p147
sVDCC1339
p148
VCOC(=O)NC1=NC2=C(N1)C=C(C=C2)C(=O)C1=CC=CC=C1
p149
sVDCC1666
p150
VCC(=O)OC1=CC2=C(CCN(C2)C(C(=O)C2CC2)C2=CC=CC=C2F)S1
p151
sVDCC1330
p152
VCO[C@H]1C[C@@H](O[C@@H](C)[C@@H]1O)O[C@H]1[C@H](C)O[C@H](C[C@@H]1OC)O[C@H]1[C@@H](C)\u005cC=C\u005cC=C2/CO[C@@H]3[C@H](O)C(C)=C[C@@H](C(=O)O[C@H]4C[C@@H](C\u005cC=C1/C)O[C@@]1(CC[C@H](C)[C@@H](C(C)C)O1)C4)[C@]23O.CC[C@@H](C)[C@H]1O[C@@]2(CC[C@@H]1C)O[C@@H]1C\u005cC=C(C)\u005c[C@@
p153
sVDCC1332
p154
V[H][C@]12SC(C)(C)[C@@H](N1C(=O)[C@H]2NC(=O)C1=C(OCC)C=CC2=CC=CC=C12)C(O)=O
p155
sVDCC1333
p156
VCCN(CC)CCCC(C)NC1=C2C=CC(Cl)=CC2=NC=C1
p157
sVDCC1334
p158
V[O-][N+](=O)C1=CC=C(O1)C=NN1CCOC1=O
p159
sVDCC1335
p160
V[H][C@@]12CC[C@](C)(O)[C@@]1(C)CC[C@@]1([H])[C@@]2([H])CCC2=CC(=O)CC[C@]12C
p161
sVDCC1336
p162
VNCCCC(O)(P(O)(O)=O)P(O)(O)=O
p163
sVDCC0034
p164
VN[C@@H]1CONC1=O
p165
sVDCC0035
p166
VCC1=NOC(NS(=O)(=O)C2=CC=C(N)C=C2)=C1C
p167
sVDCC0036
p168
VCOCCC1=CC=C(OCC(O)CNC(C)C)C=C1
p169
sVDCC1812
p170
VCN(C)CCOC(C1=CC=CC=C1)C1=CC=C(Br)C=C1
p171
sVDCC0271
p172
VCC[C@@]1(O)C(=O)OCC2=C1C=C1N(CC3=CC4=C(C=CC(O)=C4CN(C)C)N=C13)C2=O
p173
sVDCC0885
p174
VCC#CCN1C(=NC2=C1C(=O)N(CC1=NC3=C(C=CC=C3)C(C)=N1)C(=O)N2C)N1CCC[C@@H](N)C1
p175
sVDCC0030
p176
VCC1=C2NC(=O)C3=C(N=CC=C3)N(C3CC3)C2=NC=C1
p177
sVDCC0031
p178
VCC(C)CC1(CC=C)C(=O)NC(=O)NC1=O
p179
sVDCC0033
p180
VClC1=CC=CC=C1C(N1C=CN=C1)(C1=CC=CC=C1)C1=CC=CC=C1
p181
sVDCC0427
p182
S'C1CC1CONC(=O)C2=C(C(=C(C=C2)F)F)NC3=C(C=C(C=C3)I)Cl'
p183
sVDCC0652
p184
S'CC1=CN=C(C(=N1)OC)NS(=O)(=O)C2=C(N=CC=C2)C3=CC=C(C=C3)C4=NN=CO4'
p185
sVDCC1024
p186
S'CCC1(C2=C(COC1=O)C(=O)N3CC4=C(C3=C2)N=C5C=CC(=C(C5=C4)CN(C)C)O)O.Cl'
p187
sVDCC0439
p188
VO=C1CCNC(=O)N1
p189
sVDCC1417
p190
VCN(C)N=NC1=C(N=CN1)C(N)=O
p191
sVDCC1719
p192
VCCCSC1=NC2=C(N=NN2[C@@H]2C[C@H](OCCO)[C@@H](O)[C@H]2O)C(N[C@@H]2C[C@H]2C2=CC(F)=C(F)C=C2)=N1
p193
sVDCC1411
p194
V[H][C@@]12CC[C@@](O)(C#CC)[C@@]1(C)C[C@H](C1=CC=C(C=C1)N(C)C)C1=C3CCC(=O)C=C3CC[C@@]21[H]
p195
sVDCC1353
p196
VCC1=NC=C2CN=C(C3=CC=CC=C3F)C3=C(C=CC(Cl)=C3)N12
p197
sVDCC1740
p198
VCOC1=NC2=C(C=C(Br)C=C2)C=C1[C@@H](C1=CC=CC=C1)[C@@](O)(CCN(C)C)C1=CC=CC2=C1C=CC=C2
p199
sVDCC0379
p200
S'CCCCCCCCCC(=O)[O-].[Na+]'
p201
sVDCC0139
p202
V[H][C@@]12C[C@@H](C)[C@](OC(=O)CC)(C(=O)SCF)[C@@]1(C)C[C@H](O)[C@@]1(F)[C@@]2([H])C[C@H](F)C2=CC(=O)C=C[C@]12C
p203
sVDCC1710
p204
VC(N1CCCNCCNCCCNCC1)C1=CC=C(CN2CCCNCCNCCCNCC2)C=C1
p205
sVDCC0135
p206
VCN1[C@H]2CC[C@@H]1C[C@@H](C2)OC(=O)C(CO)C1=CC=CC=C1
p207
sVDCC0134
p208
VCC(C)NCC(O)COC1=CC=CC2=CC=CC=C12
p209
sVDCC0137
p210
VCCOC(=O)[C@H](CCC1=CC=CC=C1)N[C@@H](C)C(=O)N1CCC[C@H]1C(O)=O
p211
sVDCC0136
p212
VClC1=CC=CC(Cl)=C1NC1=NCCN1
p213
sVDCC0131
p214
VCN(CC1=CN=C2N=C(N)N=C(N)C2=N1)C1=CC=C(C=C1)C(=O)N[C@@H](CCC(O)=O)C(O)=O
p215
sVDCC0130
p216
V[H][C@@]12CC3=C(C=C(NC(=O)CNC(C)(C)C)C(O)=C3C(=O)C1=C(O)[C@]1(O)C(=O)C(C(N)=O)=C(O)[C@@H](N(C)C)[C@]1([H])C2)N(C)C
p217
sVDCC0133
p218
V[H][C@]12SCC(C)=C(N1C(=O)[C@H]2NC(=O)[C@H](N)C1=CC=CC=C1)C(O)=O
p219
sVDCC1858
p220
VN[C@@H](CC1=CC=C(O)C=C1)C(O)=O
p221
sVDCC0315
p222
VC[C@H](CS)C(=O)N1CCC[C@H]1C(O)=O
p223
sVDCC1241
p224
V[H][C@@]12CC[C@@](O)(C#C)[C@@]1(CC)CC(=C)[C@]1([H])[C@@]3([H])CCCC=C3CC[C@@]21[H]
p225
sVDCC1242
p226
VCC1=CC2=C(C=C1C(=C)C1=CC=C(C=C1)C(O)=O)C(C)(C)CCC2(C)C
p227
sVDCC0316
p228
VCC[C@H](N1CCCC1=O)C(N)=O
p229
sVDCC1244
p230
VCCCC(C)C1(CC)C(=O)NC(=O)NC1=O
p231
sVDCC1245
p232
VOC[C@H]1O[C@H](C[C@@H]1O)N1C=C(F)C(=O)NC1=O
p233
sVDCC1246
p234
V[H][C@@]12CC[C@](O)(C(C)=O)[C@@]1(C)C[C@H](O)[C@@]1(F)[C@@]2([H])C[C@H](C)C2=CC(=O)C=C[C@]12C
p235
sVDCC1247
p236
V[H][C@@]12OC3=C(O)C=CC4=C3[C@@]11CCN(C)[C@]([H])(C4)[C@]1([H])CCC2=O
p237
sVDCC1249
p238
V[H][C@]1(CC[C@H](Cl)[C@@H](C1)OC)\u005cC=C(/C)[C@@]1([H])OC(=O)[C@]2([H])CCCCN2C(=O)C(=O)[C@]2(O)O[C@@]([H])([C@H](C[C@H]2C)OC)[C@H](C[C@@H](C)C\u005cC(C)=C\u005c[C@@H](CC)C(=O)C[C@H](O)[C@H]1C)OC
p239
sVDCC0319
p240
V[H][C@]12SCC(CSC3=NC(=O)C(=O)NN3C)=C(N1C(=O)[C@H]2NC(=O)C(=N/OC)\u005cC1=CSC(N)=N1)C(O)=O
p241
sVDCC0318
p242
V[H][C@@]1(C[C@@](C)(OC)[C@@H](O)[C@H](C)O1)O[C@H]1[C@H](C)[C@@H](O[C@]2([H])O[C@H](C)C[C@@H]([C@H]2O)N(C)C)[C@@](C)(C[C@@H](C)C(=O)[C@H](C)[C@@H](O)[C@](C)(O)[C@@H](CC)OC(=O)[C@@H]1C)OC
p243
sVDCC0417
p244
S'CCCNC(C)C(=O)NC1=C(SC=C1C)C(=O)OC.Cl'
p245
sVDCC1482
p246
V[H][C@@]12CC(=O)[C@H](CCCCCCC(O)=O)[C@@]1([H])CC[C@@](O)(O2)C(F)(F)CCCC
p247
sVDCC0078
p248
VCCCC(C)(COC(N)=O)COC(=O)NC(C)C
p249
sVDCC1481
p250
VCC12CC3CC(C)(C1)CC(N)(C3)C2
p251
sVDCC1486
p252
VCC(C)NCC(O)C1=CC(O)=C(O)C=C1
p253
sVDCC0414
p254
V[Na+].[O-]S(=O)(=O)CCS
p255
sVDCC0098
p256
VCCOC(=O)N1CCC(CC1)=C1C2=C(CCC3=C1N=CC=C3)C=C(Cl)C=C2
p257
sVDCC1854
p258
VCC1=NC(NS(=O)(=O)C2=CC=C(N)C=C2)=NC=C1
p259
sVDCC0096
p260
VCOC1=CC=CC2=C1C(=O)C1=C(O)C3=C(C[C@](O)(C[C@@H]3O[C@H]3C[C@H](N)[C@@H](O)[C@H](C)O3)C(=O)CO)C(O)=C1C2=O
p261
sVDCC0097
p262
VCC1=C(OCC(F)(F)F)C=CN=C1CS(=O)C1=NC2=CC=CC=C2N1
p263
sVDCC0094
p264
VNC1=NC(=O)N(C=C1)[C@@H]1O[C@H](CO)[C@@H](O)C1(F)F
p265
sVDCC0095
p266
V[H][C@@]12C[C@H](C)[C@](O)(C(=O)CO)[C@@]1(C)C[C@H](O)[C@@]1(F)[C@@]2([H])CCC2=CC(=O)C=C[C@]12C
p267
sVDCC0092
p268
VCOCC1=C(C2=CC=C(F)C=C2)C(\u005cC=C\u005c[C@@H](O)C[C@@H](O)CC(O)=O)=C(C(C)C)N=C1C(C)C
p269
sVDCC0093
p270
VCOC1=CC(CC2=CN=C(N)N=C2N)=CC(OC)=C1OC
p271
sVDCC0090
p272
VNS(=O)(=O)C1=CC2=C(NC(CC3=CC=CC=C3)NS2(=O)=O)C=C1C(F)(F)F
p273
sVDCC0091
p274
V[O-]C(=O)C1=C(CS[C@]2([H])[C@H](NC(=O)C(=N/OC(C)(C)C(O)=O)\u005cC3=CSC(N)=N3)C(=O)N12)C[N+]1=CC=CC=C1
p275
sVDCC1856
p276
VNS(=O)(=O)C1=C(Cl)C=C2NC(NS(=O)(=O)C2=C1)C(Cl)Cl
p277
sVDCC0426
p278
VCOC1=C(O)C=C2CCC3C4CC[C@H](O)[C@@]4(C)CCC3C2=C1
p279
sVDCC1745
p280
VNC1=CC=CC2=C1C(=O)N(C1CCC(=O)NC1=O)C2=O
p281
sVDCC0893
p282
V[H][C@@]12CC(=O)N1[C@@]([H])(C(O)=O)C(C)(C)S2(=O)=O
p283
sVDCC1743
p284
V[H][C@]1(O[C@H](CO)[C@@H](O)[C@H](O)[C@H]1O)C1=CC=C(C)C(CC2=CC=C(S2)C2=CC=C(F)C=C2)=C1
p285
sVDCC1742
p286
V[H][C@@]12C[C@@H](C)[C@](OC(=O)C3=CC=CO3)(C(=O)SCF)[C@@]1(C)C[C@H](O)[C@@]1(F)[C@@]2([H])C[C@H](F)C2=CC(=O)C=C[C@]12C
p287
sVDCC1844
p288
VNC1=NC(N)=C(C=C1)\u005cN=N\u005cC1=CC=CC=C1
p289
sVDCC0261
p290
VCC(C)(C)NCC(O)C1=CC(CO)=C(O)C=C1
p291
sVDCC0260
p292
VNS(=O)(=O)C1=C(Cl)C=C2NCNS(=O)(=O)C2=C1
p293
sVDCC0263
p294
VNC(=O)NO
p295
sVDCC0262
p296
VNC1=NC2=C(N=CN2COC(CO)CO)C(=O)N1
p297
sVDCC0265
p298
VCC(C(O)=O)C1=CC(=CC=C1)C(=O)C1=CC=CC=C1
p299
sVDCC0264
p300
VN#CC1=CC=C(C=C1)C(N1C=NC=N1)C1=CC=C(C=C1)C#N
p301
sVDCC0267
p302
VCOC1=C(C=C(Cl)C=C1)C(=O)NCCC1=CC=C(C=C1)S(=O)(=O)NC(=O)NC1CCCCC1
p303
sVDCC0266
p304
VCC1=CC(NS(=O)(=O)C2=CC=C(N)C=C2)=NO1
p305
sVDCC0269
p306
VCCOC(=O)C1=C(C)NC(C)=C(C1C1=C(Cl)C(Cl)=CC=C1)C(=O)OC
p307
sVDCC0268
p308
V[H][C@@]12CC3=C(C(O)=CC=C3N(C)C)C(=O)C1=C(O)[C@]1(O)C(=O)C(C(N)=O)=C(O)[C@@H](N(C)C)[C@]1([H])C2
p309
sVDCC1662
p310
VCC(=O)N[C@@H](CS)C(O)=O
p311
sVDCC0793
p312
VCC(O)C(O)=O
p313
sVDCC0794
p314
VOC[C@H](O)[C@@H](O)[C@H](O)[C@H](O)CO
p315
sVDCC0797
p316
S'C1=CC(=C(C(=C1)Cl)COCCOCCCCCCNCC(C2=CC(=C(C=C2)O)CO)O)Cl'
p317
sVDCC0799
p318
VCCCCOCCOCCOCC1=CC2=C(OCO2)C=C1CCC
p319
sVDCC0459
p320
S'CCCCCCC(C)(C)C1=CC(=C(C=C1)C2CC(CCC2CCCO)O)O'
p321
sVDCC0404
p322
S'COC1=CC=C(C=C1)C2=C(C3=C(S2)C=C(C=C3)O)OC4=CC=C(C=C4)OCCN5CCCCC5'
p323
sVDCC0106
p324
VBrC1=C(NC2=NCCN2)C=CC2=NC=CN=C12
p325
sVDCC1188
p326
VCC1=C(O)C(CO)=C(CO)C=N1
p327
sVDCC1183
p328
VNC1=NC(=O)C2=NC(CNC3=CC=C(C=C3)C(=O)N[C@@H](CCC(O)=O)C(O)=O)=CN=C2N1
p329
sVDCC1182
p330
VCC(C)[C@@H](C)\u005cC=C\u005c[C@@H](C)[C@@]1([H])CC[C@@]2([H])\u005cC(CCC[C@]12C)=C\u005cC=C1\u005cC[C@@H](O)CCC1=C
p331
sVDCC1181
p332
VCN(CC(O)=O)C(N)=N
p333
sVDCC0944
p334
S'C1CC(C(=O)N(CC1C2=C(C(=CC=C2)F)F)CC(F)(F)F)NC(=O)N3CCC(CC3)N4C5=C(NC4=O)N=CC=C5'
p335
sVDCC0218
p336
VCO[C@@H]1C[C@@H](CC[C@H]1O)\u005cC=C(/C)[C@H]1OC(=O)[C@@H]2CCCCN2C(=O)C(=O)[C@]2(O)O[C@@H]([C@H](C[C@H]2C)OC)[C@H](C[C@@H](C)C\u005cC(C)=C\u005c[C@@H](CC=C)C(=O)C[C@H](O)[C@H]1C)OC
p337
sVDCC1345
p338
VCC(=O)NCCCS(O)(=O)=O
p339
sVDCC1347
p340
VCOC1=NC=CN=C1NS(=O)(=O)C1=CC=C(N)C=C1
p341
sVDCC0219
p342
VCCN[C@H]1C[C@H](C)S(=O)(=O)C2=C1C=C(S2)S(N)(=O)=O
p343
sVDCC0949
p344
VNCCNC1=CC=C(NCCN)C2=C1C(=O)C1=C(C=NC=C1)C2=O
p345
sVDCC0355
p346
VOC1=CC=C(C=C1)C1=COC2=C(C(O)=CC(O)=C2)C1=O
p347
sVDCC1845
p348
VC[C@@H](N)[C@@H](O)C1=CC=CC=C1
p349
sVDCC0354
p350
VCN(C)CCC(C1=CC=CC=C1)C1=CC=CC=N1
p351
sVDCC0811
p352
S'CC1=CC=C(C=C1)NC(=O)N(C2=CC=CC=C2Cl)S(=O)[O-]'
p353
sVDCC1252
p354
VCN1C2=C(C=C(Cl)C=C2)N(C2=CC=CC=C2)C(=O)CC1=O
p355
sVDCC1204
p356
V[H][C@]12CC[C@]([H])(C[C@@H](C1)OC(=O)C(O)(C1=CC=CC=C1)C1=CC=CC=C1)[N+]21CCCC1
p357
sVDCC1205
p358
VCOC1=CC(C(O)CNC(=O)CN)=C(OC)C=C1
p359
sVDCC1116
p360
VCC(C)C[C@H](NC(=O)[C@@H](COC(C)(C)C)NC(=O)[C@H](CC1=CC=C(O)C=C1)NC(=O)[C@H](CO)NC(=O)[C@H](CC1=CNC2=CC=CC=C12)NC(=O)[C@H](CC1=CN=CN1)NC(=O)[C@@H]1CCC(=O)N1)C(=O)N[C@@H](CCCN=C(N)N)C(=O)N1CCC[C@H]1C(=O)NNC(N)=O
p361
sVDCC0213
p362
VOCCN1CCN(CCCN2C3=CC=CC=C3SC3=C2C=C(Cl)C=C3)CC1
p363
sVDCC0400
p364
S'C1=CC=C(C=C1)C(=C(C2=CC=CC=C2)N=NC(C3=CC=CC=C3)(C4=CC=CC=C4)C5=CC=CC=C5)N=NC(C6=CC=CC=C6)(C7=CC=CC=C7)C8=CC=CC=C8'
p365
sVDCC1200
p366
VOC(CN1C=NC=N1)(CN1C=NC=N1)C1=C(F)C=C(F)C=C1
p367
sVDCC0881
p368
V[H][C@@]12CC[C@@](O)(CC#N)[C@@]1(C)CCC1=C3CCC(=O)C=C3CC[C@@]21[H]
p369
sVDCC0990
p370
S'C1=CC=C(C=C1)CCNCCCCCCNCCC2=CC(=C(C=C2)O)O'
p371
sVDCC0217
p372
VCN\u005cC(NCCSCC1=CC=C(CN(C)C)O1)=C/[N+]([O-])=O
p373
sVDCC1390
p374
V[H][C@@](N1CCC2=C(C1)C=CS2)(C(=O)OC)C1=CC=CC=C1Cl
p375
sVDCC1446
p376
VCC1=CC(=C(O)C(C)=C1CC1=NCCN1)C(C)(C)C
p377
sVDCC1445
p378
V[H][C@@](CC)(C1=CC(NS(=O)(=O)C2=NC=C(C=C2)C(F)(F)F)=CC=C1)C1=C(O)C[C@@](CCC)(CCC2=CC=CC=C2)OC1=O
p379
sVDCC0764
p380
V[H][C@]12CN([C@H](C(=O)NC(CC3CCC3)C(=O)C(N)=O)[C@@]1([H])C2(C)C)C(=O)[C@@H](NC(=O)NC(C)(C)C)C(C)(C)C
p381
sVDCC1443
p382
VNC1=NC(=O)N(C=N1)[C@@H]1O[C@H](CO)[C@@H](O)[C@H]1O
p383
sVDCC1838
p384
VCN1C(CCl)NC2=CC(Cl)=C(C=C2S1(=O)=O)S(N)(=O)=O
p385
sVDCC0768
p386
V[H]\u005cC(=C(\u005c[H])C1=CC=C(CNCCC2=C(C)NC3=CC=CC=C23)C=C1)C(O)=NO
p387
sVDCC1524
p388
VCN(C)CCC[C@]1(OCC2=C1C=CC(=C2)C#N)C1=CC=C(F)C=C1
p389
sVDCC1521
p390
VCCC(C)N1N=CN(C1=O)C1=CC=C(C=C1)N1CCN(CC1)C1=CC=C(OC[C@H]2CO[C@@](CN3C=NC=N3)(O2)C2=C(Cl)C=C(Cl)C=C2)C=C1
p391
sVDCC1520
p392
VO=C1CCC2=C(N1)C=CC(OCCCCC1=NN=NN1C1CCCCC1)=C2
p393
sVDCC1523
p394
VClC1=CC=C(C=C1)C(=O)NCCN1CCOCC1
p395
sVDCC1522
p396
VCNNCC1=CC=C(C=C1)C(=O)NC(C)C
p397
sVDCC0199
p398
VCNC(C)C1CCC(N)C(OC2C(N)CC(N)C(OC3OCC(C)(O)C(NC)C3O)C2O)O1
p399
sVDCC0198
p400
VCCOC1=NC2=CC=CC(C(O)=O)=C2N1CC1=CC=C(C=C1)C1=CC=CC=C1C1=NNN=N1
p401
sVDCC0193
p402
VCCC(C)CCCCC(=O)NC(CCN)C(=O)NC(C(C)O)C(=O)NC(CCN)C(=O)NC1CCNC(=O)C(NC(=O)C(CCN)NC(=O)C(CCN)NC(=O)C(CC(C)C)NC(=O)C(CC2=CC=CC=C2)NC(=O)C(CCN)NC1=O)C(C)O
p403
sVDCC0192
p404
VNC(=O)N1C2=CC=CC=C2CC(=O)C2=CC=CC=C12
p405
sVDCC0191
p406
V[H][C@]12COC(=O)[C@]1([H])[C@H](C1=CC(OC)=C(O)C(OC)=C1)C1=CC3=C(OCO3)C=C1[C@H]2O[C@@H]1O[C@]2([H])CO[C@@H](C)O[C@@]2([H])[C@H](O)[C@H]1O
p407
sVDCC0442
p408
VCC1=CC(O)=C2C(=O)C3=C(C=C(O)C=C3O)C(=O)C2=C1
p409
sVDCC0197
p410
V[H][C@]12C[C@H](N(C(=O)[C@H](C)N[C@@H](CCC)C(=O)OCC)[C@@]1([H])CCCC2)C(O)=O
p411
sVDCC0196
p412
VCOC1=CC2=C(C=C1)C=C(C=C2)[C@H](C)C(O)=O
p413
sVDCC0195
p414
VNC1=NC(=O)C2=C(N1)N(COCCO)C=N2
p415
sVDCC0194
p416
V[H][C@@]12CC[C@H](O)[C@@]1(C)CC[C@]1([H])C3=C(CC[C@@]21[H])C=C(O)C=C3
p417
sVDCC0328
p418
VCC1=CC(OCCCC(C)(C)C(O)=O)=C(C)C=C1
p419
sVDCC0329
p420
V[H][C@@]12C[C@H](O)[C@@]3(C)C(=O)[C@H](O)C4=C(C)[C@H](C[C@@](O)([C@@H](OC(=O)C5=CC=CC=C5)[C@]3([H])[C@@]1(CO2)OC(C)=O)C4(C)C)OC(=O)[C@H](O)[C@@H](NC(=O)OC(C)(C)C)C1=CC=CC=C1
p421
sVDCC0166
p422
VCNC[C@H](O)C1=CC(O)=C(O)C=C1
p423
sVDCC0167
p424
VCNS(=O)(=O)CC1=CC2=C(NC=C2CCN(C)C)C=C1
p425
sVDCC0164
p426
VCC(C)OC(=O)CCC\u005cC=C/C[C@H]1[C@@H](O)C[C@@H](O)[C@@H]1CC[C@@H](O)CCC1=CC=CC=C1
p427
sVDCC1849
p428
VCOC1=CC=C(CN(CCN(C)C)C2=NC=CC=C2)C=C1
p429
sVDCC0049
p430
VCC(=O)NC1=CC=C(O)C=C1
p431
sVDCC0048
p432
VCCCC(CCC)C(O)=O
p433
sVDCC0160
p434
VCCC(=O)O[C@@](CC1=CC=CC=C1)([C@H](C)CN(C)C)C1=CC=CC=C1
p435
sVDCC0161
p436
VCC1=CN([C@@H]2O[C@H](CO)C=C2)C(=O)NC1=O
p437
sVDCC0045
p438
VC[C@H](CN1C=NC2=C1N=CN=C2N)OCP(O)(O)=O
p439
sVDCC0044
p440
VCCCCN1CCCCC1C(=O)NC1=C(C)C=CC=C1C
p441
sVDCC0047
p442
VNS(=O)(=O)C1=C(Cl)C=CC(=C1)C1(O)NC(=O)C2=CC=CC=C12
p443
sVDCC0046
p444
VCO[C@]12[C@H]3N[C@H]3CN1C1=C([C@H]2COC(N)=O)C(=O)C(N)=C(C)C1=O
p445
sVDCC0041
p446
VCN1CCC[C@@H]1CCO[C@](C)(C1=CC=CC=C1)C1=CC=C(Cl)C=C1
p447
sVDCC0040
p448
VCCN(CC)CC(=O)NC1=C(C)C=CC=C1C
p449
sVDCC0043
p450
V[H][C@@]12OC3=C(O)C=CC4=C3[C@@]11CCN(C)[C@]([H])(C4)[C@]1([H])C=C[C@@H]2O
p451
sVDCC0042
p452
V[H][C@@]12CC[C@@](O)(C#C)[C@@]1(CC)CC(=C)[C@]1([H])[C@@]3([H])CCC(=O)C=C3CC[C@@]21[H]
p453
sVDCC1622
p454
VCCCO
p455
sVDCC0224
p456
VClC1=CC=C(NC(=N)NC(=N)NCCCCCCNC(=N)NC(=N)NC2=CC=C(Cl)C=C2)C=C1
p457
sVDCC0227
p458
V[H][C@]12OC[C@H](O[N+]([O-])=O)[C@@]1([H])OC[C@H]2O[N+]([O-])=O
p459
sVDCC0226
p460
VCCOC(=O)[C@H](CCC1=CC=CC=C1)N[C@@H](C)C(=O)N1CC2=CC=CC=C2C[C@H]1C(O)=O
p461
sVDCC0221
p462
VCOC1=CC=CC=C1OCC(O)CO
p463
sVDCC0220
p464
V[H][C@@]12CC[C@](O)(C(=O)OCCl)[C@@]1(C)C[C@H](O)[C@@]1([H])[C@@]2([H])CCC2=CC(=O)C=C[C@]12C
p465
sVDCC1624
p466
VO=C1NC=CC(=O)N1
p467
sVDCC0222
p468
VCCCCC1=NC=C(\u005cC=C(/CC2=CC=CS2)C(O)=O)N1CC1=CC=C(C=C1)C(O)=O
p469
sVDCC1628
p470
VCCOP(=O)(OCC)[C@@H](C)NC(=O)N(CCCl)N=O
p471
sVDCC0738
p472
VCCC1=C(CC)C=C2CC(CC2=C1)NC[C@H](O)C1=C2C=CC(=O)NC2=C(O)C=C1
p473
sVDCC0229
p474
VCN1CCC(CN2C3=CC=CC=C3SC3=CC=CC=C23)C1
p475
sVDCC0228
p476
VOC[C@@H]1CC[C@@H](O1)N1C=NC2=C1NC=NC2=O
p477
sVDCC1239
p478
V[H][C@]12SC(C)(C)[C@@H](N1C(=O)[C@H]2NC(=O)C1=C(C)ON=C1C1=C(F)C=CC=C1Cl)C(O)=O
p479
sVDCC1238
p480
VCCCN1CCCC[C@H]1C(=O)NC1=C(C)C=CC=C1C
p481
sVDCC0348
p482
V[H][C@@]1(C[C@@H](C)[C@]2([H])CC(=O)[C@H](C)\u005cC=C(C)\u005c[C@@H](O)[C@@H](OC)C(=O)[C@H](C)C[C@H](C)\u005cC=C\u005cC=C\u005cC=C(C)\u005c[C@H](C[C@]3([H])CC[C@@H](C)[C@@](O)(O3)C(=O)C(=O)N3CCCC[C@@]3([H])C(=O)O2)OC)CC[C@@H](OCCO)[C@@H](C1)OC
p483
sVDCC0088
p484
VOC[C@H]1O[C@H](C[C@@H]1O)N1C=C(C(=O)NC1=O)C(F)(F)F
p485
sVDCC1231
p486
VCOC1=CC=C(C=C1)C(CN(C)C)C1(O)CCCCC1
p487
sVDCC0347
p488
VCN[C@@H](C)CC1=CC=CC=C1
p489
sVDCC0344
p490
VCO\u005cN=C(/C(=O)N[C@@H]1C(=O)N2[C@]1([H])SCC(C[N+]1(C)CCCC1)=C2C([O-])=O)C1=CSC(N)=N1
p491
sVDCC0345
p492
VOCCCC([O-])=O
p493
sVDCC1235
p494
VOC(=O)CCCC1=CC=C(C=C1)N(CCCl)CCCl
p495
sVDCC0343
p496
V[H][C@@]12C[C@]1([H])[C@@]1([H])[C@]3([H])[C@]4([H])C[C@]4([H])[C@@]4(CCC(=O)O4)[C@@]3(C)CC[C@]1([H])[C@@]1(C)CCC(=O)C=C21
p497
sVDCC0340
p498
V[H][C@@]12CC[C@@](O)(C#C)[C@@]1(C)CC[C@]1([H])C3=C(CC[C@@]21[H])C=C(OC)C=C3
p499
sVDCC0613
p500
V[H][C@@]12CC=C(C3=CC=CN=C3)[C@@]1(C)CC[C@@]1([H])[C@@]2([H])CC=C2C[C@@H](O)CC[C@]12C
p501
sVDCC1680
p502
VN[C@H](C(=O)N1[C@H]2C[C@H]2C[C@H]1C#N)C12CC3CC(CC(O)(C3)C1)C2
p503
sVDCC0700
p504
VCCCCC1=NC(C)=C(CC(=S)N(C)C)C(=O)N1CC1=CC=C(C=C1)C1=C(C=CC=C1)C1=NN=NN1
p505
sVDCC0325
p506
V[H][C@@]12C[C@@H](C)[C@](O)(C(=O)CO)[C@@]1(C)C[C@H](O)[C@@]1(F)[C@@]2([H])CCC2=CC(=O)C=C[C@]12C
p507
sVDCC0290
p508
VCC(C)C1=C(C(=O)NC2=CC=CC=C2)C(=C(N1CCC(O)CC(O)CC([O-])=O)C1=CC=C(F)C=C1)C1=CC=CC=C1
p509
sVDCC0291
p510
VCCOC(=O)C1(CCN(CCC(C#N)(C2=CC=CC=C2)C2=CC=CC=C2)CC1)C1=CC=CC=C1
p511
sVDCC0292
p512
VCN[C@H]1[C@H](O)[C@@H](O)[C@H](CO)O[C@H]1O[C@H]1[C@H](O[C@H]2[C@H](O)[C@@H](O)[C@H](NC(N)=N)[C@@H](O)[C@@H]2NC(N)=N)O[C@@H](C)[C@]1(O)C=O
p513
sVDCC0293
p514
V[H][C@]12C[C@@H](O)[C@H](\u005cC=C\u005c[C@@H](O)C(C)CC#CC)[C@@]1([H])C\u005cC(C2)=C\u005cCCCC(O)=O
p515
sVDCC0294
p516
VCC(C)C1=NC(=NC(C2=CC=C(F)C=C2)=C1\u005cC=C\u005c[C@@H](O)C[C@@H](O)CC(=O)O)N(C)S(C)(=O)=O
p517
sVDCC0295
p518
VCCCCCOC(=O)NC1=NC(=O)N(C=C1F)[C@@H]1O[C@H](C)[C@@H](O)[C@H]1O
p519
sVDCC0297
p520
VClC1=CC(Cl)=C(COC(CN2C=CN=C2)C2=C(Cl)C=C(Cl)C=C2)C=C1
p521
sVDCC0298
p522
VCN(C)CCC(C1=CC=C(Cl)C=C1)C1=CC=CC=N1
p523
sVDCC0299
p524
VOC1=C([C@H]2CC[C@@H](CC2)C2=CC=C(Cl)C=C2)C(=O)C2=CC=CC=C2C1=O
p525
sVDCC0666
p526
S'C1=CC=C(C=C1)COC2=NC(=NC3=C2NC=N3)N'
p527
sVDCC0285
p528
V[H][C@]12SC(C)(C)[C@@H](N1C(=O)[C@H]2NC(=O)[C@H](N)C1=CC=C(O)C=C1)C(O)=O
p529
sVDCC1687
p530
VCOC1=CC(NC2=C(C=NC3=CC(OCCCN4CCN(C)CC4)=C(OC)C=C23)C#N)=C(Cl)C=C1Cl
p531
sVDCC1657
p532
VCOC1=C(OCC2CCN(C)CC2)C=C2N=CN=C(NC3=C(F)C=C(Br)C=C3)C2=C1
p533
sVDCC0532
p534
VNCCNCCNCCN
p535
sVDCC1302
p536
VCC(=O)OC1=CC=CC=C1C(=O)NC1=NC=C(S1)[N+]([O-])=O
p537
sVDCC1659
p538
VO.O.O.O.O.O.O.O.O.[Na+].[Na+].[Na+].[H][C@@]1(O[Sb]2(O)(O[Sb]34([O-])O[C@@H](C([O-])=O)[C@@]([H])(O3)[C@]([H])(O4)[C@H](O)CO)O[C@@H](C([O-])=O)[C@@]1([H])O2)[C@H](O)CO
p539
sVDCC1658
p540
V[H][C@@]12CCC[C@]1([H])[C@H](N(C2)C(=O)[C@@H](NC(=O)[C@@H](NC(=O)C1=NC=CN=C1)C1CCCCC1)C(C)(C)C)C(=O)N[C@@H](CCC)C(=O)C(=O)NC1CC1
p541
sVDCC0908
p542
V[H][C@@]12CC[C@](OC(C)=O)(C(C)=O)[C@@]1(C)CC[C@@]1([H])[C@@]2([H])C[C@H](C)C2=CC(=O)CC[C@]12C
p543
sVDCC0904
p544
S'CCOC1=C(C=C2C(=C1)N=CC(=C2NC3=CC(=C(C=C3)OCC4=CC=CC=N4)Cl)C#N)NC(=O)C=CCN(C)C'
p545
sVDCC0907
p546
V[Na+].OC([O-])=O
p547
sVDCC0469
p548
S'C1=C(C(=O)C(=CC1=C(N)NO)O)O'
p549
sVDCC0455
p550
S'C1=CC=C(C=C1)NC(=O)NC2=CC(=NC=C2)Cl'
p551
sVDCC1828
p552
V[H][C@@]12C[C@@]3([H])[C@]4([H])C[C@]([H])(F)C5=CC(=O)CC[C@]5(C)[C@@]4([H])[C@@H](O)C[C@]3(C)[C@@]1(OC(C)(C)O2)C(=O)CO
p553
sVDCC1829
p554
VNC(N)=NCCN1CCCCCCC1
p555
sVDCC0834
p556
VCC(C)C[C@H](NC(=O)[C@@H](CC1=CNC2=CC=CC=C12)NC(=O)[C@H](CC1=CC=C(O)C=C1)NC(=O)[C@H](CO)NC(=O)[C@H](CC1=CNC2=C1C=CC=C2)NC(=O)[C@H](CC1=CNC=N1)NC(=O)[C@@H]1CCC(=O)N1)C(=O)N[C@@H](CCCNC(N)=N)C(=O)N1CCC[C@H]1C(=O)NCC(N)=O
p557
sVDCC0836
p558
V[H][C@@]12CCC3=CC(=O)C=C[C@]3(C)[C@@]1([H])CC[C@]1(C)OC(=O)CC[C@@]21[H]
p559
sVDCC0029
p560
V[H][C@]12[C@H](C[C@@H](C)C=C1C=C[C@H](C)[C@@H]2CC[C@@H]1C[C@@H](O)CC(=O)O1)OC(=O)[C@@H](C)CC
p561
sVDCC1017
p562
S'CN1C=C(C=N1)C2=C3N=C(C(=C(N3N=C2)N)Br)C4CCCNC4'
p563
sVDCC0028
p564
VCC(C)(C)NC(=O)[C@@H]1CN(CC2=CN=CC=C2)CCN1C[C@@H](O)C[C@@H](CC1=CC=CC=C1)C(=O)N[C@@H]1[C@H](O)CC2=CC=CC=C12
p565
sVDCC0211
p566
VCN(C)C(=O)C(CCN1CCC(O)(CC1)C1=CC=C(Cl)C=C1)(C1=CC=CC=C1)C1=CC=CC=C1
p567
sVDCC0025
p568
VCOC1=C(C=C(C=C1)C1=CC2=C(C=C1)C=C(C=C2)C(O)=O)C12CC3CC(CC(C3)C1)C2
p569
sVDCC0159
p570
VC[C@H]1OC(OC2CC(O)C(C(O)CC(=O)CC(O)C(O)CCC(O)CC(O)CC(O)CC(=O)OC(C)C(C)C(O)C(C)\u005cC=C\u005cC=C\u005cCC\u005cC=C\u005cC=C\u005cC=C\u005cC=C\u005c2)C(O)=O)[C@@H](O)[C@@H](N)[C@@H]1O
p571
sVDCC0158
p572
V[H][C@@](CCC(O)=O)(NC(=O)C1=CC=C(CCC2=CNC3=C2C(O)=NC(=N)N3)C=C1)C(O)=O
p573
sVDCC0157
p574
V[H][C@]12[C@H](C[C@@H](C)C=C1C=C[C@H](C)[C@@H]2CC[C@@H]1C[C@@H](O)CC(=O)O1)OC(=O)C(C)(C)CC
p575
sVDCC0023
p576
VCCC1=C(C(N)=NC(N)=N1)C1=CC=C(Cl)C=C1
p577
sVDCC0155
p578
VCC(=O)NS(=O)(=O)C1=CC=C(N)C=C1
p579
sVDCC0154
p580
VC[C@H](C1=CNC=N1)C1=C(C)C(C)=CC=C1
p581
sVDCC0153
p582
V[H][C@]1(F)[C@H](O)[C@@H](CO)O[C@H]1N1C=NC2=C(N)N=C(Cl)N=C12
p583
sVDCC0152
p584
VOC(=O)C1=CN=CC=C1
p585
sVDCC0403
p586
VFC1=CN(C2CCCO2)C(=O)NC1=O
p587
sVDCC0022
p588
VCCCC1=NN(C)C2=C1NC(=NC2=O)C1=C(OCC)C=CC(=C1)S(=O)(=O)N1CCN(C)CC1
p589
sVDCC0458
p590
VOC1=CC=C(C=C1)C1=CC2=C(OC1)C=C(O)C=C2
p591
sVDCC1535
p592
VOCCNCCNC1=C2C(=O)C3=C(O)C=CC(O)=C3C(=O)C2=C(NCCNCCO)C=C1
p593
sVDCC0128
p594
VFC1=CNC(=O)NC1=O
p595
sVDCC0129
p596
VNC1=NC(N)=C(N=N1)C1=C(Cl)C(Cl)=CC=C1
p597
sVDCC0122
p598
VCOCCOC1=C(OCCOC)C=C2C(NC3=CC=CC(=C3)C#C)=NC=NC2=C1
p599
sVDCC0123
p600
VClCCN(CCCl)P1(=O)NCCCO1
p601
sVDCC0120
p602
V[H][N]1([H])[C@@H]2CCCC[C@H]2[N]([H])([H])[Pt]11OC(=O)C(=O)O1
p603
sVDCC0121
p604
VCOC(=O)C1=C(C)NC(C)=C(C1C1=CC(=CC=C1)[N+]([O-])=O)C(=O)OC(C)(C)CN(C)CCC(C1=CC=CC=C1)C1=CC=CC=C1
p605
sVDCC0126
p606
V[H][C@@]12N3CC[C@@]11C4=CC(=C(OC)C=C4N(C=O)[C@@]1([H])[C@](O)([C@H](OC(C)=O)[C@]2(CC)C=CC3)C(=O)OC)[C@]1(C[C@]2([H])CN(C[C@](O)(CC)C2)CCC2=C1NC1=CC=CC=C21)C(=O)OC
p607
sVDCC0127
p608
VCCOC(=O)[C@H](CCC1=CC=CC=C1)N[C@H]1CCC2=CC=CC=C2N(CC(O)=O)C1=O
p609
sVDCC0124
p610
VOC(=O)C1=CN(C2CC2)C2=CC(N3CCNCC3)=C(F)C=C2C1=O
p611
sVDCC0125
p612
VCN(C)CCOC1=CC=C(C=C1)C(=C(\u005cCCCl)C1=CC=CC=C1)\u005cC1=CC=CC=C1
p613
sVDCC0302
p614
VCC(C)\u005cN=C(/N)N=C(N)NC1=CC=C(Cl)C=C1
p615
sVDCC1577
p616
V[Ca]
p617
sVDCC0300
p618
VCC1=NS(=O)(=O)C2=C(N1)C=CC(Cl)=C2
p619
sVDCC0301
p620
VCOCCCOC1=C(C)C(CS(=O)C2=NC3=CC=CC=C3N2)=NC=C1
p621
sVDCC0306
p622
VCC(NC(C)(C)C)C(=O)C1=CC(Cl)=CC=C1
p623
sVDCC0307
p624
VCOC1=CC(NCC2=C(C)C3=C(C=C2)N=C(N)N=C3N)=CC(OC)=C1OC
p625
sVDCC0304
p626
VC[C@H]1COC2=C3N1C=C(C(O)=O)C(=O)C3=CC(F)=C2N1CCN(C)CC1
p627
sVDCC0305
p628
VCO\u005cN=C1/CN(CC1CN)C1=NC2=C(C=C1F)C(=O)C(=CN2C1CC1)C(O)=O
p629
sVDCC0308
p630
VO=[As][As](=O)=O
p631
sVDCC0309
p632
VNC[C@H]1O[C@H](O[C@@H]2[C@@H](N)C[C@@H](N)[C@H](O[C@H]3O[C@H](CO)[C@@H](O)[C@H](N)[C@H]3O)[C@H]2O)[C@H](O)[C@@H](O)[C@@H]1O
p633
sVDCC1273
p634
VCOC(=O)C(C1CCCCN1)C1=CC=CC=C1
p635
sVDCC1579
p636
V[Mg++]
p637
sVDCC0494
p638
VCC(C)C1=NC(CN(C)C(=O)N[C@@H](CCN2CCOCC2)C(=O)N[C@H](CC[C@H](CC2=CC=CC=C2)NC(=O)OCC2=CN=CS2)CC2=CC=CC=C2)=CS1
p639
sVDCC1478
p640
VCC(=O)N1CCN(CC1)C1=CC=C(OCC2COC(CN3C=CN=C3)(O2)C2=CC=C(Cl)C=C2Cl)C=C1
p641
sVDCC1477
p642
VCOC1=C(C\u005cC=C(/C)CCC(O)=O)C(O)=C2C(=O)OCC2=C1C
p643
sVDCC1474
p644
V[H][C@@]12C[C@H](C)[C@](OC(=O)CC)(C(=O)CCl)[C@@]1(C)C[C@H](O)[C@@]1(F)[C@@]2([H])CCC2=CC(=O)C=C[C@]12C
p645
sVDCC1473
p646
VC[C@@H](NCCCC1=CC(=CC=C1)C(F)(F)F)C1=CC=CC2=CC=CC=C12
p647
sVDCC1471
p648
VCS(=O)(=O)OCCCCOS(C)(=O)=O
p649
sVDCC1860
p650
VNC(N)=O
p651
sVDCC1861
p652
VNC1=CC=C(C=C1)S(=O)(=O)NC1=NC=CS1
p653
sVDCC0061
p654
VCOC1=CC2=C(C=C1)N=C(N2)S(=O)CC1=NC=C(C)C(OC)=C1C
p655
sVDCC0016
p656
VCC(C)C[C@H](NC(=O)[C@H](CC1=CC=CC=C1)NC(=O)C1=CN=CC=N1)B(O)O
p657
sVDCC0017
p658
VC[C@@](CC1=CC(O)=C(O)C=C1)(NN)C(O)=O
p659
sVDCC0014
p660
VCCCCC(=O)N(CC1=CC=C(C=C1)C1=CC=CC=C1C1=NNN=N1)[C@@H](C(C)C)C(O)=O
p661
sVDCC0015
p662
V[H][C@@]12CCC[C@]1([H])N([C@@H](C2)C(O)=O)C(=O)[C@H](C)N[C@@H](CCC1=CC=CC=C1)C(=O)OCC
p663
sVDCC0399
p664
S'CCCCCCCCCCCCCCCCCCOP(=O)([O-])OC1CC[N+](CC1)(C)C'
p665
sVDCC0398
p666
V[H][C@@](C)(C(O)=O)C1=CC(=CC=C1)C(=O)C1=CC=CC=C1
p667
sVDCC0011
p668
VCC[C@@H]1NC(=O)[C@H]([C@H](O)[C@H](C)C\u005cC=C\u005cC)N(C)C(=O)[C@H](C(C)C)N(C)C(=O)[C@H](CC(C)C)N(C)C(=O)[C@H](CC(C)C)N(C)C(=O)[C@@H](C)NC(=O)[C@H](C)NC(=O)[C@H](CC(C)C)N(C)C(=O)[C@@H](NC(=O)[C@H](CC(C)C)N(C)C(=O)CN(C)C1=O)C(C)C
p669
sVDCC0395
p670
VCCCCOC1=CC=C(OCCCN2CCOCC2)C=C1
p671
sVDCC0394
p672
V[H][C@@]12CCCN1C(=O)[C@H](CC(C)C)NC(=O)[C@@H](C)C(=O)[C@@H](OC(=O)C[C@H](O)[C@]([H])(NC(=O)[C@@H](NC(=O)[C@@H](CC(C)C)N(C)C(=O)[C@@H]1CCCN1C(=O)C(C)=O)[C@@H](C)OC(=O)[C@H](CC1=CC=C(OC)C=C1)N(C)C2=O)[C@@H](C)CC)C(C)C
p673
sVDCC0397
p674
S'CCCC(=O)[O-].[Na+]'
p675
sVDCC0396
p676
VO=C1C=C(OC2=C1C=CC=C2C1=CC=CC=C1)N1CCOCC1
p677
sVDCC0407
p678
V[O-][N+](=O)C1=CN2C[C@@H](COC2=N1)OCC1=CC=C(OC(F)(F)F)C=C1
p679
sVDCC0018
p680
VCOC1=CC=CC(=C1)[C@@]1(O)CCCC[C@@H]1CN(C)C
p681
sVDCC0019
p682
VCCOC(=O)C1=C[C@@H](OC(CC)CC)[C@H](NC(C)=O)[C@@H](N)C1
p683
sVDCC1407
p684
V[H][C@]12CC3=C(NC4=CC=CC=C34)[C@H](N1C(=O)CN(C)C2=O)C1=CC2=C(OCO2)C=C1
p685
sVDCC0377
p686
VC(N(CC1=CC=CC=C1)C1=CC=CC=C1)C1=NCCN1
p687
sVDCC0376
p688
VOC1=CC(Cl)=CC=C1OC1=C(Cl)C=C(Cl)C=C1
p689
sVDCC0375
p690
VC(C1=NCCN1)C1=CC=CC2=CC=CC=C12
p691
sVDCC0374
p692
VCCCCN(CCCC)CC(O)C1=C2C(=CC(Cl)=C1)\u005cC(=C/C1=CC=C(Cl)C=C1)C1=C2C=CC(Cl)=C1
p693
sVDCC0373
p694
VC[C@H](N)[C@H](O)C1=CC(O)=C(O)C=C1
p695
sVDCC0372
p696
V[H][C@@]12CC[C@@H](C)[C@]3([H])CC[C@@]4(C)OO[C@@]13[C@]([H])(O[C@H](OC)[C@@H]2C)O4
p697
sVDCC0278
p698
VN[C@@H](CC1=CC=C(C=C1)N(CCCl)CCCl)C(O)=O
p699
sVDCC0279
p700
VCOC1=C2N(C=C(C(O)=O)C(=O)C2=CC(F)=C1N1CCNC(C)C1)C1CC1
p701
sVDCC1613
p702
VCCCCC[C@H](O)\u005cC=C\u005cC1=C(C\u005cC=C\u005cCCCC(O)=O)C(=O)CC1
p703
sVDCC0277
p704
VO=C1N(C2CCC(=O)NC2=O)C(=O)C2=CC=CC=C12
p705
sVDCC0274
p706
VCC=CCC=CCCC(=O)[C@H]1O[C@H]1C(N)=O
p707
sVDCC0275
p708
VCCN(CC)CCNC(=O)C1=CC=C(N)C=C1
p709
sVDCC0272
p710
VCCCN(CCC)S(=O)(=O)C1=CC=C(C=C1)C(O)=O
p711
sVDCC0273
p712
VS=C1N=CNC2=C1NC=N2
p713
sVDCC1615
p714
VNC(=O)C1=CC=CN=C1
p715
sVDCC1614
p716
VNCCCC[C@H](NC(=O)[C@@H]1CCCN1C(=O)[C@@H]1CSSC[C@H](NC(=O)CNC(=O)CNC(=O)CN)C(=O)N[C@@H](CC2=CC=C(O)C=C2)C(=O)N[C@@H](CC2=CC=CC=C2)C(=O)N[C@@H](CCC(N)=O)C(=O)N[C@@H](CC(N)=O)C(=O)N1)C(=O)NCC(N)=O
p717
sVDCC1589
p718
VCC(C)CCC[C@@H](C)[C@@]1([H])CC[C@@]2([H])\u005cC(CCC[C@]12C)=C\u005cC=C1\u005cC[C@@H](O)C[C@H](O)C1=C
p719
sVDCC0789
p720
VCN(NC(=O)CC(=O)NN(C)C(=S)C1=CC=CC=C1)C(=S)C1=CC=CC=C1
p721
sVDCC0787
p722
S'CC1=CC(=NC(=N1)NC2=NC3=CC(=C(C=C3N2)Cl)Cl)NCC(C)N(C)C'
p723
sVDCC1587
p724
VNC[C@@H]1O[C@H](O[C@@H]2[C@@H](CO)O[C@@H](O[C@@H]3[C@@H](O)[C@H](N)C[C@H](N)[C@H]3O[C@H]3O[C@H](CO)[C@@H](O)[C@H](O)[C@H]3N)[C@@H]2O)[C@H](N)[C@@H](O)[C@@H]1O
p725
sVDCC0920
p726
VOC(=O)C1CCN2C1=CC=C2C(=O)C1=CC=CC=C1
p727
sVDCC1584
p728
V[H][C@]12O[C@@]1([H])[C@]1([H])C[C@@]([H])(C[C@@]2([H])[N+]1(C)C)OC(=O)C(O)(C1=CC=CS1)C1=CC=CS1
p729
sVDCC1262
p730
V[H][C@]12CCCC3=C1C(=CC=C3)C(=O)N(C2)[C@@H]1CN2CCC1CC2
p731
sVDCC0080
p732
VOC(CN1C=CN=C1)(P(O)(O)=O)P(O)(O)=O
p733
sVDCC1479
p734
VCC(C)N(CC[C@H](C1=CC=CC=C1)C1=C(O)C=CC(C)=C1)C(C)C
p735
sVDCC1727
p736
VCC1=CC(\u005cC=C\u005cC#N)=CC(C)=C1NC1=CC=NC(NC2=CC=C(C=C2)C#N)=N1
p737
sVDCC1726
p738
VO[C@H](C[C@H](O)\u005cC=C\u005cC1=C(N=C2C=CC=CC2=C1C1=CC=C(F)C=C1)C1CC1)CC(O)=O
p739
sVDCC1723
p740
VCN1C=CC(=O)C(O)=C1C
p741
sVDCC1722
p742
VCCOC1=NC2=C(N1CC1=CC=C(C=C1)C1=CC=CC=C1C1=NOC(=O)N1)C(=CC=C2)C(=O)OCC1=C(C)OC(=O)O1
p743
sVDCC0552
p744
V[Na+].[H][C@@]12CCC(=O)[C@@]1(C)CC[C@]1([H])C3=CC=C(OS([O-])(=O)=O)C=C3CC[C@@]21[H]
p745
sVDCC1194
p746
VCC(N)CC1=CC=CC=C1
p747
sVDCC1197
p748
VOC1N=C(C2=CC=CC=C2Cl)C2=C(NC1=O)C=CC(Cl)=C2
p749
sVDCC1191
p750
V[H][C@]12[C@H](C[C@H](O)C=C1C=C[C@H](C)[C@@H]2CC[C@@H](O)C[C@@H](O)CC(O)=O)OC(=O)[C@@H](C)CC
p751
sVDCC1297
p752
V[H][C@]12SCC(COC(C)=O)=C(N1C(=O)[C@H]2NC(=O)C(=N/OC)\u005cC1=CSC(N)=N1)C(O)=O
p753
sVDCC1293
p754
VCNCC[C@H](OC1=CC=CC2=CC=CC=C12)C1=CC=CS1
p755
sVDCC1356
p756
VCC1=CC=C(C=C1)N(CC1=NCCN1)C1=CC(O)=CC=C1
p757
sVDCC1357
p758
VCOC1=CC=CC2=C1C(=O)C1=C(O)C3=C(C[C@](O)(C[C@@H]3O[C@H]3C[C@H](N)[C@H](O)[C@H](C)O3)C(C)=O)C(O)=C1C2=O
p759
sVDCC1354
p760
V[H][C@@]12CC[C@](O)(C(=O)CO)[C@@]1(C)C[C@H](O)[C@@]1(F)[C@@]2([H])CCC2=CC(=O)CC[C@]12C
p761
sVDCC1355
p762
VCCOC(=O)[C@H](CCC1=CC=CC=C1)N[C@@H](C)C(=O)N1CC2=CC(OC)=C(OC)C=C2C[C@H]1C(O)=O
p763
sVDCC0875
p764
V[O-][N+](=O)OCCNC(=O)C1=CC=CN=C1
p765
sVDCC1351
p766
VC[C@@H](O[C@H]1OCCN(CC2=NNC(=O)N2)[C@H]1C1=CC=C(F)C=C1)C1=CC(=CC(=C1)C(F)(F)F)C(F)(F)F
p767
sVDCC0059
p768
VCN1CCN(CC1)C1=NC2=CC=CC=C2NC2=C1C=C(C)S2
p769
sVDCC0887
p770
VCC(C)CCC[C@@H](C)[C@@]1([H])CC[C@@]2([H])\u005cC(CCC[C@]12C)=C\u005cC=C1\u005cC[C@@H](O)CCC1=C
p771
sVDCC0684
p772
S'CC1CCC2CC(C(=CC=CC=CC(CC(C(=O)C(C(C(=CC(C(=O)CC(OC(=O)C3CCCCN3C(=O)C(=O)C1(O2)O)C(C)CC4CCC(C(C4)OC)N5C=NN=N5)C)C)O)OC)C)C)C)OC'
p773
sVDCC0085
p774
V[H][C@@]12CC[C@@]3(CCC(=O)O3)[C@@]1(C)CC[C@@]1([H])[C@@]2([H])[C@@]([H])(CC2=CC(=O)CC[C@]12C)SC(C)=O
p775
sVDCC0050
p776
VCOC1=C(OCCCN2CCOCC2)C=C2C(NC3=CC(Cl)=C(F)C=C3)=NC=NC2=C1
p777
sVDCC0118
p778
VCCCSC1=CC2=C(C=C1)N=C(NC(=O)OC)N2
p779
sVDCC0366
p780
VC[C@@]12CC[C@@H](CC1)C(C)(C)O2
p781
sVDCC0084
p782
V[H][C@]12SC(C)(C)[C@@H](N1C(=O)[C@H]2NC(=O)COC1=CC=CC=C1)C(O)=O
p783
sVDCC1433
p784
VCCC(=C)C(=O)C1=C(Cl)C(Cl)=C(OCC(O)=O)C=C1
p785
sVDCC1432
p786
VCCC(=O)N(C1=CC=CC=C1)C1(CCN(CCC(=O)OC)CC1)C(=O)OC
p787
sVDCC1431
p788
VCCO
p789
sVDCC1539
p790
VCC(C)(C#N)C1=CC(=CC(CN2C=NC=N2)=C1)C(C)(C)C#N
p791
sVDCC1437
p792
V[H]C1CC[C@]2(C)[C@]([H])(CC[C@@]2([H])\u005cC1=C\u005cC=C1C[C@@H](O)C[C@H](O)C1)[C@H](C)\u005cC=C\u005c[C@H](C)C(O)(C)C
p793
sVDCC1436
p794
VNS(=O)(=O)CC1=NOC2=CC=CC=C12
p795
sVDCC0450
p796
VCCCCCCCCCCCCCCCCOP([O-])(=O)OCC[N+](C)(C)C
p797
sVDCC0451
p798
VONC(=O)\u005cC=C\u005cC(\u005cC)=C\u005c[C@](C)([H])C(=O)C1=CC=C(N(C)C)C=C1
p799
sVDCC0027
p800
VCCC1=C(C)CN(C(=O)NCCC2=CC=C(C=C2)S(=O)(=O)NC(=O)NC2CCC(C)CC2)C1=O
p801
sVDCC0026
p802
VCOC1=C(OC)C(CS(=O)C2=NC3=C(N2)C=C(OC(F)F)C=C3)=NC=C1
p803
sVDCC1530
p804
V[H][C@@]12OC3=C(O)C=CC4=C3[C@@]11CCN(C)[C@]([H])(C4)[C@]1(O)CCC2=O
p805
sVDCC0024
p806
VCC[C@H]1OC(=O)[C@H](C)[C@@H](O[C@H]2C[C@@](C)(OC)[C@@H](O)[C@H](C)O2)[C@H](C)[C@@H](O[C@@H]2O[C@H](C)C[C@@H]([C@H]2O)N(C)C)[C@](C)(O)C[C@@H](C)CN(C)[C@H](C)[C@@H](O)[C@]1(C)O
p807
sVDCC1820
p808
V[H][C@@]12CCCN1C(=O)[C@H](CC1=CC=CC=C1)N1C(=O)[C@](C)(NC(=O)[C@H]3CN(C)[C@]4([H])CC5=CNC6=CC=CC(=C56)[C@@]4([H])C3)O[C@@]21O
p809
sVDCC1537
p810
VClCCN(N=O)C(=O)NC1CCCCC1
p811
sVDCC1822
p812
VCC[N+](C)(C)C1=CC(O)=CC=C1
p813
sVDCC0020
p814
VCC[C@H]1OC(=O)[C@H](C)[C@@H](O[C@H]2C[C@@](C)(OC)[C@@H](O)[C@H](C)O2)[C@H](C)[C@@H](O[C@@H]2O[C@H](C)C[C@@H]([C@H]2O)N(C)C)[C@](C)(O)C[C@@H](C)C(=O)[C@H](C)[C@@H](O)[C@]1(C)O
p815
sVDCC0188
p816
V[H][C@]1([C@@H](C)O)C(=O)N2C(C(O)=O)=C(S[C@@H]3CN[C@@H](C3)C(=O)N(C)C)[C@H](C)[C@]12[H]
p817
sVDCC0189
p818
VCCC1=C2CN3C(=CC4=C(COC(=O)[C@]4(O)CC)C3=O)C2=NC2=C1C=C(OC(=O)N1CCC(CC1)N1CCCCC1)C=C2
p819
sVDCC0087
p820
VCC1=CC=C(C=C1)C(=C/CN1CCCC1)\u005cC1=CC=CC=N1
p821
sVDCC1601
p822
VCCN(CCO)CCCC(C)NC1=C2C=CC(Cl)=CC2=NC=C1
p823
sVDCC0180
p824
V[H][C@@]12CC[C@@](O)(C#C)[C@@]1(C)CC[C@]1([H])[C@@]3([H])CCC(=O)C=C3CC[C@@]21[H]
p825
sVDCC0181
p826
VNCCCC[C@H](N[C@@H](CCC1=CC=CC=C1)C(O)=O)C(=O)N1CCC[C@H]1C(O)=O
p827
sVDCC0182
p828
V[Br-].C[N+]1(C)C2CCC1CC(C2)OC(=O)C(O)C1=CC=CC=C1
p829
sVDCC0183
p830
VC[N+]1=C(\u005cC=N\u005cO)C=CC=C1
p831
sVDCC0184
p832
V[H][C@@]12CC[C@](O)(C(=O)CO)[C@@]1(C)C[C@H](O)[C@@]1([H])[C@@]2([H])CCC2=CC(=O)CC[C@]12C
p833
sVDCC0185
p834
VCCCNC(C)C(=O)NC1=CC=CC=C1C
p835
sVDCC0186
p836
VCC(C=CC1=C(C)CCCC1(C)C)=CC=CC(C)=CC(O)=O
p837
sVDCC0187
p838
V[H][C@@]12C[C@@]3([H])C(=C(O)[C@]1(O)C(=O)C(C(N)=O)=C(O)[C@H]2N(C)C)C(=O)C1=C(O)C=CC=C1[C@@]3(C)O
p839
sVDCC0368
p840
VOC1=C(I)C=C(Cl)C2=C1N=CC=C2
p841
sVDCC1221
p842
V[H][C@@]12[C@@H](C)C3=C(C(O)=CC=C3)C(=O)C1=C(O)[C@]1(O)C(=O)C(C(N)=O)=C(O)[C@@H](N(C)C)[C@]1([H])[C@H]2O
p843
sVDCC0369
p844
V[H][C@@]12[C@@H]3SC[C@]4(NCCC5=C4C=C(OC)C(O)=C5)C(=O)OC[C@H](N1[C@@H](O)[C@@H]1CC4=CC(C)=C(OC)C(O)=C4[C@H]2N1C)C1=C2OCOC2=C(C)C(OC(C)=O)=C31
p845
sVDCC0113
p846
VC\u005cN=C(\u005cNCCSCC1=C(C)NC=N1)NC#N
p847
sVDCC0112
p848
V[H][C@@]12OC3=C(OC)C=CC4=C3[C@@]11CCN(C)[C@]([H])(C4)[C@]1(O)CCC2=O
p849
sVDCC0111
p850
VCC1=CN([C@H]2C[C@H](N=[N+]=[N-])[C@@H](CO)O2)C(=O)NC1=O
p851
sVDCC0110
p852
VCCN(CC)C(=O)C(=C\u005cC1=CC(=C(O)C(O)=C1)[N+]([O-])=O)\u005cC#N
p853
sVDCC0117
p854
VN[Pt](N)(Cl)Cl
p855
sVDCC0116
p856
V[H][C@]12CC3=C(C=C(OC)C=C3)[C@@]3(CCCC[C@]13[H])CCN2C
p857
sVDCC0115
p858
VCN[C@H](CC(C)C)C(=O)N[C@@H]1[C@H](O)C2=CC=C(OC3=C(O[C@@H]4O[C@H](CO)[C@@H](O)[C@H](O)[C@H]4O[C@H]4C[C@](C)(N)[C@H](O)[C@H](C)O4)C4=CC(=C3)[C@@H](NC(=O)[C@H](CC(N)=O)NC1=O)C(=O)N[C@@H]1C3=CC(=C(O)C=C3)C3=C(O)C=C(O)C=C3[C@H](NC(=O)[C@@H](NC1=O)[C@H](O)C1=CC
p859
sVDCC0114
p860
VCC(C)[C@H](NC(=O)N(C)CC1=CSC(=N1)C(C)C)C(=O)N[C@H](C[C@H](O)[C@H](CC1=CC=CC=C1)NC(=O)OCC1=CN=CS1)CC1=CC=CC=C1
p861
sVDCC0052
p862
V[H][C@]12SC(C)(C)[C@@H](N1C(=O)[C@H]2NC(=O)[C@H](NC(=O)N1CCN(CC)C(=O)C1=O)C1=CC=CC=C1)C(O)=O
p863
sVDCC0053
p864
VCN(C)CCC=C1C2=CC=CC=C2CCC2=CC=CC=C12
p865
sVDCC0119
p866
V[H][C@@]12C[C@H](N(C(=O)[C@H](C)N[C@@H](CCC3=CC=CC=C3)C(=O)OCC)[C@@]1([H])CCCC2)C(O)=O
p867
sVDCC0051
p868
V[H][C@@]12OC3=C(OC)C=CC4=C3[C@@]11CCN(C)[C@]([H])(C4)[C@]1([H])C=C[C@@H]2O
p869
sVDCC0056
p870
VCC[C@@H](CO)NCCN[C@@H](CC)CO
p871
sVDCC0057
p872
VCN(C)C(=N)NC(N)=N
p873
sVDCC0054
p874
VO=N[Fe--](C#N)(C#N)(C#N)(C#N)C#N
p875
sVDCC0055
p876
VCOC1=CC2=C(C=C1)N(C(=O)C1=CC=C(Cl)C=C1)C(C)=C2CC(O)=O
p877
sVDCC0232
p878
V[H][C@@]12CCN(C[C@@H]1C=C)[C@]([H])(C2)[C@@H](O)C1=C2C=C(OC)C=CC2=NC=C1
p879
sVDCC1227
p880
VC[C@@H]1CCN([C@H](C1)C(O)=O)C(=O)[C@H](CCCN=C(N)N)NS(=O)(=O)C1=CC=CC2=C1NC[C@H](C)C2
p881
sVDCC0230
p882
VCCNC(=O)CCC\u005cC=C/C[C@H]1[C@@H](O)C[C@@H](O)[C@@H]1\u005cC=C\u005c[C@@H](O)CCC1=CC=CC=C1
p883
sVDCC0231
p884
VCC1=C(SC=C1)C(=CCCN1CCC[C@H](C1)C(O)=O)C1=C(C)C=CS1
p885
sVDCC0236
p886
VCO[C@]12CC[C@@]3(C[C@@H]1[C@](C)(O)C(C)(C)C)[C@H]1CC4=C5C(O[C@@H]2[C@@]35CCN1CC1CC1)=C(O)C=C4
p887
sVDCC0237
p888
VNC(N)=NC1=NC(CSCCC(N)=NS(N)(=O)=O)=CS1
p889
sVDCC0234
p890
VNC12CC3CC(CC(C3)C1)C2
p891
sVDCC0235
p892
VCC1=NC=C(N1CCO)[N+]([O-])=O
p893
sVDCC1384
p894
VCC(=O)N(O)CCCCCNC(=O)CCC(=O)N(O)CCCCCNC(=O)CCC(=O)N(O)CCCCCN
p895
sVDCC0238
p896
VCCCCC(C)(O)C\u005cC=C\u005c[C@H]1[C@H](O)CC(=O)[C@@H]1CCCCCCC(=O)OC
p897
sVDCC0239
p898
VOCC1=C(O)C=CC(=C1)C(O)CNCCCCCCOCCCCC1=CC=CC=C1
p899
sVDCC1381
p900
VOC[C@@H](O)[C@@H](O)[C@H](O)[C@H](O)CO
p901
sVDCC1380
p902
VNC1=NC2=C(S1)C=C(OC(F)(F)F)C=C2
p903
sVDCC0089
p904
VCN1CCN(CCCN2C3=CC=CC=C3SC3=C2C=C(Cl)C=C3)CC1
p905
sVDCC0339
p906
VCOC1=NC=NC(NS(=O)(=O)C2=CC=C(N)C=C2)=C1OC
p907
sVDCC0338
p908
VO[Bi]1OC(=O)C2=CC=CC=C2O1
p909
sVDCC1548
p910
VCN(C)CCCN1C2=CC=CC=C2CCC2=C1C=C(Cl)C=C2
p911
sVDCC0333
p912
VN[C@@H](CC(=O)N1CCN2C(C1)=NN=C2C(F)(F)F)CC1=CC(F)=C(F)C=C1F
p913
sVDCC1546
p914
VClC1=CC=CC(N2CCN(CCCCOC3=CC4=C(CCC(=O)N4)C=C3)CC2)=C1Cl
p915
sVDCC0331
p916
VCOCCCOC1=C(OC)C=CC(C[C@@H](C[C@H](N)[C@@H](O)C[C@@H](C(C)C)C(=O)NCC(C)(C)C(N)=O)C(C)C)=C1
p917
sVDCC0330
p918
VCC1=NC(NC2=NC=C(S2)C(=O)NC2=C(C)C=CC=C2Cl)=CC(=N1)N1CCN(CCO)CC1
p919
sVDCC0337
p920
VNNC1=NN=CC2=CC=CC=C12
p921
sVDCC1542
p922
VCC(=O)NC1C(O)OC(COS(O)(=O)=O)C(OC2OC(C(OC3OC(CO)C(OC4OC(C(O)C(O)C4OS(O)(=O)=O)C(O)=O)C(OS(O)(=O)=O)C3NS(O)(=O)=O)C(O)C2OS(O)(=O)=O)C(O)=O)C1O
p923
sVDCC1541
p924
VOCCOCCN1CCN(CC1)C1=NC2=CC=CC=C2SC2=CC=CC=C12
p925
sVDCC0334
p926
VNC1=NC(=O)N(C=N1)[C@H]1C[C@H](O)[C@@H](CO)O1
p927
sVDCC0287
p928
VCC(CN1C2=CC=CC=C2SC2=CC=CC=C12)N(C)C
p929
sVDCC0303
p930
VCCC1=CN=C(CCOC2=CC=C(CC3SC(=O)NC3=O)C=C2)C=C1
p931
sVDCC1574
p932
V[Li+]
p933
sVDCC0021
p934
VCN1C=NC2=C1C(=O)N(C)C(=O)N2C
p935
sVDCC0247
p936
VCCCC1=NC2=C(C=C(C=C2C)C2=NC3=CC=CC=C3N2C)N1CC1=CC=C(C=C1)C1=CC=CC=C1C(O)=O
p937
sVDCC0246
p938
VCN1CCCCC1C(=O)NC1=C(C)C=CC=C1C
p939
sVDCC0245
p940
VN.N.O=C1O[Pt]OC(=O)C11CCC1
p941
sVDCC0244
p942
V[H][C@@]12CC[C@@](OC(C)=O)(C#C)[C@@]1(CC)CC[C@]1([H])[C@@]3([H])CC\u005cC(C=C3CC[C@@]21[H])=N/O
p943
sVDCC0243
p944
V[H][C@@]12OC3=C(OC)C=CC4=C3[C@@]11CCN(C)[C@]([H])(C4)[C@]1([H])CCC2=O
p945
sVDCC1641
p946
VOC(CNCC(O)C1CCC2=C(O1)C=CC(F)=C2)C1CCC2=C(O1)C=CC(F)=C2
p947
sVDCC1314
p948
VCOC1=C2OC(=O)C=CC2=CC2=C1OC=C2
p949
sVDCC0620
p950
V[H][C@](N)(CCC(O)=N[C@@]([H])(CS(=O)(=O)CCOP(=O)(N(CCCl)CCCl)N(CCCl)CCCl)C(O)=N[C@@]([H])(C(O)=O)C1=CC=CC=C1)C(O)=O
p951
sVDCC1545
p952
VCCN(CC)CCNC(=O)C1=CC(Cl)=C(N)C=C1OC
p953
sVDCC1097
p954
V[H][C@@]12CC[C@H](O)[C@@]1(C)CC[C@]1([H])C3=C(CC[C@@]21[H])C=C(O)C=C3
p955
sVDCC0248
p956
VClC1=CC2=C(C=C1)C(=C1CCNCC1)C1=C(CC2)C=CC=N1
p957
sVDCC0622
p958
S'C1=CC(=C(C=C1C(=O)N)[N+](=O)[O-])I'
p959
sVDCC0336
p960
VCCN(CC)CCNC(=O)C1=C(C)NC(\u005cC=C2/C(=O)NC3=C2C=C(F)C=C3)=C1C
p961
sVDCC0335
p962
V[H][C@@](C)(O)[C@]([H])(CC)N1N=CN(C1=O)C1=CC=C(C=C1)N1CCN(CC1)C1=CC=C(OC[C@]2([H])CO[C@](CN3C=NC=N3)(C2)C2=C(F)C=C(F)C=C2)C=C1
p963
sVDCC0945
p964
S'CC1=[N+](C2=C(N1CCOC)C(=O)C3=CC=CC=C3C2=O)CC4=NC=CN=C4.[Br-]'
p965
sVDCC0440
p966
S'C1=NC(=C(N1C2C(C(C(O2)CO)O)O)O)C(=O)N'
p967
sVDCC1164
p968
V[H][C@]1(NC(=O)[C@H](CCCCN)NC(=O)[C@@H](CC2=CNC3=C2C=CC=C3)NC(=O)[C@H](CC2=CC=CC=C2)NC(=O)[C@H](CSSC[C@H](NC1=O)C(=O)N[C@H](CO)[C@@H](C)O)NC(=O)[C@H](N)CC1=CC=CC=C1)[C@@H](C)O
p969
sVDCC1488
p970
V[O-][N+](=O)C1=CC2=C(NC(=O)CN=C2C2=CC=CC=C2Cl)C=C1
p971
sVDCC1367
p972
VFC1=CC=C(C=C1)[C@@H]1CCNC[C@H]1COC1=CC2=C(OCO2)C=C1
p973
sVDCC1365
p974
V[H][C@]12SC(C)(C)[C@@H](N1C(=O)[C@H]2NC(=O)C1=C(C)ON=C1C1=CC=CC=C1)C(O)=O
p975
sVDCC0802
p976
VCN1C(=O)C(O)=C(N=C1C(C)(C)NC(=O)C1=NN=C(C)O1)C(=O)NCC1=CC=C(F)C=C1
p977
sVDCC1363
p978
VCCCCCN(C)CCC(O)(P(O)(O)=O)P(O)(O)=O
p979
sVDCC1361
p980
VCCOC1=CC=CC=C1OCCN[C@H](C)CC1=CC(=C(OC)C=C1)S(N)(=O)=O
p981
sVDCC1368
p982
VCC(C)(C)C(=O)OCOP(=O)(COCCN1C=NC2=C(N)N=CN=C12)OCOC(=O)C(C)(C)C
p983
sVDCC0148
p984
VCN1CCN(CC2=CC=C(C=C2)C(=O)NC2=CC(NC3=NC=CC(=N3)C3=CN=CC=C3)=C(C)C=C2)CC1
p985
sVDCC0149
p986
V[H][C@@]12C[C@@H](O)[C@](O)(C(=O)CO)[C@@]1(C)C[C@H](O)[C@@]1(F)[C@@]2([H])CCC2=CC(=O)C=C[C@]12C
p987
sVDCC0144
p988
VCC(=O)NC[C@H]1CN(C(=O)O1)C1=CC(F)=C(C=C1)N1CCOCC1
p989
sVDCC0145
p990
VCC(C)NCC(O)COC1=CC=C(COCCOC(C)C)C=C1
p991
sVDCC0146
p992
VCCN(CC)CC1=C(O)C=CC(NC2=C3C=CC(Cl)=CC3=NC=C2)=C1
p993
sVDCC0147
p994
VCO[C@H]1\u005cC=C\u005cO[C@@]2(C)OC3=C(C2=O)C2=C(C(O)=C3C)C(=O)C(NC(=O)\u005cC(C)=C/C=C/[C@H](C)[C@H](O)[C@@H](C)[C@@H](O)[C@@H](C)[C@H](OC(C)=O)[C@@H]1C)=C1NC3(CCN(CC3)CC(C)C)N=C21
p995
sVDCC0140
p996
V[H][C@@]12C[C@@]3([H])[C@]4([H])C[C@]([H])(F)C5=CC(=O)C=C[C@]5(C)[C@@]4(F)[C@@H](O)C[C@]3(C)[C@@]1(OC(C)(C)O2)C(=O)CO
p997
sVDCC0141
p998
VCCC1(C)CC(=O)NC1=O
p999
sVDCC0142
p1000
VNC(N)=NC(=O)C1=C(N)N=C(N)C(Cl)=N1
p1001
sVDCC0143
p1002
V[H][C@@]12[C@@H](O)[C@@]3([H])C(C(=O)C4=C(O)C=CC=C4[C@@]3(C)O)=C(O)[C@]1(O)C(=O)C(C(N)=O)=C(O)[C@H]2N(C)C
p1003
sVDCC0156
p1004
V[H][C@@]12CC[C@](O)(C(=O)CO)[C@@]1(C)CC(=O)[C@@]1([H])[C@@]2([H])CCC2=CC(=O)C=C[C@]12C
p1005
sVDCC1525
p1006
VC[C@@H]1O[C@H](C[C@H](N)[C@@H]1O)O[C@H]1C[C@@](O)(CC2=C1C(O)=C1C(=O)C3=CC=CC=C3C(=O)C1=C2O)C(C)=O
p1007
sVDCC0932
p1008
S'C1CC1C(=O)N2CCN(CC2)C(=O)C3=C(C=CC(=C3)CC4=NNC(=O)C5=CC=CC=C54)F'
p1009
sVDCC1503
p1010
VO=C1N(CC2=CC=CC=C2)C2C[S+]3CCCC3C2N1CC1=CC=CC=C1
p1011
sVDCC1502
p1012
VCOC(=O)C1=C(C)NC(C)=C(C1C1=CC=CC=C1[N+]([O-])=O)C(=O)OC
p1013
sVDCC1501
p1014
VCOC1=C(OC)C=C(CC2=NC=CC3=CC(OC)=C(OC)C=C23)C=C1
p1015
sVDCC1500
p1016
V[H][C@]12SCC(COC(N)=O)=C(N1C(=O)[C@H]2NC(=O)C(=N/OC)\u005cC1=CC=CO1)C(O)=O
p1017
sVDCC1507
p1018
V[H][C@@]1(CC[C@@]2([H])[C@]3([H])CC[C@@]4([H])NC(=O)C=C[C@]4(C)[C@@]3([H])CC[C@]12C)C(=O)NC1=CC(=CC=C1C(F)(F)F)C(F)(F)F
p1019
sVDCC1505
p1020
V[H][C@@]12CCC[C@]1([H])CN(C2)NC(=O)NS(=O)(=O)C1=CC=C(C)C=C1
p1021
sVDCC0665
p1022
VCC1=C(N(CC2=CC=C(OCCN3CCCCCC3)C=C2)C2=C1C=C(O)C=C2)C1=CC=C(O)C=C1
p1023
sVDCC1509
p1024
VCOC1=CC=CC=C1OCCNCC(O)COC1=CC=CC2=C1C1=CC=CC=C1N2
p1025
sVDCC1508
p1026
VCC(O)(CS(=O)(=O)C1=CC=C(F)C=C1)C(=O)NC1=CC(=C(C=C1)C#N)C(F)(F)F
p1027
sVDCC1267
p1028
V[H][C@@]12CC[C@H](C(C)=O)[C@@]1(C)CC[C@@]1([H])[C@@]2([H])CCC2=CC(=O)CC[C@]12C
p1029
sVDCC1468
p1030
VCN1C=NC(=C1SC1=NC=NC2=C1NC=N2)[N+]([O-])=O
p1031
sVDCC0420
p1032
VNC1=[N+]([O-])C2=C(C=CC=C2)[N+]([O-])=N1
p1033
sVDCC0468
p1034
VO=C(OOC(=O)C1=CC=CC=C1)C1=CC=CC=C1
p1035
sVDCC0467
p1036
VCCCCNC1=CC=C(C=C1)C(=O)OCCN(C)C
p1037
sVDCC1465
p1038
VCCN(C)C(=O)OC1=CC=CC(=C1)[C@H](C)N(C)C
p1039
sVDCC1466
p1040
V[H][C@@]12CCC(=O)[C@@]1(C)CC[C@@]1([H])[C@@]2([H])CC(=C)C2=CC(=O)C=C[C@]12C
p1041
sVDCC1830
p1042
VNS(=O)(=O)C1=CC2=C(NCNS2(=O)=O)C=C1C(F)(F)F
p1043
sVDCC0463
p1044
V[H]\u005cC(CN1CCCC1)=C(\u005cC1=CC=C(C)C=C1)C1=CC=CC(=N1)C(\u005c[H])=C(/[H])C(O)=O
p1045
sVDCC1461
p1046
VC\u005cC(\u005cC=C\u005cC1=C(C)CCCC1(C)C)=C/C=C/C(/C)=C\u005cC(O)=O
p1047
sVDCC0460
p1048
S'CCN1CCCC1CNC(=O)C2=C(C(=CC(=C2OC)Cl)Cl)O'
p1049
sVDCC0818
p1050
V[Li+]
p1051
sVDCC0063
p1052
VOC(=O)COCCN1CCN(CC1)C(C1=CC=CC=C1)C1=CC=C(Cl)C=C1
p1053
sVDCC0062
p1054
VNC(=O)C1=NC=CN=C1
p1055
sVDCC0388
p1056
VOC1=CC=C(O)C=C1
p1057
sVDCC0060
p1058
VCC(C)NCC(O)COC1=CC=C(CC(N)=O)C=C1
p1059
sVDCC0067
p1060
V[H][C@@]12N(C)C3=CC(OC)=C(C=C3[C@@]11CCN3CC=C[C@@](CC)([C@@H](OC(C)=O)[C@@]2(O)C(=O)OC)[C@@]13[H])[C@]1(C[C@@]2([H])CN(CC(CC)=C2)CC2=C1NC1=CC=CC=C21)C(=O)OC
p1061
sVDCC0066
p1062
VOC(C1CCCCN1)C1=CC(=NC2=C1C=CC=C2C(F)(F)F)C(F)(F)F
p1063
sVDCC0065
p1064
VC[C@H]1[C@H](NC(=O)C(=N/OC(C)(C)C(=O)O)\u005cC2=CSC([NH3+])=N2)C(=O)N1S([O-])(=O)=O
p1065
sVDCC0064
p1066
VCOC1=CC=C(C=C1)[C@@H]1SC2=CC=CC=C2N(CCN(C)C)C(=O)[C@@H]1OC(C)=O
p1067
sVDCC0383
p1068
S'CC(=NC1=CC=C(C=C1)N=CC2=CC=C(C=C2)C=NC3=CC=C(C=C3)N=C(C)N(C)C)N(C)C'
p1069
sVDCC0069
p1070
VCN1CCN(CC1)C1=NC2=CC(Cl)=CC=C2NC2=CC=CC=C12
p1071
sVDCC0068
p1072
V[H][C@@]12C[C@@H](O)CN1C(=O)[C@@]([H])(NC(=O)[C@H](C[C@@H](O)[C@@H](O)NC(=O)[C@]1([H])[C@@H](O)[C@@H](C)CN1C(=O)[C@@]([H])(NC(=O)[C@@]([H])(NC2=O)[C@H](O)[C@@H](O)C1=CC=C(O)C=C1)[C@@H](C)O)NC(=O)C1=CC=C(C=C1)C1=CC=C(C=C1)C1=CC=C(OCCCCC)C=C1)[C@@H](C)O
p1073
sVDCC0565
p1074
VCC(C)OC(=O)C1=C(C)NC(N)=C(C1C1=CC=CC(=C1)[N+]([O-])=O)C(=O)OC1CN(C1)C(C1=CC=CC=C1)C1=CC=CC=C1
p1075
sVDCC0364
p1076
VCN1CC[C@@H]([C@H](O)C1)C1=C(O)C=C(O)C2=C1OC(=CC2=O)C1=CC=CC=C1Cl
p1077
sVDCC0365
p1078
VO[C@@H]1CC2=C(O[C@@H]1C1=CC(O)=C(O)C(O)=C1)C=C(O)C=C2O
p1079
sVDCC0209
p1080
VCN1C2=C(C=C(Cl)C=C2)C(=NCC1=O)C1=CC=CC=C1
p1081
sVDCC0360
p1082
VOC[C@H]1O[C@H](C[C@@H]1O)N1C=NC2=C1N=CN=C2O
p1083
sVDCC0361
p1084
VONC(=O)CCCCCCC(=O)NC1=CC=CC=C1
p1085
sVDCC0362
p1086
VO[C@@H]1CC[C@@]2(C)[C@@]([H])(CC[C@@]3(C)[C@@]2([H])[C@H](O)C[C@@]2([H])\u005cC([C@@H](OC(=O)C)C[C@]32C)=C(/CCC=C(C)C)C(O)=O)[C@@H]1C
p1087
sVDCC0363
p1088
VCO[C@@H]1C[C@@H](C)CC2=C(NCCN(C)C)C(=O)C=C(NC(=O)\u005cC(C)=C/C=C\u005c[C@@H](OC)[C@H](OC(N)=O)\u005cC(C)=C/[C@@H](C)[C@H]1O)C2=O
p1089
sVDCC0203
p1090
VNC(=O)C1=NN(C=N1)[C@@H]1O[C@H](CO)[C@@H](O)[C@H]1O
p1091
sVDCC0202
p1092
VCCN(CC1=CC=NC=C1)C(=O)C(CO)C1=CC=CC=C1
p1093
sVDCC0201
p1094
VCC1CC2=CC=CC=C2N1NC(=O)C1=CC(=C(Cl)C=C1)S(N)(=O)=O
p1095
sVDCC0200
p1096
V[H]C(C)(CC)CCCC(O)=N[C@@]([H])(CCN)C(O)=N[C@]([H])(C(O)=N[C@@]([H])(CCN)C(O)=N[C@@]1([H])CCN=C(O)C([H])(N=C(O)[C@@]([H])(CCN)N=C(O)[C@]([H])(CCN)N=C(O)[C@@]([H])(CC(C)C)N=C(O)C([H])(CC(C)C)N=C(O)[C@]([H])(CCN)N=C1O)[C@@]([H])(C)O)[C@@]([H])(C)O
p1097
sVDCC0207
p1098
V[H][C@@]12CC[C@@](OC(C)=O)(C#C)[C@@]1(C)CC[C@]1([H])[C@@]3([H])CC[C@H](OC(C)=O)C=C3CC[C@@]21[H]
p1099
sVDCC0206
p1100
VCC(C)C1=CC=CC(C(C)C)=C1O
p1101
sVDCC0205
p1102
V[Na+].CCCCCCCCCCCCOS([O-])(=O)=O
p1103
sVDCC1210
p1104
VCC(C)C[C@H](CN)CC(O)=O
p1105
sVDCC1599
p1106
VOC(=O)C1=CC=C(C=C1)N1N=C(N=C1C1=CC=CC=C1O)C1=CC=CC=C1O
p1107
sVDCC0190
p1108
V[H][C@@]12CC(=O)N1[C@@H](C(O)=O)\u005cC(O2)=C\u005cCO
p1109
sVDCC1590
p1110
V[H][C@@]12OC3=C(OC(C)=O)C=CC4=C3[C@@]11CCN(C)[C@]([H])(C4)[C@]1([H])C=C[C@@H]2OC(C)=O
p1111
sVDCC1593
p1112
VC[C@H](N)CC1=CC=CC=C1
p1113
sVDCC1594
p1114
V[H][C@@]1(CC[C@@]2([H])[C@]3([H])[C@@H](O)C[C@]4([H])C[C@H](O)CC[C@]4(C)[C@@]3([H])CC[C@]12C)[C@H](C)CCC(O)=O
p1115
sVDCC1595
p1116
VO=C(O[C@H]1CN2CCC1CC2)N1CCC2=CC=CC=C2[C@@H]1C1=CC=CC=C1
p1117
sVDCC1414
p1118
VCOC1=C(OC)C=C2C(=O)C(CC3CCN(CC4=CC=CC=C4)CC3)CC2=C1
p1119
sVDCC1699
p1120
V[H][C@@]12CC[C@@](O)(C#C)[C@@]1(CC)CC[C@]1([H])[C@@]3([H])CCC(C=C3CC[C@@]21[H])=NO
p1121
sVDCC0446
p1122
S'C1C(OC(OC1C2=CC=C(C=C2)CO)C3=CC=C(C=C3)NC(=O)CCCCCCC(=O)NO)CSC4=NC(=C(O4)C5=CC=CC=C5)C6=CC=CC=C6.O'
p1123
sVDCC0013
p1124
VOC[C@H]1O[C@@H]([C@H](O)[C@@H]1OP(O)(=O)O[C@]([H])(C)CNC(=O)CC[C@]1(C)[C@@H](CC(=O)N)[C@@]2([H])N([Co]C#N)\u005cC1=C(C)/C1=N/C(=C\u005cC3=N\u005cC(=C(C)/C4=N[C@]2(C)[C@@](C)(CC(=O)N)[C@@H]4CCC(=O)N)\u005c[C@@](C)(CC(=O)N)[C@@H]3CCC(=O)N)/C(C)(C)[C@@H]1CCC(=O)N)N1C=NC2=CC(C)=
p1125
sVDCC0151
p1126
VCC[C@H](C)[C@H](N)C1=N[C@@H](CS1)C(=O)N[C@@H](CC(C)C)C(=O)N[C@H](CCC(O)=O)C(=O)N[C@@H]([C@@H](C)CC)C(=O)N[C@H]1CCCCNC(=O)[C@H](CC(N)=O)NC(=O)[C@@H](CC(O)=O)NC(=O)[C@H](CC2=CNC=N2)NC(=O)[C@@H](CC2=CC=CC=C2)NC(=O)[C@@H](NC(=O)[C@@H](CCCN)NC1=O)[C@@H](C)CC
p1127
sVDCC0741
p1128
S'CCC(C)C(C(=O)NC(CCC(=O)O)C(=O)NC(CC1=CNC2=CC=CC=C21)C(=O)NC(CC(C)C)C(=O)NC(CCCCN)C(=O)NC(CC(=O)N)C(=O)NCC(=O)NCC(=O)N3CCCC3C(=O)NC(CO)C(=O)NC(CO)C(=O)NCC(=O)NC(C)C(=O)N4CCCC4C(=O)N5CCCC5C(=O)NC(CO)C(=O)NC(CCCCN)C(=O)NC(CCCCN)C(=O)NC(CCCCN)C(=O)NC(CCCCN)C(=O)NC(CCCCN)C(=O)NC(CCCCN)C(=O)N)NC(=O)C(CC6=CC=CC=C6)NC(=O)C(CC(C)C)NC(=O)C(CCCNC(=N)N)NC(=O)C(C(C)C)NC(=O)C(C)NC(=O)C(CCC(=O)O)NC(=O)C(CCC(=O)O)NC(=O)C(CCC(=O)O)NC(=O)C(CCSC)NC(=O)C(CCC(=O)N)NC(=O)C(CCCCN)NC(=O)C(CO)NC(=O)C(CC(C)C)NC(=O)C(CC(=O)O)NC(=O)C(CO)NC(=O)C(C(C)O)NC(=O)C(CC7=CC=CC=C7)NC(=O)C(C(C)O)NC(=O)CNC(=O)C(CCC(=O)O)NC(=O)CNC(=O)C(CC8=CN=CN8)N'
p1129
sVDCC1285
p1130
VCOC1=C(OC)C=C2C(N)=NC(=NC2=C1)N1CCN(CC1)C(=O)C1=CC=CO1
p1131
sVDCC1329
p1132
VCCCC(C)C1(CC)C(=O)NC(=S)NC1=O
p1133
sVDCC0424
p1134
S'CC1=C(SC=[N+]1CC(=O)C2=CC=CC=C2)C.[Cl-]'
p1135
sVDCC1737
p1136
VCC(C)C[C@H](NC(=O)[C@H](CCC1=CC=CC=C1)NC(=O)CN1CCOCC1)C(=O)N[C@@H](CC1=CC=CC=C1)C(=O)N[C@@H](CC(C)C)C(=O)[C@@]1(C)CO1
p1137
sVDCC1046
p1138
VCN(C)C(=O)[C@H]1CC[C@H](NC(=O)C(=O)NC2=NC=C(Cl)C=C2)[C@@H](C1)NC(=O)C1=NC2=C(CN(C)CC2)S1
p1139
sVDCC0204
p1140
VCCC(=O)N(C1CCN(CCC2=CC=CC=C2)CC1)C1=CC=CC=C1
p1141
sVDCC1412
p1142
VCC(CCC1=CC=C(O)C=C1)NCCC1=CC(O)=C(O)C=C1
p1143
sVDCC0168
p1144
VCC\u005cC(=C(/C1=CC=CC=C1)C1=CC=C(OCCN(C)C)C=C1)C1=CC=CC=C1
p1145
sVDCC1284
p1146
VCCOC(=O)C1(CCN(C)CC1)C1=CC=CC=C1
p1147
sVDCC1644
p1148
VOCC(CO)N[C@H]1C[C@](O)(CO)[C@@H](O)[C@H](O)[C@H]1O
p1149
sVDCC0150
p1150
VFC(F)(F)[C@]1(OC(=O)NC2=C1C=C(Cl)C=C2)C#CC1CC1
p1151
sVDCC1328
p1152
VCC(CCC1=CC=CC=C1)NCC(O)C1=CC(C(N)=O)=C(O)C=C1
p1153
sVDCC1280
p1154
VNC1=NC(=O)C2=C(N1)N(C=N2)[C@H]1C[C@H](O)[C@@H](CO)C1=C
p1155
sVDCC1282
p1156
VFC1=CC=C(C=C1)C(=O)CCCN1CCC(=CC1)N1C(=O)NC2=CC=CC=C12
p1157
sVDCC1098
p1158
S'CCCC1CC(=O)N(C1)C(CC)C(=O)N'
p1159
sVDCC1224
p1160
VClCCNC(=O)N(CCCl)N=O
p1161
sVDCC1321
p1162
V[H][C@@]12N(C)C3=C(C=C(C(OC)=C3)[C@]3(C[C@@H]4CN(C[C@](O)(CC)C4)CCC4=C3NC3=CC=CC=C43)C(=O)OC)[C@@]11CCN3CC=C[C@@](CC)([C@@H](OC(C)=O)[C@]2(O)C(=O)OC)[C@@]13[H]
p1163
sVDCC0969
p1164
S'CC1(CC(=O)N(C(=O)C1)CCCCN2CCN(CC2)C3=NC=CC=N3)C.Cl'
p1165
sVDCC1288
p1166
VCOC(=O)CCC1=C2NC(\u005cC=C3/N=C(/C=C4\u005cN\u005cC(=C/C5=N/C(=C\u005c2)/C(CCC(O)=O)=C5C)C(C=C)=C4C)C2=CC=C([C@@H](C(=O)OC)[C@@]32C)C(=O)OC)=C1C
p1167
sVDCC0393
p1168
S'CC12CCC3(C1)C(CC(C4C3(CCCC4(C)CO)C)OC(=O)C5=CC=CC=C5)CC2=O'
p1169
sVDCC0242
p1170
VNNC(=O)C1=CC=NC=C1
p1171
sVDCC0241
p1172
VCC(C)(C(O)=O)C1=CC=C(C=C1)C(O)CCCN1CCC(CC1)C(O)(C1=CC=CC=C1)C1=CC=CC=C1
p1173
sVDCC0240
p1174
VCC(=O)OC1=CC=CC=C1C(O)=O
p1175
sVDCC0429
p1176
VCN(C)C\u005cC=C\u005cC(=O)NC1=C(O[C@H]2CCOC2)C=C2N=CN=C(NC3=CC(Cl)=C(F)C=C3)C2=C1
p1177
sVDCC1135
p1178
VCC(C)C[C@H](NC(=O)[C@@H](CCCNC(N)=O)NC(=O)[C@H](CC1=CC=C(O)C=C1)NC(=O)[C@H](CO)NC(=O)[C@@H](CC1=CN=CC=C1)NC(=O)[C@@H](CC1=CC=C(Cl)C=C1)NC(=O)[C@@H](CC1=CC2=CC=CC=C2C=C1)NC(C)=O)C(=O)N[C@@H](CCCNC(N)=N)C(=O)N1CCC[C@H]1C(=O)N[C@H](C)C(N)=O
p1179
sVDCC0165
p1180
VCOC1=C(OC)C=C(CCN(C)CCCC(C#N)(C(C)C)C2=CC(OC)=C(OC)C=C2)C=C1
p1181
sVDCC0520
p1182
VC[N+](C)(C)CC([O-])=O
p1183
sVDCC0162
p1184
V[H]C(=O)N1C(CNC2=CC=C(C=C2)C(=O)N[C@@H](CCC(O)=O)C(O)=O)CNC2=C1C(=O)NC(N)=N2
p1185
sVDCC0163
p1186
VC[C@H]1[C@H]2CC3=CC=C(O)C=C3[C@]1(C)CCN2CC=C(C)C
p1187
sVDCC1819
p1188
VOC(=O)C1(CCN(CCC(C#N)(C2=CC=CC=C2)C2=CC=CC=C2)CC1)C1=CC=CC=C1
p1189
sVDCC1422
p1190
VCC(C)(C)NCC(O)C1=CC(O)=CC(O)=C1
p1191
sVDCC1423
p1192
VCC1=NC2=C(CCN(C(=O)C3=CC=C(NC(=O)C4=CC=CC=C4C4=CC=CC=C4)C=C3)C3=CC=CC=C23)N1
p1193
sVDCC0038
p1194
VCCCC1=NC(=C(N1CC1=CC=C(C=C1)C1=C(C=CC=C1)C1=NN=NN1)C(O)=O)C(C)(C)O
p1195
sVDCC0039
p1196
VCN1C2=C(NC=N2)C(=O)N(C)C1=O
p1197
sVDCC1427
p1198
VCN1N=C(C(=O)N[C@@H]2C[C@@H]3CCC[C@H](C2)N3C)C2=C1C=CC=C2
p1199
sVDCC1811
p1200
VCC(C)NCC(O)COC1=CC=C(CCOCC2CC2)C=C1
p1201
sVDCC1810
p1202
VCN1CCC(CC1)=C1C2=CC=CC=C2CCC2=C1N=CC=C2
p1203
sVDCC1813
p1204
VOC[C@@H](NC(=O)C(Cl)Cl)[C@H](O)C1=CC=C(C=C1)[N+]([O-])=O
p1205
sVDCC0037
p1206
V[H][C@@]12CO[C@@]3(COS(N)(=O)=O)OC(C)(C)O[C@@]3([H])[C@]1([H])OC(C)(C)O2
p1207
sVDCC1815
p1208
V[H]\u005cC1=C(\u005c[H])/C(/C)=C([H])/[C@@]([H])(O)CC(=O)CC2=NC(=CO2)C(=O)N2CC[C@]([H])([C@]2([H])C(=O)O[C@]([H])(C(C)C)[C@]([H])(C)\u005cC([H])=C([H])\u005cC(O)=NC1)S(=O)(=O)CCN(CC)CC
p1209
sVDCC1814
p1210
VNS(=O)(=O)C1=C(Cl)C=C2NC=NS(=O)(=O)C2=C1
p1211
sVDCC0032
p1212
VO=C1NC(=O)C(N1)(C1=CC=CC=C1)C1=CC=CC=C1
p1213
sVDCC1816
p1214
V[H][C@]12C[C@@H](OC(=O)C3=CC(OC)=C(OC)C(OC)=C3)[C@H](OC)[C@@H](C(=O)OC)[C@@]1([H])C[C@@]1([H])N(CCC3=C1NC1=CC=CC=C31)C2
p1215
sVDCC1842
p1216
VCN(CC#C)CC1=CC=CC=C1
p1217
sVDCC0332
p1218
VCS(=O)(=O)CCNCC1=CC=C(O1)C1=CC2=C(C=C1)N=CN=C2NC1=CC(Cl)=C(OCC2=CC(F)=CC=C2)C=C1
p1219
sVDCC1846
p1220
VCN1C(CSCC(F)(F)F)NC2=CC(Cl)=C(C=C2S1(=O)=O)S(N)(=O)=O
p1221
sVDCC0100
p1222
VCNCCC(OC1=CC=C(C=C1)C(F)(F)F)C1=CC=CC=C1
p1223
sVDCC0101
p1224
VCNC1=NC2=C(C=C(Cl)C=C2)C(C2=CC=CC=C2)=N(=O)C1
p1225
sVDCC0102
p1226
VNCC[C@H](O)C(=O)N[C@@H]1C[C@H](N)[C@@H](O[C@H]2O[C@H](CN)[C@@H](O)[C@H](O)[C@H]2O)[C@H](O)[C@H]1O[C@H]1O[C@H](CO)[C@@H](O)[C@H](N)[C@H]1O
p1227
sVDCC0103
p1228
VNC1=CC=CC2=C1CN(C1CCC(=O)NC1=O)C2=O
p1229
sVDCC0104
p1230
VOC1=CC=C(C=C1)C1=C(C(=O)C2=CC=C(OCCN3CCCCC3)C=C2)C2=C(S1)C=C(O)C=C2
p1231
sVDCC0105
p1232
VCC1=CC=C(C=C1)C1=CC(=NN1C1=CC=C(C=C1)S(N)(=O)=O)C(F)(F)F
p1233
sVDCC1386
p1234
VCCC1=C2NC3=C(CCOC3(CC)CC(O)=O)C2=CC=C1
p1235
sVDCC0107
p1236
VCCN1C=C(C(O)=O)C(=O)C2=CC(F)=C(C=C12)N1CCN(C)CC1
p1237
sVDCC0108
p1238
VCN(C)C1=NC(=NC(=N1)N(C)C)N(C)C
p1239
sVDCC0109
p1240
VCCC(=O)OC(OP(=O)(CCCCC1=CC=CC=C1)CC(=O)N1C[C@@H](C[C@H]1C(O)=O)C1CCCCC1)C(C)C
p1241
sVDCC0169
p1242
VCCCCC1=NC(Cl)=C(CO)N1CC1=CC=C(C=C1)C1=CC=CC=C1C1=NNN=N1
p1243
sVDCC1434
p1244
VCN1C2=C(C3=CC=CC=C13)C(=O)C(CN1C=CN=C1C)CC2
p1245
sVDCC0225
p1246
VNC1=NC(=O)N(C=C1F)[C@@H]1CS[C@H](CO)O1
p1247
sVDCC0634
p1248
S'CC(CN1CCOCC1)NC(=O)NC2=CC=CC=C2F'
p1249
sVDCC1399
p1250
VOC(=O)C1=CC(=CC=C1O)\u005cN=N\u005cC1=CC=C(C=C1)S(=O)(=O)NC1=NC=CC=C1
p1251
sVDCC1256
p1252
VNC1=CC=C(C=C1)S(=O)(=O)NC1=NC=CC=N1
p1253
sVDCC0630
p1254
S'CNC(=O)CS(=O)(=O)CC1=NOC(=N1)C2=CSC=C2'
p1255
sVDCC1393
p1256
V[H][C@@]12C[C@@H](C)[C@](O)(C(=O)CCl)[C@@]1(C)C[C@H](O)[C@@]1(Cl)[C@@]2([H])CCC2=CC(=O)C=C[C@]12C
p1257
sVDCC1259
p1258
VNC[C@H](O)C1=CC(O)=C(O)C=C1
p1259
sVDCC1258
p1260
VCN(C)CCOC(C)(C1=CC=CC=C1)C1=CC=CC=N1
p1261
sVDCC1396
p1262
VCCCCS(=O)(=O)N[C@@H](CC1=CC=C(OCCCCC2CCNCC2)C=C1)C(O)=O
p1263
sVDCC1395
p1264
VCCCCC[C@H](O)C=C[C@H]1[C@H](O)CC(=O)[C@@H]1CCCCCCC(O)=O
p1265
sVDCC1495
p1266
VCC1=C(C=NO1)C(=O)NC1=CC=C(C=C1)C(F)(F)F
p1267
sVDCC1494
p1268
VCC(C)N1C(\u005cC=C\u005c[C@@H](O)C[C@@H](O)CC(O)=O)=C(C2=CC=CC=C12)C1=CC=C(F)C=C1
p1269
sVDCC0083
p1270
V[H][C@]12SC(C)(C)[C@@H](N1C(=O)[C@H]2NC(=O)[C@H](N)C1=CC=CC=C1)C(O)=O
p1271
sVDCC0082
p1272
VCN(CCOC1=CC=C(CC2SC(=O)NC2=O)C=C1)C1=CC=CC=N1
p1273
sVDCC1491
p1274
VCC[C@H]1[C@@H](CC2=CN=CN2C)COC1=O
p1275
sVDCC1559
p1276
VCOC1=CC=C(C[C@@H](C)NC[C@H](O)C2=CC(NC=O)=C(O)C=C2)C=C1
p1277
sVDCC1493
p1278
VCOC1=CC(NC(C)CCCN)=C2N=CC=CC2=C1
p1279
sVDCC0086
p1280
VCOC1=CC=CC=C1OCC(O)COC(N)=O
p1281
sVDCC0320
p1282
VCNC1(CCCCC1=O)C1=CC=CC=C1Cl
p1283
sVDCC0321
p1284
V[H][C@@]12C[C@H]3OC(CCC)O[C@@]3(C(=O)CO)[C@@]1(C)C[C@H](O)[C@@]1([H])[C@@]2([H])CCC2=CC(=O)C=C[C@]12C
p1285
sVDCC0322
p1286
VNCCN.CN1C2=C(NC=N2)C(=O)N(C)C1=O.CN1C2=C(NC=N2)C(=O)N(C)C1=O
p1287
sVDCC0323
p1288
V[H][C@]12[C@H](OC(=O)C3=CC=CC=C3)[C@]3(O)C[C@H](OC(=O)[C@H](O)[C@@H](NC(=O)C4=CC=CC=C4)C4=CC=CC=C4)C(C)=C([C@@H](OC(C)=O)C(=O)[C@]1(C)[C@@H](O)C[C@H]1OC[C@@]21OC(C)=O)C3(C)C
p1289
sVDCC0324
p1290
V[H][C@@](O)(CN1C[C@@]2([H])CCCC[C@@]2([H])C[C@@]1([H])C(O)=NC(C)(C)C)[C@]([H])(CC1=CC=CC=C1)N=C(O)[C@]([H])(CC(O)=N)NC(=O)C1=NC2=CC=CC=C2C=C1
p1291
sVDCC1551
p1292
VC[C@@H](CC1=CC=CC=C1)NC(=O)[C@@H](N)CCCCN
p1293
sVDCC0326
p1294
VN[C@@H](CC1=CC(O)=C(O)C=C1)C(O)=O
p1295
sVDCC0327
p1296
VFCOC(C(F)(F)F)C(F)(F)F
p1297
sVDCC0223
p1298
V[H][C@@]1(C[C@H](C)[C@]2([H])CC(=O)[C@H](C)\u005cC=C(C)\u005c[C@@H](O)[C@@H](OC)C(=O)[C@H](C)C[C@H](C)\u005cC=C\u005cC=C\u005cC=C(C)\u005c[C@H](C[C@]3([H])CC[C@@H](C)[C@@](O)(O3)C(=O)C(=O)N3CCCC[C@@]3([H])C(=O)O2)OC)CC[C@@H](O)[C@@H](C1)OC
p1299
sVDCC0270
p1300
VCCCCC1=NC2(CCCC2)C(=O)N1CC1=CC=C(C=C1)C1=CC=CC=C1C1=NNN=N1
p1301
sVDCC0378
p1302
VCCCCCCCCC1=CC=C(CCC(N)(CO)CO)C=C1
p1303
sVDCC0138
p1304
VOC(=O)CC1=CC=CC=C1NC1=C(Cl)C=CC=C1Cl
p1305
sVDCC0639
p1306
S'C1=CC=C2C(=C1)NC3=NC(=NC(N23)C4=CC=C(C=C4)SC(F)(F)F)N'
p1307
sVDCC1534
p1308
VCO[C@H]1\u005cC=C\u005cO[C@@]2(C)OC3=C(C2=O)C2=C(C(O)=C3C)C(O)=C(NC(=O)\u005cC(C)=C/C=C/[C@H](C)[C@H](O)[C@@H](C)[C@@H](O)[C@@H](C)[C@H](OC(C)=O)[C@@H]1C)C(\u005cC=N\u005cN1CCN(CC1)C1CCCC1)=C2O
p1309
sVDCC0254
p1310
VCN(C)CCOC(=O)C(C1=CC=CC=C1)C1(O)CCCC1
p1311
sVDCC0255
p1312
VCOC1=CC=C(CC(C)NCC(O)C2=CC(NC=O)=C(O)C=C2)C=C1
p1313
sVDCC0256
p1314
VNC1=NC(=O)N(C=C1)[C@@H]1O[C@H](CO)[C@@H](O)[C@@H]1O
p1315
sVDCC0257
p1316
VNC[C@@H]1O[C@H](O[C@@H]2[C@@H](CO)O[C@@H](O[C@@H]3[C@@H](O)[C@H](N)C[C@H](N)[C@H]3O[C@H]3O[C@H](CN)[C@@H](O)[C@H](O)[C@H]3N)[C@@H]2O)[C@H](N)[C@@H](O)[C@@H]1O
p1317
sVDCC0250
p1318
VO[C@@H](CC[C@@H]1[C@H](N(C1=O)C1=CC=C(F)C=C1)C1=CC=C(O)C=C1)C1=CC=C(F)C=C1
p1319
sVDCC0251
p1320
VOCCN(CCO)C1=NC2=C(N=C(N=C2N2CCCCC2)N(CCO)CCO)C(=N1)N1CCCCC1
p1321
sVDCC0252
p1322
V[H][C@@]12CC[C@@](O)(C#C)[C@@]1(C)CC[C@]1([H])C3=C(CC[C@@]21[H])C=C(O)C=C3
p1323
sVDCC0253
p1324
VCCN1C=C(C(O)=O)C(=O)C2=CC(F)=C(N3CCNC(C)C3)C(F)=C12
p1325
sVDCC1679
p1326
VCCN1CCCC1CNC(=O)C1=CC(=C(N)C=C1OC)S(=O)(=O)CC
p1327
sVDCC1678
p1328
VOCC(C)(CO)C(=O)O[C@@H]1CC[C@@H](C[C@@H](C)[C@]2([H])CC(=O)[C@H](C)\u005cC=C(C)\u005c[C@@H](O)[C@@H](OC)C(=O)[C@H](C)C[C@H](C)\u005cC=C\u005cC=C\u005cC=C(C)\u005c[C@@H](OC)C[C@]3([H])CC[C@@H](C)[C@@](O)(O3)C(=O)C(=O)N3CCCC[C@H]3C(=O)O2)C[C@H]1OC
p1329
sVDCC0551
p1330
S'CCC(C)C1C(=O)NC(C(=O)NCC(=O)NC(C(=O)NC(C(=O)NCC(=O)NC(C(=O)NC(C(=O)NC(C(=O)NC(C(=O)NC(CSSCC2C(=O)NCC(=O)NC(C(=O)NCC(=O)NC(C(=O)NC(C(=O)NC(CSSCC(C(=O)NC(C(=O)NCC(=O)NC(C(=O)NC(C(=O)NC(C(=O)N2)C(C)C)CC(=O)N)CO)CCC(=O)O)NC(=O)C(CC(C)C)NC(=O)C3CSSCC(C(=O)NC(C(=O)NC(C(=O)NC(C(=O)NCC(=O)NC(C(=O)NC(C(=O)NC(C(=O)N3)CC(C)C)CC(=O)N)CCC(=O)N)CO)CCC(=O)O)C(C)O)NC(=O)C(CC(=O)O)NC(=O)C(C(C)O)NC(=O)C(CC4=CC=C(C=C4)O)NC(=O)C(C(C)C)NC(=O)C(C(C)C)N)C(=O)N1)CCCCN)CC(=O)N)CCC(=O)N)C(=O)NC(C(C)C)C(=O)NC(C(C)O)C(=O)NCC(=O)NC(CCC(=O)O)C(=O)NCC(=O)NC(C(C)O)C(=O)N5CCCC5C(=O)NC(CCCCN)C(=O)N6CCCC6C(=O)NC(CCC(=O)N)C(=O)NC(CO)C(=O)NC(CC7=CN=CN7)C(=O)NC(CC(=O)N)C(=O)NC(CC(=O)O)C(=O)NCC(=O)NC(CC(=O)O)C(=O)NC(CC8=CC=CC=C8)C(=O)NC(CCC(=O)O)C(=O)NC(CCC(=O)O)C(=O)NC(C(C)CC)C(=O)N9CCCC9C(=O)NC(CCC(=O)O)C(=O)NC(CCC(=O)O)C(=O)NC(CC1=CC=C(C=C1)O)C(=O)NC(CC(C)C)C(=O)NC(CCC(=O)N)C(=O)O)CCC(=O)N)CC(=O)N)CCCCN)CCC(=O)O)CC(=O)O)CO)CC(C)C'
p1331
sVDCC0258
p1332
VNCC1(CC(O)=O)CCCCC1
p1333
sVDCC0259
p1334
VCOC1=CC=CC2=C1C(=O)C1=C(O)C3=C(C[C@](O)(C[C@@H]3O[C@H]3C[C@H](N)[C@H](O)[C@H](C)O3)C(=O)CO)C(O)=C1C2=O
p1335
sVDCC0410
p1336
VCN1C=NC=C1[C@@](N)(C1=CC=C(Cl)C=C1)C1=CC2=C(C=C1)N(C)C(=O)C=C2C1=CC(Cl)=CC=C1
p1337
sVDCC0886
p1338
VCC(C)O
p1339
sVDCC0132
p1340
VNC(=O)N1C2=CC=CC=C2C=CC2=CC=CC=C12
p1341
sVDCC0411
p1342
S'C1=C(SC=C1Br)COC2=NC(=NC3=C2NC=N3)N'
p1343
sVDCC1240
p1344
V[H][C@]12[C@@H](C)C(S[C@]3([H])CN[C@@]([H])(C3)C(=O)NC3=CC=CC(=C3)C(O)=O)=C(N1C(=O)[C@]2([H])[C@@H](C)O)C(O)=O
p1345
sVDCC0314
p1346
VCCN[C@H]1CN(CCCOC)S(=O)(=O)C2=C1C=C(S2)S(N)(=O)=O
p1347
sVDCC0349
p1348
VN[C@@H](CSCCCC\u005cC=C(/NC(=O)[C@H]1CC1(C)C)C(=O)O)C(=O)O
p1349
sVDCC0317
p1350
VCC(C)(C)NCC(O)COC1=CC=CC2=C1C[C@H](O)[C@H](O)C2
p1351
sVDCC1172
p1352
VN[C@@H](CCCNC(N)=N)C(O)=O
p1353
sVDCC0346
p1354
V[H][C@@]12OC3=C(OC)C=CC4=C3[C@@]11CCN(C)[C@]([H])(C4)[C@]1([H])CC[C@@H]2O
p1355
sVDCC0311
p1356
VClCCNP1(=O)OCCCN1CCCl
p1357
sVDCC0416
p1358
VOC(=O)C1=NC(=O)NC(=O)N1
p1359
sVDCC0310
p1360
VCN(C)CCOC(C1=CC=CC=C1)C1=CC=CC=C1C
p1361
sVDCC1374
p1362
VCC(C)C1CC[C@@H](CC1)C(=O)N[C@H](CC1=CC=CC=C1)C(O)=O
p1363
sVDCC1376
p1364
VCC1=C(CCN2CCC(CC2)C2=NOC3=C2C=CC(F)=C3)C(=O)N2CCCCC2=N1
p1365
sVDCC1377
p1366
VCOC1=CC2=C(NC(=N2)[S@@](=O)CC2=NC=C(C)C(OC)=C2C)C=C1
p1367
sVDCC1370
p1368
VCCN(CC)CCOC(=O)C1=CC=C(N)C=C1
p1369
sVDCC0313
p1370
VCCC[C@@H]1C[C@H](N(C)C1)C(=O)NC(C(C)Cl)[C@H]1O[C@H](SC)[C@H](O)[C@@H](O)[C@H]1O
p1371
sVDCC1372
p1372
V[O-][N+](=O)OCC(CO[N+]([O-])=O)O[N+]([O-])=O
p1373
sVDCC0342
p1374
VCOC1=CC2=C(C(OC)=C1OC)C1=CC=C(OC)C(=O)C=C1C(CC2)NC(C)=O
p1375
sVDCC0312
p1376
V[H][C@@]12OC3=C(O)C=CC4=C3[C@@]11CCN(CC=C)[C@]([H])(C4)[C@]1(O)CCC2=O
p1377
sVDCC1234
p1378
VC[C@@H](O)[C@H](NC(=O)[C@@H](C)[C@H](O)[C@@H](C)NC(=O)[C@@H](NC(=O)C1=C(C)C(N)=NC(=N1)[C@H](CC(N)=O)NC[C@H](N)C(N)=O)[C@@H](OC1OC(CO)C(O)C(O)C1OC1OC(CO)C(O)C(OC(N)=O)C1O)C1=CN=CN1)C(=O)NCCC1=NC(=CS1)C1=NC(=CS1)C(=O)NCCC[S+](C)C
p1379
sVDCC0371
p1380
VCN1C(=O)C=C(N2CCC[C@@H](N)C2)N(CC2=C(C=CC=C2)C#N)C1=O
p1381
sVDCC0341
p1382
V[Na+].OC([O-])=O
p1383
sVDCC0179
p1384
VNC1=NC(=O)N(C=C1)[C@@H]1CS[C@H](CO)O1
p1385
sVDCC0178
p1386
VCC(C)NC1=C(N=CC=C1)N1CCN(CC1)C(=O)C1=CC2=C(N1)C=CC(NS(C)(=O)=O)=C2
p1387
sVDCC1552
p1388
V[H][C@@]12CCO[C@]1([H])OC[C@@H]2OC(=O)N[C@@H](CC1=CC=CC=C1)[C@H](O)CN(CC(C)C)S(=O)(=O)C1=CC=C(N)C=C1
p1389
sVDCC0058
p1390
V[Br-].[H][C@]12CC[C@]([H])(C[C@@H](C1)OC(=O)C(CO)C1=CC=CC=C1)[N@+]2(C)C(C)C
p1391
sVDCC0171
p1392
VCC(=O)CC(C1=CC=CC=C1)C1=C(O)C2=C(OC1=O)C=CC=C2
p1393
sVDCC0170
p1394
V[H][C@]12C[C@@H](O[C@@H]3O[C@H](C)[C@@H](O)[C@H](N)[C@@H]3O)\u005cC=C\u005cC=C\u005cC=C\u005cC=C\u005cC=C\u005cC=C\u005cC=C\u005c[C@H](C)[C@@H](O)[C@@H](C)[C@H](C)OC(=O)C[C@H](O)C[C@H](O)CC[C@@H](O)[C@H](O)C[C@H](O)C[C@](O)(C[C@H](O)[C@H]1C(O)=O)O2
p1395
sVDCC0173
p1396
VCOC1=C(C\u005cC=C(/C)CCC(=O)OCCN2CCOCC2)C(O)=C2C(=O)OCC2=C1C
p1397
sVDCC0172
p1398
VNC[C@H]1O[C@H](O[C@@H]2[C@@H](N)C[C@@H](N)[C@H](O[C@H]3O[C@H](CO)[C@@H](O)[C@H](N)[C@H]3O)[C@H]2O)[C@H](N)C[C@@H]1O
p1399
sVDCC0175
p1400
V[H][C@@]12CCCN1C(=O)[C@H](CC1=CC=CC=C1)N1C(=O)[C@](C)(NC(=O)[C@H]3CN(C)[C@]4([H])CC5=CNC6=CC=CC(=C56)C4=C3)O[C@@]21O
p1401
sVDCC0174
p1402
VNS(=O)(=O)C1=C(Cl)C=C(NCC2=CC=CO2)C(=C1)C(O)=O
p1403
sVDCC0177
p1404
V[H][C@@]12OC3=C(O)C=CC4=C3[C@@]11CCN(CC3CC3)[C@]([H])(C4)[C@]1(O)CCC2=O
p1405
sVDCC0176
p1406
V[O-][N+](=O)C1=CC=C(O1)\u005cC=N\u005cN1CC(=O)NC1=O
p1407
sVDCC1105
p1408
S'CC(C)C1C(=O)NC(CSSCC(C(=O)NC(C(=O)NC(C(=O)NC(C(=O)N1)CCCCN)CC2=CNC3=CC=CC=C32)CC4=CC=C(C=C4)O)NC(=O)C(CC5=CC6=CC=CC=C6C=C5)N)C(=O)NC(C(C)O)C(=O)N.CC(=O)O'
p1409
sVDCC0233
p1410
VCCOC1=C(C=CC(CC(=O)N[C@@H](CC(C)C)C2=CC=CC=C2N2CCCCC2)=C1)C(O)=O
p1411
sVDCC0249
p1412
VC[C@](N)(CC1=CC=C(O)C(O)=C1)C(O)=O
p1413
sVDCC0276
p1414
VCC(C)OC(=O)C(C)(C)OC1=CC=C(C=C1)C(=O)C1=CC=C(Cl)C=C1
p1415
s.