(dp1
VDC002555
p2
(lp3
VDCC0622
p4
aVDCC0245
p5
aVDCC0323
p6
asVDC000048
p7
(lp8
VDCC0086
p9
aVDCC0240
p10
asVDC007178
p11
(lp12
VDCC0608
p13
aVDCC0343
p14
aVDCC0252
p15
asVDC007179
p16
(lp17
VDCC0070
p18
aVDCC0252
p19
asVDC007176
p20
(lp21
VDCC0116
p22
aVDCC0232
p23
asVDC004679
p24
(lp25
VDCC0329
p26
aVDCC0245
p27
asVDC007174
p28
(lp29
VDCC1301
p30
aVDCC0252
p31
asVDC007175
p32
(lp33
VDCC0106
p34
aVDCC0314
p35
asVDC007172
p36
(lp37
VDCC1188
p38
aVDCC1258
p39
asVDC002413
p40
(lp41
VDCC1024
p42
aVDCC0122
p43
asVDC007170
p44
(lp45
VDCC0893
p46
aVDCC0083
p47
asVDC002411
p48
(lp49
VDCC0488
p50
aVDCC0325
p51
aVDCC0103
p52
asVDC006957
p53
(lp54
VDCC0002
p55
aVDCC0897
p56
aVDCC0203
p57
asVDC006178
p58
(lp59
VDCC1466
p60
aVDCC0168
p61
asVDC000299
p62
(lp63
VDCC0285
p64
aVDCC0205
p65
asVDC006815
p66
(lp67
VDCC1142
p68
aVDCC0296
p69
asVDC005005
p70
(lp71
VDCC1443
p72
aVDCC0361
p73
aVDCC1138
p74
asVDC004318
p75
(lp76
VDCC1247
p77
aVDCC0044
p78
asVDC000360
p79
(lp80
VDCC0120
p81
aVDCC0330
p82
asVDC000139
p83
(lp84
VDCC0001
p85
aVDCC0429
p86
asVDC001351
p87
(lp88
VDCC1541
p89
aVDCC1218
p90
aVDCC1376
p91
asVDC000017
p92
(lp93
VDCC0166
p94
aVDCC0185
p95
asVDC001606
p96
(lp97
VDCC1017
p98
aVDCC0256
p99
asVDC001357
p100
(lp101
VDCC1351
p102
aVDCC0325
p103
aVDCC1262
p104
asVDC000730
p105
(lp106
VDCC1479
p107
aVDCC0552
p108
asVDC001608
p109
(lp110
VDCC0027
p111
aVDCC0057
p112
asVDC002867
p113
(lp114
VDCC0280
p115
aVDCC0024
p116
asVDC000445
p117
(lp118
VDCC0037
p119
aVDCC0048
p120
asVDC003152
p121
(lp122
VDCC0146
p123
aVDCC0023
p124
aVDCC0339
p125
aVDCC0464
p126
asVDC000158
p127
(lp128
VDCC0057
p129
aVDCC0082
p130
asVDC000227
p131
(lp132
VDCC0008
p133
aVDCC0096
p134
asVDC000226
p135
(lp136
VDCC0093
p137
aVDCC0266
p138
aVDCC0305
p139
asVDC000225
p140
(lp141
VDCC0008
p142
aVDCC0094
p143
asVDC000224
p144
(lp145
VDCC0168
p146
aVDCC0422
p147
asVDC000223
p148
(lp149
VDCC0214
p150
aVDCC0087
p151
asVDC000222
p152
(lp153
VDCC0008
p154
aVDCC0329
p155
aVDCC0245
p156
asVDC000221
p157
(lp158
VDCC0161
p159
aVDCC0030
p160
aVDCC0179
p161
asVDC000220
p162
(lp163
VDCC0264
p164
aVDCC0332
p165
asVDC000186
p166
(lp167
VDCC0149
p168
aVDCC0159
p169
asVDC000187
p170
(lp171
VDCC0295
p172
aVDCC0148
p173
asVDC000184
p174
(lp175
VDCC0016
p176
aVDCC0117
p177
asVDC000185
p178
(lp179
VDCC0253
p180
aVDCC0174
p181
asVDC000182
p182
(lp183
VDCC0131
p184
aVDCC0061
p185
asVDC000183
p186
(lp187
VDCC0214
p188
aVDCC0196
p189
asVDC000229
p190
(lp191
VDCC0259
p192
aVDCC0008
p193
asVDC000228
p194
(lp195
VDCC0245
p196
aVDCC0082
p197
asVDC000859
p198
(lp199
VDCC0131
p200
aVDCC0308
p201
aVDCC0273
p202
aVDCC0256
p203
aVDCC1357
p204
aVDCC0186
p205
asVDC001998
p206
(lp207
VDCC1166
p208
aVDCC1411
p209
asVDC000912
p210
(lp211
VDCC0329
p212
aVDCC0652
p213
asVDC001584
p214
(lp215
VDCC0264
p216
aVDCC0348
p217
asVDC000919
p218
(lp219
VDCC1599
p220
aVDCC0170
p221
asVDC000440
p222
(lp223
VDCC0440
p224
aVDCC0173
p225
asVDC000854
p226
(lp227
VDCC1443
p228
aVDCC0048
p229
aVDCC0186
p230
asVDC001222
p231
(lp232
VDCC0166
p233
aVDCC0044
p234
aVDCC0204
p235
asVDC005220
p236
(lp237
VDCC1755
p238
aVDCC1046
p239
asVDC003074
p240
(lp241
VDCC1381
p242
aVDCC0174
p243
asVDC003692
p244
(lp245
VDCC0448
p246
aVDCC0294
p247
aVDCC0152
p248
asVDC001551
p249
(lp250
VDCC0259
p251
aVDCC0123
p252
aVDCC0329
p253
asVDC000110
p254
(lp255
VDCC0051
p256
aVDCC0049
p257
aVDCC0240
p258
asVDC007171
p259
(lp260
VDCC1241
p261
aVDCC0252
p262
asVDC002608
p263
(lp264
VDCC0256
p265
aVDCC1357
p266
aVDCC1121
p267
aVDCC1162
p268
aVDCC0630
p269
asVDC004890
p270
(lp271
VDCC1335
p272
aVDCC0022
p273
asVDC000271
p274
(lp275
VDCC0133
p276
aVDCC0309
p277
asVDC005954
p278
(lp279
VDCC0131
p280
aVDCC0218
p281
aVDCC0016
p282
asVDC000024
p283
(lp284
VDCC0256
p285
aVDCC0117
p286
asVDC004700
p287
(lp288
VDCC0850
p289
aVDCC0705
p290
asVDC003382
p291
(lp292
VDCC1247
p293
aVDCC0112
p294
asVDC003385
p295
(lp296
VDCC1112
p297
aVDCC0194
p298
asVDC001100
p299
(lp300
VDCC0218
p301
aVDCC1477
p302
aVDCC0156
p303
asVDC000454
p304
(lp305
VDCC0115
p306
aVDCC0418
p307
asVDC000455
p308
(lp309
VDCC0410
p310
aVDCC0080
p311
asVDC000359
p312
(lp313
VDCC0191
p314
aVDCC0016
p315
asVDC000358
p316
(lp317
VDCC0470
p318
aVDCC0076
p319
asVDC000450
p320
(lp321
VDCC0436
p322
aVDCC0050
p323
asVDC000451
p324
(lp325
VDCC0409
p326
aVDCC0128
p327
asVDC000452
p328
(lp329
VDCC0129
p330
aVDCC0132
p331
asVDC000453
p332
(lp333
VDCC0280
p334
aVDCC0362
p335
asVDC000353
p336
(lp337
VDCC0296
p338
aVDCC0466
p339
asVDC000352
p340
(lp341
VDCC0274
p342
aVDCC0326
p343
asVDC000351
p344
(lp345
VDCC0095
p346
aVDCC0033
p347
asVDC000350
p348
(lp349
VDCC0095
p350
aVDCC0358
p351
asVDC000458
p352
(lp353
VDCC0073
p354
aVDCC0290
p355
asVDC000356
p356
(lp357
VDCC0045
p358
aVDCC0150
p359
asVDC000355
p360
(lp361
VDCC0321
p362
aVDCC0255
p363
asVDC000354
p364
(lp365
VDCC0210
p366
aVDCC0214
p367
aVDCC0116
p368
asVDC000203
p369
(lp370
VDCC0128
p371
aVDCC0360
p372
asVDC004397
p373
(lp374
VDCC0944
p375
aVDCC0282
p376
asVDC003200
p377
(lp378
VDCC1560
p379
aVDCC0216
p380
asVDC004250
p381
(lp382
VDCC1454
p383
aVDCC0156
p384
aVDCC0009
p385
aVDCC0173
p386
asVDC004523
p387
(lp388
VDCC1182
p389
aVDCC1172
p390
asVDC004527
p391
(lp392
VDCC0136
p393
aVDCC0044
p394
aVDCC0040
p395
asVDC002275
p396
(lp397
VDCC1010
p398
aVDCC0187
p399
aVDCC0235
p400
aVDCC0061
p401
asVDC004156
p402
(lp403
VDCC0917
p404
aVDCC0218
p405
asVDC000867
p406
(lp407
VDCC0596
p408
aVDCC0158
p409
asVDC004097
p410
(lp411
VDCC0002
p412
aVDCC1658
p413
aVDCC0203
p414
asVDC006126
p415
(lp416
VDCC0079
p417
aVDCC0336
p418
asVDC007252
p419
(lp420
VDCC0836
p421
aVDCC1823
p422
asVDC002150
p423
(lp424
VDCC0027
p425
aVDCC0057
p426
aVDCC1133
p427
asVDC006079
p428
(lp429
VDCC0027
p430
aVDCC0057
p431
aVDCC1567
p432
asVDC003938
p433
(lp434
VDCC0329
p435
aVDCC1736
p436
asVDC003936
p437
(lp438
VDCC1743
p439
aVDCC0057
p440
aVDCC0811
p441
asVDC003937
p442
(lp443
VDCC1569
p444
aVDCC1133
p445
asVDC005784
p446
(lp447
VDCC1203
p448
aVDCC1521
p449
asVDC004205
p450
(lp451
VDCC0111
p452
aVDCC0228
p453
aVDCC0150
p454
asVDC001777
p455
(lp456
VDCC0111
p457
aVDCC0045
p458
aVDCC0225
p459
asVDC001178
p460
(lp461
VDCC0288
p462
aVDCC0640
p463
aVDCC0123
p464
aVDCC0009
p465
asVDC001070
p466
(lp467
VDCC0008
p468
aVDCC0329
p469
asVDC004989
p470
(lp471
VDCC0079
p472
aVDCC0259
p473
asVDC001074
p474
(lp475
VDCC1454
p476
aVDCC1140
p477
asVDC001077
p478
(lp479
VDCC0131
p480
aVDCC1601
p481
aVDCC1399
p482
asVDC001170
p483
(lp484
VDCC0145
p485
aVDCC0247
p486
asVDC006430
p487
(lp488
VDCC0306
p489
aVDCC1524
p490
asVDC001172
p491
(lp492
VDCC0120
p493
aVDCC0012
p494
aVDCC0128
p495
aVDCC0162
p496
asVDC003276
p497
(lp498
VDCC0277
p499
aVDCC0156
p500
asVDC005412
p501
(lp502
VDCC1356
p503
aVDCC0022
p504
aVDCC1395
p505
aVDCC1501
p506
asVDC000312
p507
(lp508
VDCC0379
p509
aVDCC0296
p510
asVDC002186
p511
(lp512
VDCC0128
p513
aVDCC1164
p514
asVDC007235
p515
(lp516
VDCC0159
p517
aVDCC0368
p518
asVDC000258
p519
(lp520
VDCC0221
p521
aVDCC0116
p522
asVDC006192
p523
(lp524
VDCC0008
p525
aVDCC0295
p526
aVDCC0012
p527
asVDC000259
p528
(lp529
VDCC0256
p530
aVDCC0456
p531
asVDC005603
p532
(lp533
VDCC1687
p534
aVDCC0097
p535
asVDC000029
p536
(lp537
VDCC0123
p538
aVDCC0128
p539
aVDCC0117
p540
aVDCC0108
p541
asVDC000179
p542
(lp543
VDCC0272
p544
aVDCC0305
p545
asVDC000178
p546
(lp547
VDCC0334
p548
aVDCC0323
p549
asVDC000177
p550
(lp551
VDCC0272
p552
aVDCC0237
p553
asVDC000176
p554
(lp555
VDCC0215
p556
aVDCC0148
p557
asVDC000175
p558
(lp559
VDCC0124
p560
aVDCC0272
p561
asVDC000174
p562
(lp563
VDCC0148
p564
aVDCC0387
p565
asVDC000173
p566
(lp567
VDCC0195
p568
aVDCC0265
p569
asVDC000172
p570
(lp571
VDCC0335
p572
aVDCC0170
p573
asVDC000171
p574
(lp575
VDCC0195
p576
aVDCC0196
p577
asVDC000170
p578
(lp579
VDCC0434
p580
aVDCC0345
p581
asVDC000076
p582
(lp583
VDCC0145
p584
aVDCC0260
p585
asVDC000077
p586
(lp587
VDCC0143
p588
aVDCC0184
p589
asVDC000074
p590
(lp591
VDCC0124
p592
aVDCC0325
p593
asVDC000075
p594
(lp595
VDCC0124
p596
aVDCC0184
p597
asVDC000072
p598
(lp599
VDCC0163
p600
aVDCC0312
p601
asVDC000073
p602
(lp603
VDCC0072
p604
aVDCC0219
p605
asVDC000070
p606
(lp607
VDCC0098
p608
aVDCC0214
p609
asVDC000071
p610
(lp611
VDCC0282
p612
aVDCC0112
p613
asVDC002845
p614
(lp615
VDCC0156
p616
aVDCC1535
p617
asVDC000078
p618
(lp619
VDCC0184
p620
aVDCC0193
p621
aVDCC0257
p622
asVDC000079
p623
(lp624
VDCC0447
p625
aVDCC0184
p626
aVDCC0200
p627
aVDCC0257
p628
asVDC002070
p629
(lp630
VDCC1224
p631
aVDCC0666
p632
asVDC002073
p633
(lp634
VDCC0048
p635
aVDCC1574
p636
asVDC006104
p637
(lp638
VDCC0139
p639
aVDCC0099
p640
asVDC000250
p641
(lp642
VDCC0295
p643
aVDCC0329
p644
asVDC001986
p645
(lp646
VDCC1541
p647
aVDCC0100
p648
asVDC005732
p649
(lp650
VDCC0635
p651
aVDCC0887
p652
asVDC002079
p653
(lp654
VDCC0120
p655
aVDCC0128
p656
aVDCC0162
p657
asVDC000251
p658
(lp659
VDCC0131
p660
aVDCC0128
p661
aVDCC0162
p662
asVDC003156
p663
(lp664
VDCC1515
p665
aVDCC1367
p666
aVDCC0177
p667
asVDC000462
p668
(lp669
VDCC0073
p670
aVDCC0127
p671
asVDC006861
p672
(lp673
VDCC0545
p674
aVDCC1165
p675
aVDCC0203
p676
asVDC000947
p677
(lp678
VDCC0351
p679
aVDCC0281
p680
aVDCC0114
p681
aVDCC0179
p682
asVDC002758
p683
(lp684
VDCC0048
p685
aVDCC0059
p686
asVDC007290
p687
(lp688
VDCC1112
p689
aVDCC0180
p690
asVDC006857
p691
(lp692
VDCC0723
p693
aVDCC0932
p694
asVDC005046
p695
(lp696
VDCC1273
p697
aVDCC1593
p698
asVDC000388
p699
(lp700
VDCC0188
p701
aVDCC0172
p702
asVDC000389
p703
(lp704
VDCC0206
p705
aVDCC0327
p706
asVDC005042
p707
(lp708
VDCC1523
p709
aVDCC1679
p710
asVDC005043
p711
(lp712
VDCC1705
p713
aVDCC1182
p714
asVDC000384
p715
(lp716
VDCC0094
p717
aVDCC0117
p718
asVDC000385
p719
(lp720
VDCC0452
p721
aVDCC0066
p722
asVDC000386
p723
(lp724
VDCC0482
p725
aVDCC0006
p726
asVDC003584
p727
(lp728
VDCC0096
p729
aVDCC0123
p730
aVDCC0012
p731
aVDCC0128
p732
aVDCC0323
p733
asVDC000380
p734
(lp735
VDCC0439
p736
aVDCC0416
p737
aVDCC0403
p738
aVDCC0323
p739
asVDC000381
p740
(lp741
VDCC0431
p742
aVDCC0454
p743
asVDC000382
p744
(lp745
VDCC0128
p746
aVDCC0465
p747
asVDC000383
p748
(lp749
VDCC0120
p750
aVDCC0465
p751
asVDC000775
p752
(lp753
VDCC0139
p754
aVDCC0239
p755
aVDCC0969
p756
asVDC007005
p757
(lp758
VDCC0158
p759
aVDCC0123
p760
asVDC004136
p761
(lp762
VDCC1657
p763
aVDCC0120
p764
aVDCC0329
p765
asVDC000770
p766
(lp767
VDCC0779
p768
aVDCC0057
p769
asVDC000773
p770
(lp771
VDCC0601
p772
aVDCC0378
p773
asVDC000772
p774
(lp775
VDCC0001
p776
aVDCC0189
p777
aVDCC0128
p778
aVDCC0162
p779
asVDC007187
p780
(lp781
VDCC0282
p782
aVDCC0237
p783
asVDC005134
p784
(lp785
VDCC0271
p786
aVDCC0956
p787
asVDC007185
p788
(lp789
VDCC0665
p790
aVDCC0552
p791
asVDC004934
p792
(lp793
VDCC0079
p794
aVDCC1443
p795
asVDC007183
p796
(lp797
VDCC1742
p798
aVDCC0797
p799
asVDC000778
p800
(lp801
VDCC1662
p802
aVDCC1384
p803
asVDC007181
p804
(lp805
VDCC0040
p806
aVDCC0325
p807
asVDC007180
p808
(lp809
VDCC1097
p810
aVDCC0881
p811
asVDC000573
p812
(lp813
VDCC0234
p814
aVDCC1165
p815
aVDCC0203
p816
asVDC005062
p817
(lp818
VDCC0048
p819
aVDCC0334
p820
asVDC003752
p821
(lp822
VDCC0294
p823
aVDCC0657
p824
asVDC001367
p825
(lp826
VDCC0259
p827
aVDCC0016
p828
asVDC003750
p829
(lp830
VDCC0111
p831
aVDCC0045
p832
aVDCC0150
p833
aVDCC0225
p834
aVDCC0179
p835
asVDC007218
p836
(lp837
VDCC0863
p838
aVDCC1577
p839
aVDCC1840
p840
asVDC007217
p841
(lp842
VDCC1705
p843
aVDCC1425
p844
asVDC004601
p845
(lp846
VDCC1622
p847
aVDCC0909
p848
asVDC007215
p849
(lp850
VDCC1812
p851
aVDCC0051
p852
asVDC006200
p853
(lp854
VDCC0050
p855
aVDCC0336
p856
asVDC007213
p857
(lp858
VDCC1811
p859
aVDCC1491
p860
asVDC007212
p861
(lp862
VDCC1811
p863
aVDCC0047
p864
asVDC000348
p865
(lp866
VDCC0187
p867
aVDCC0235
p868
aVDCC0338
p869
asVDC000188
p870
(lp871
VDCC0217
p872
aVDCC0253
p873
asVDC001950
p874
(lp875
VDCC0094
p876
aVDCC0622
p877
aVDCC0245
p878
asVDC000813
p879
(lp880
VDCC1657
p881
aVDCC0329
p882
asVDC007006
p883
(lp884
VDCC0290
p885
aVDCC0240
p886
asVDC002527
p887
(lp888
VDCC0040
p889
aVDCC1372
p890
asVDC000189
p891
(lp892
VDCC0216
p893
aVDCC0193
p894
aVDCC0257
p895
asVDC002520
p896
(lp897
VDCC0259
p898
aVDCC0329
p899
asVDC000794
p900
(lp901
VDCC0295
p902
aVDCC0336
p903
asVDC004060
p904
(lp905
VDCC0023
p906
aVDCC0339
p907
aVDCC0464
p908
asVDC000761
p909
(lp910
VDCC1749
p911
aVDCC1124
p912
asVDC003325
p913
(lp914
VDCC0158
p915
aVDCC0117
p916
asVDC007198
p917
(lp918
VDCC0240
p919
aVDCC0163
p920
asVDC004112
p921
(lp922
VDCC1267
p923
aVDCC0194
p924
aVDCC0552
p925
asVDC006920
p926
(lp927
VDCC1745
p928
aVDCC0325
p929
aVDCC0240
p930
asVDC000490
p931
(lp932
VDCC0350
p933
aVDCC0130
p934
asVDC000491
p935
(lp936
VDCC0478
p937
aVDCC0259
p938
asVDC000492
p939
(lp940
VDCC0019
p941
aVDCC0234
p942
aVDCC0203
p943
asVDC000493
p944
(lp945
VDCC0093
p946
aVDCC0124
p947
asVDC000494
p948
(lp949
VDCC0280
p950
aVDCC0144
p951
aVDCC0242
p952
asVDC000495
p953
(lp954
VDCC1432
p955
aVDCC0206
p956
asVDC002953
p957
(lp958
VDCC1347
p959
aVDCC0023
p960
aVDCC0464
p961
asVDC002254
p962
(lp963
VDCC1183
p964
aVDCC0057
p965
asVDC002951
p966
(lp967
VDCC1498
p968
aVDCC0177
p969
asVDC000215
p970
(lp971
VDCC0051
p972
aVDCC0287
p973
asVDC000317
p974
(lp975
VDCC0151
p976
aVDCC0193
p977
asVDC000316
p978
(lp979
VDCC0474
p980
aVDCC0262
p981
aVDCC0393
p982
asVDC000315
p983
(lp984
VDCC0468
p985
aVDCC0313
p986
asVDC000703
p987
(lp988
VDCC0215
p989
aVDCC1417
p990
asVDC000313
p991
(lp992
VDCC0020
p993
aVDCC0468
p994
asVDC000705
p995
(lp996
VDCC1205
p997
aVDCC1164
p998
asVDC000311
p999
(lp1000
VDCC0114
p1001
aVDCC0324
p1002
asVDC000310
p1003
(lp1004
VDCC0457
p1005
aVDCC0128
p1006
asVDC000256
p1007
(lp1008
VDCC0238
p1009
aVDCC0138
p1010
asVDC000257
p1011
(lp1012
VDCC0214
p1013
aVDCC0081
p1014
asVDC000254
p1015
(lp1016
VDCC0123
p1017
aVDCC0117
p1018
asVDC000255
p1019
(lp1020
VDCC0287
p1021
aVDCC0116
p1022
asVDC000252
p1023
(lp1024
VDCC0049
p1025
aVDCC0138
p1026
asVDC000253
p1027
(lp1028
VDCC0048
p1029
aVDCC0188
p1030
asVDC000319
p1031
(lp1032
VDCC0151
p1033
aVDCC0193
p1034
aVDCC0257
p1035
asVDC000318
p1036
(lp1037
VDCC0347
p1038
aVDCC0298
p1039
asVDC005467
p1040
(lp1041
VDCC0057
p1042
aVDCC0085
p1043
asVDC003607
p1044
(lp1045
VDCC1443
p1046
aVDCC0717
p1047
asVDC000654
p1048
(lp1049
VDCC0573
p1050
aVDCC1414
p1051
asVDC005463
p1052
(lp1053
VDCC1351
p1054
aVDCC0156
p1055
aVDCC0241
p1056
asVDC003375
p1057
(lp1058
VDCC1489
p1059
aVDCC0802
p1060
aVDCC0179
p1061
asVDC000922
p1062
(lp1063
VDCC1208
p1064
aVDCC0188
p1065
asVDC000261
p1066
(lp1067
VDCC0350
p1068
aVDCC0024
p1069
asVDC003376
p1070
(lp1071
VDCC1443
p1072
aVDCC0103
p1073
asVDC000926
p1074
(lp1075
VDCC1493
p1076
aVDCC0146
p1077
aVDCC0464
p1078
asVDC003324
p1079
(lp1080
VDCC0094
p1081
aVDCC0012
p1082
aVDCC0245
p1083
asVDC004198
p1084
(lp1085
VDCC1338
p1086
aVDCC0875
p1087
asVDC003973
p1088
(lp1089
VDCC0111
p1090
aVDCC0351
p1091
aVDCC0228
p1092
aVDCC0114
p1093
asVDC001856
p1094
(lp1095
VDCC1539
p1096
aVDCC0050
p1097
asVDC004598
p1098
(lp1099
VDCC0329
p1100
aVDCC0156
p1101
aVDCC0639
p1102
asVDC005861
p1103
(lp1104
VDCC0613
p1105
aVDCC0156
p1106
asVDC005864
p1107
(lp1108
VDCC0152
p1109
aVDCC0240
p1110
asVDC006701
p1111
(lp1112
VDCC0057
p1113
aVDCC0333
p1114
aVDCC1133
p1115
asVDC006337
p1116
(lp1117
VDCC0059
p1118
aVDCC1498
p1119
asVDC004590
p1120
(lp1121
VDCC0158
p1122
aVDCC0245
p1123
asVDC001740
p1124
(lp1125
VDCC1247
p1126
aVDCC1530
p1127
asVDC001030
p1128
(lp1129
VDCC0128
p1130
aVDCC0162
p1131
asVDC001414
p1132
(lp1133
VDCC0114
p1134
aVDCC0802
p1135
aVDCC1552
p1136
asVDC000409
p1137
(lp1138
VDCC0280
p1139
aVDCC0161
p1140
aVDCC0030
p1141
aVDCC0179
p1142
asVDC000408
p1143
(lp1144
VDCC0259
p1145
aVDCC0046
p1146
asVDC001130
p1147
(lp1148
VDCC0011
p1149
aVDCC0156
p1150
aVDCC0173
p1151
asVDC004187
p1152
(lp1153
VDCC0059
p1154
aVDCC1541
p1155
aVDCC1218
p1156
asVDC000080
p1157
(lp1158
VDCC0325
p1159
aVDCC0172
p1160
asVDC000403
p1161
(lp1162
VDCC0111
p1163
aVDCC0280
p1164
aVDCC0281
p1165
aVDCC0062
p1166
aVDCC0150
p1167
aVDCC0242
p1168
asVDC000402
p1169
(lp1170
VDCC0048
p1171
aVDCC0032
p1172
asVDC000401
p1173
(lp1174
VDCC0412
p1175
aVDCC0323
p1176
asVDC000400
p1177
(lp1178
VDCC0280
p1179
aVDCC0114
p1180
aVDCC0324
p1181
asVDC000407
p1182
(lp1183
VDCC0308
p1184
aVDCC0363
p1185
asVDC000406
p1186
(lp1187
VDCC0280
p1188
aVDCC0062
p1189
aVDCC0056
p1190
aVDCC0242
p1191
asVDC000405
p1192
(lp1193
VDCC0141
p1194
aVDCC0048
p1195
asVDC000404
p1196
(lp1197
VDCC0446
p1198
aVDCC0323
p1199
asVDC000652
p1200
(lp1201
VDCC0259
p1202
aVDCC0117
p1203
asVDC006098
p1204
(lp1205
VDCC1149
p1206
aVDCC0348
p1207
aVDCC0011
p1208
asVDC000051
p1209
(lp1210
VDCC0401
p1211
aVDCC0364
p1212
asVDC004362
p1213
(lp1214
VDCC1509
p1215
aVDCC0137
p1216
asVDC007311
p1217
(lp1218
VDCC0799
p1219
aVDCC1848
p1220
asVDC003764
p1221
(lp1222
VDCC1131
p1223
aVDCC0239
p1224
aVDCC0255
p1225
asVDC004366
p1226
(lp1227
VDCC1231
p1228
aVDCC0100
p1229
aVDCC0818
p1230
asVDC000122
p1231
(lp1232
VDCC0152
p1233
aVDCC0157
p1234
asVDC000032
p1235
(lp1236
VDCC0315
p1237
aVDCC0260
p1238
asVDC000033
p1239
(lp1240
VDCC0112
p1241
aVDCC0240
p1242
asVDC000030
p1243
(lp1244
VDCC0209
p1245
aVDCC0204
p1246
asVDC000031
p1247
(lp1248
VDCC0259
p1249
aVDCC0128
p1250
aVDCC0117
p1251
asVDC000036
p1252
(lp1253
VDCC0071
p1254
aVDCC0240
p1255
asVDC000037
p1256
(lp1257
VDCC0167
p1258
aVDCC0196
p1259
asVDC000034
p1260
(lp1261
VDCC0260
p1262
aVDCC0198
p1263
asVDC000035
p1264
(lp1265
VDCC0078
p1266
aVDCC0240
p1267
asVDC000038
p1268
(lp1269
VDCC0021
p1270
aVDCC0240
p1271
aVDCC0031
p1272
asVDC000039
p1273
(lp1274
VDCC0051
p1275
aVDCC0078
p1276
aVDCC0240
p1277
asVDC004164
p1278
(lp1279
VDCC0191
p1280
aVDCC0245
p1281
asVDC004166
p1282
(lp1283
VDCC0532
p1284
aVDCC0245
p1285
asVDC000292
p1286
(lp1287
VDCC0073
p1288
aVDCC0247
p1289
asVDC006495
p1290
(lp1291
VDCC1209
p1292
aVDCC0179
p1293
asVDC002038
p1294
(lp1295
VDCC0329
p1296
aVDCC0156
p1297
aVDCC0634
p1298
asVDC002130
p1299
(lp1300
VDCC0115
p1301
aVDCC0065
p1302
asVDC000293
p1303
(lp1304
VDCC0098
p1305
aVDCC0099
p1306
asVDC002034
p1307
(lp1308
VDCC0628
p1309
aVDCC0325
p1310
aVDCC0240
p1311
aVDCC0103
p1312
asVDC006145
p1313
(lp1314
VDCC0218
p1315
aVDCC0173
p1316
asVDC000128
p1317
(lp1318
VDCC0259
p1319
aVDCC0057
p1320
asVDC007202
p1321
(lp1322
VDCC0135
p1323
aVDCC1822
p1324
asVDC006382
p1325
(lp1326
VDCC0590
p1327
aVDCC1446
p1328
asVDC001041
p1329
(lp1330
VDCC0047
p1331
aVDCC0142
p1332
asVDC000330
p1333
(lp1334
VDCC0297
p1335
aVDCC0193
p1336
asVDC001044
p1337
(lp1338
VDCC0259
p1339
aVDCC0123
p1340
aVDCC0278
p1341
aVDCC0325
p1342
aVDCC0126
p1343
aVDCC0156
p1344
asVDC001046
p1345
(lp1346
VDCC1117
p1347
aVDCC1137
p1348
asVDC007266
p1349
(lp1350
VDCC0260
p1351
aVDCC1829
p1352
asVDC007267
p1353
(lp1354
VDCC0260
p1355
aVDCC0337
p1356
asVDC007265
p1357
(lp1358
VDCC1828
p1359
aVDCC0257
p1360
asVDC007262
p1361
(lp1362
VDCC1246
p1363
aVDCC0172
p1364
asVDC007263
p1365
(lp1366
VDCC1246
p1367
aVDCC0155
p1368
asVDC007260
p1369
(lp1370
VDCC1183
p1371
aVDCC0587
p1372
asVDC002196
p1373
(lp1374
VDCC0285
p1375
aVDCC0374
p1376
aVDCC0372
p1377
asVDC002985
p1378
(lp1379
VDCC0218
p1380
aVDCC1161
p1381
aVDCC0223
p1382
asVDC003418
p1383
(lp1384
VDCC0131
p1385
aVDCC1110
p1386
aVDCC0216
p1387
asVDC005613
p1388
(lp1389
VDCC0008
p1390
aVDCC0012
p1391
asVDC006898
p1392
(lp1393
VDCC0329
p1394
aVDCC0067
p1395
asVDC002983
p1396
(lp1397
VDCC0128
p1398
aVDCC0117
p1399
aVDCC1165
p1400
asVDC000111
p1401
(lp1402
VDCC0040
p1403
aVDCC0185
p1404
asVDC002091
p1405
(lp1406
VDCC0131
p1407
aVDCC1495
p1408
aVDCC1601
p1409
aVDCC1399
p1410
asVDC005160
p1411
(lp1412
VDCC1143
p1413
aVDCC0131
p1414
asVDC005246
p1415
(lp1416
VDCC0139
p1417
aVDCC0318
p1418
asVDC000333
p1419
(lp1420
VDCC0284
p1421
aVDCC0372
p1422
aVDCC0423
p1423
asVDC000298
p1424
(lp1425
VDCC0427
p1426
aVDCC0223
p1427
asVDC000863
p1428
(lp1429
VDCC1488
p1430
aVDCC1479
p1431
aVDCC1252
p1432
asVDC000106
p1433
(lp1434
VDCC0263
p1435
aVDCC0391
p1436
asVDC000107
p1437
(lp1438
VDCC0045
p1439
aVDCC0225
p1440
asVDC000104
p1441
(lp1442
VDCC0290
p1443
aVDCC0419
p1444
asVDC000105
p1445
(lp1446
VDCC0045
p1447
aVDCC0150
p1448
aVDCC0225
p1449
asVDC000102
p1450
(lp1451
VDCC0001
p1452
aVDCC0012
p1453
asVDC000103
p1454
(lp1455
VDCC0351
p1456
aVDCC0114
p1457
asVDC000539
p1458
(lp1459
VDCC0166
p1460
aVDCC0043
p1461
aVDCC1238
p1462
aVDCC0920
p1463
asVDC000101
p1464
(lp1465
VDCC0111
p1466
aVDCC0179
p1467
asVDC003718
p1468
(lp1469
VDCC0290
p1470
aVDCC0657
p1471
asVDC000085
p1472
(lp1473
VDCC0037
p1474
aVDCC0460
p1475
asVDC000531
p1476
(lp1477
VDCC1551
p1478
aVDCC1524
p1479
asVDC000109
p1480
(lp1481
VDCC0040
p1482
aVDCC0467
p1483
asVDC002140
p1484
(lp1485
VDCC0077
p1486
aVDCC0261
p1487
asVDC002141
p1488
(lp1489
VDCC0361
p1490
aVDCC1138
p1491
asVDC007310
p1492
(lp1493
VDCC0075
p1494
aVDCC1849
p1495
asVDC004844
p1496
(lp1497
VDCC0191
p1498
aVDCC1710
p1499
aVDCC0256
p1500
aVDCC1535
p1501
asVDC007316
p1502
(lp1503
VDCC1850
p1504
aVDCC1852
p1505
asVDC000117
p1506
(lp1507
VDCC0280
p1508
aVDCC0062
p1509
aVDCC0242
p1510
asVDC007314
p1511
(lp1512
VDCC0187
p1513
aVDCC1370
p1514
asVDC006569
p1515
(lp1516
VDCC0290
p1517
aVDCC0294
p1518
asVDC000414
p1519
(lp1520
VDCC0280
p1521
aVDCC0228
p1522
aVDCC0150
p1523
aVDCC0179
p1524
asVDC004843
p1525
(lp1526
VDCC1149
p1527
aVDCC0218
p1528
asVDC007318
p1529
(lp1530
VDCC0333
p1531
aVDCC0157
p1532
asVDC000116
p1533
(lp1534
VDCC0280
p1535
aVDCC0242
p1536
asVDC007031
p1537
(lp1538
VDCC1740
p1539
aVDCC0407
p1540
asVDC000082
p1541
(lp1542
VDCC0282
p1543
aVDCC0214
p1544
asVDC007161
p1545
(lp1546
VDCC0073
p1547
aVDCC0331
p1548
aVDCC0260
p1549
asVDC007160
p1550
(lp1551
VDCC0331
p1552
aVDCC0014
p1553
asVDC007163
p1554
(lp1555
VDCC0260
p1556
aVDCC1355
p1557
asVDC007162
p1558
(lp1559
VDCC1493
p1560
aVDCC1333
p1561
asVDC002405
p1562
(lp1563
VDCC0094
p1564
aVDCC0122
p1565
aVDCC0120
p1566
asVDC007164
p1567
(lp1568
VDCC0057
p1569
aVDCC0371
p1570
asVDC007167
p1571
(lp1572
VDCC0073
p1573
aVDCC0038
p1574
aVDCC0260
p1575
asVDC000699
p1576
(lp1577
VDCC0016
p1578
aVDCC0278
p1579
aVDCC0156
p1580
asVDC007169
p1581
(lp1582
VDCC1361
p1583
aVDCC1507
p1584
asVDC000697
p1585
(lp1586
VDCC0048
p1587
aVDCC1376
p1588
asVDC003100
p1589
(lp1590
VDCC0912
p1591
aVDCC0769
p1592
aVDCC1493
p1593
asVDC002765
p1594
(lp1595
VDCC0329
p1596
aVDCC0156
p1597
asVDC000690
p1598
(lp1599
VDCC1330
p1600
aVDCC0284
p1601
aVDCC0118
p1602
asVDC002516
p1603
(lp1604
VDCC0036
p1605
aVDCC0269
p1606
asVDC006803
p1607
(lp1608
VDCC1628
p1609
aVDCC0787
p1610
asVDC001268
p1611
(lp1612
VDCC1407
p1613
aVDCC0022
p1614
asVDC001180
p1615
(lp1616
VDCC1204
p1617
aVDCC1595
p1618
asVDC003407
p1619
(lp1620
VDCC0122
p1621
aVDCC0117
p1622
asVDC001264
p1623
(lp1624
VDCC1368
p1625
aVDCC0179
p1626
asVDC005012
p1627
(lp1628
VDCC1680
p1629
aVDCC0303
p1630
asVDC000269
p1631
(lp1632
VDCC0318
p1633
aVDCC0097
p1634
aVDCC0285
p1635
asVDC006853
p1636
(lp1637
VDCC0061
p1638
aVDCC0138
p1639
asVDC001261
p1640
(lp1641
VDCC0016
p1642
aVDCC0334
p1643
asVDC002381
p1644
(lp1645
VDCC0770
p1646
aVDCC0325
p1647
aVDCC1434
p1648
asVDC000069
p1649
(lp1650
VDCC0049
p1651
aVDCC0041
p1652
aVDCC0214
p1653
asVDC000218
p1654
(lp1655
VDCC0117
p1656
aVDCC0223
p1657
asVDC001814
p1658
(lp1659
VDCC0079
p1660
aVDCC0003
p1661
asVDC000465
p1662
(lp1663
VDCC0090
p1664
aVDCC0317
p1665
asVDC000056
p1666
(lp1667
VDCC0047
p1668
aVDCC0060
p1669
asVDC000219
p1670
(lp1671
VDCC0131
p1672
aVDCC0026
p1673
asVDC000068
p1674
(lp1675
VDCC0049
p1676
aVDCC0214
p1677
aVDCC0081
p1678
asVDC000212
p1679
(lp1680
VDCC0016
p1681
aVDCC0103
p1682
asVDC000951
p1683
(lp1684
VDCC1454
p1685
aVDCC0131
p1686
aVDCC1183
p1687
aVDCC0009
p1688
asVDC000210
p1689
(lp1690
VDCC0214
p1691
aVDCC0248
p1692
asVDC000747
p1693
(lp1694
VDCC0904
p1695
aVDCC0067
p1696
asVDC000216
p1697
(lp1698
VDCC0215
p1699
aVDCC0117
p1700
asVDC000217
p1701
(lp1702
VDCC0075
p1703
aVDCC0051
p1704
aVDCC0287
p1705
asVDC000214
p1706
(lp1707
VDCC0025
p1708
aVDCC0468
p1709
asVDC004024
p1710
(lp1711
VDCC1503
p1712
aVDCC0810
p1713
asVDC002364
p1714
(lp1715
VDCC0374
p1716
aVDCC0372
p1717
aVDCC1333
p1718
asVDC000190
p1719
(lp1720
VDCC0094
p1721
aVDCC0016
p1722
aVDCC0245
p1723
asVDC000193
p1724
(lp1725
VDCC0303
p1726
aVDCC0371
p1727
asVDC003665
p1728
(lp1729
VDCC0215
p1730
aVDCC0361
p1731
asVDC000195
p1732
(lp1733
VDCC0267
p1734
aVDCC0371
p1735
asVDC000194
p1736
(lp1737
VDCC0075
p1738
aVDCC0287
p1739
asVDC000197
p1740
(lp1741
VDCC0093
p1742
aVDCC0193
p1743
asVDC000196
p1744
(lp1745
VDCC0352
p1746
aVDCC0052
p1747
asVDC000199
p1748
(lp1749
VDCC0129
p1750
aVDCC0192
p1751
asVDC000583
p1752
(lp1753
VDCC1542
p1754
aVDCC0171
p1755
asVDC000629
p1756
(lp1757
VDCC0156
p1758
aVDCC0009
p1759
aVDCC0173
p1760
asVDC002240
p1761
(lp1762
VDCC0096
p1763
aVDCC0329
p1764
aVDCC1775
p1765
asVDC002713
p1766
(lp1767
VDCC0007
p1768
aVDCC0095
p1769
aVDCC0358
p1770
asVDC002499
p1771
(lp1772
VDCC1664
p1773
aVDCC0057
p1774
asVDC004406
p1775
(lp1776
VDCC0114
p1777
aVDCC0342
p1778
asVDC000966
p1779
(lp1780
VDCC1561
p1781
aVDCC1105
p1782
asVDC000967
p1783
(lp1784
VDCC1584
p1785
aVDCC1559
p1786
asVDC003363
p1787
(lp1788
VDCC0008
p1789
aVDCC0332
p1790
aVDCC0323
p1791
asVDC001863
p1792
(lp1793
VDCC0296
p1794
aVDCC0171
p1795
asVDC003052
p1796
(lp1797
VDCC0075
p1798
aVDCC1545
p1799
asVDC000601
p1800
(lp1801
VDCC0242
p1802
aVDCC1534
p1803
asVDC000266
p1804
(lp1805
VDCC0322
p1806
aVDCC0039
p1807
asVDC000180
p1808
(lp1809
VDCC0193
p1810
aVDCC0257
p1811
asVDC000969
p1812
(lp1813
VDCC1489
p1814
aVDCC0281
p1815
aVDCC0179
p1816
asVDC001982
p1817
(lp1818
VDCC0169
p1819
aVDCC0134
p1820
aVDCC0060
p1821
asVDC006742
p1822
(lp1823
VDCC0057
p1824
aVDCC0333
p1825
aVDCC1690
p1826
asVDC002494
p1827
(lp1828
VDCC1703
p1829
aVDCC1160
p1830
asVDC003855
p1831
(lp1832
VDCC0319
p1833
aVDCC1365
p1834
asVDC005389
p1835
(lp1836
VDCC0335
p1837
aVDCC1479
p1838
asVDC006745
p1839
(lp1840
VDCC1574
p1841
aVDCC0165
p1842
asVDC000063
p1843
(lp1844
VDCC0091
p1845
aVDCC0102
p1846
asVDC005658
p1847
(lp1848
VDCC0016
p1849
aVDCC0277
p1850
aVDCC0156
p1851
asVDC000998
p1852
(lp1853
VDCC1702
p1854
aVDCC1351
p1855
aVDCC0325
p1856
aVDCC1434
p1857
asVDC000062
p1858
(lp1859
VDCC0319
p1860
aVDCC0102
p1861
asVDC004887
p1862
(lp1863
VDCC1644
p1864
aVDCC0371
p1865
asVDC000209
p1866
(lp1867
VDCC0214
p1868
aVDCC0241
p1869
asVDC000181
p1870
(lp1871
VDCC0120
p1872
aVDCC0117
p1873
asVDC003440
p1874
(lp1875
VDCC0014
p1876
aVDCC1191
p1877
asVDC000995
p1878
(lp1879
VDCC0278
p1880
aVDCC0277
p1881
aVDCC0156
p1882
aVDCC1649
p1883
asVDC000456
p1884
(lp1885
VDCC0260
p1886
aVDCC0127
p1887
asVDC001507
p1888
(lp1889
VDCC0079
p1890
aVDCC0094
p1891
aVDCC0295
p1892
asVDC001506
p1893
(lp1894
VDCC0001
p1895
aVDCC0295
p1896
aVDCC0120
p1897
aVDCC0012
p1898
asVDC000447
p1899
(lp1900
VDCC0037
p1901
aVDCC0192
p1902
asVDC000446
p1903
(lp1904
VDCC0289
p1905
aVDCC0039
p1906
asVDC001910
p1907
(lp1908
VDCC1489
p1909
aVDCC0228
p1910
aVDCC0225
p1911
asVDC000457
p1912
(lp1913
VDCC0331
p1914
aVDCC0260
p1915
asVDC000443
p1916
(lp1917
VDCC0037
p1918
aVDCC0132
p1919
asVDC000442
p1920
(lp1921
VDCC0015
p1922
aVDCC0424
p1923
asVDC000368
p1924
(lp1925
VDCC0439
p1926
aVDCC0117
p1927
aVDCC0416
p1928
aVDCC0403
p1929
asVDC000369
p1930
(lp1931
VDCC0010
p1932
aVDCC0083
p1933
asVDC000366
p1934
(lp1935
VDCC0439
p1936
aVDCC0094
p1937
aVDCC0416
p1938
aVDCC0403
p1939
asVDC000367
p1940
(lp1941
VDCC0137
p1942
aVDCC0392
p1943
asVDC000364
p1944
(lp1945
VDCC0428
p1946
aVDCC0453
p1947
aVDCC0368
p1948
asVDC000365
p1949
(lp1950
VDCC0280
p1951
aVDCC0010
p1952
asVDC007046
p1953
(lp1954
VDCC0008
p1955
aVDCC0096
p1956
aVDCC0329
p1957
aVDCC0080
p1958
asVDC000363
p1959
(lp1960
VDCC0351
p1961
aVDCC0324
p1962
asVDC007044
p1963
(lp1964
VDCC0012
p1965
aVDCC0128
p1966
aVDCC0162
p1967
aVDCC0634
p1968
asVDC000361
p1969
(lp1970
VDCC0198
p1971
aVDCC0015
p1972
asVDC005336
p1973
(lp1974
VDCC0123
p1975
aVDCC0126
p1976
aVDCC0156
p1977
aVDCC0009
p1978
asVDC003578
p1979
(lp1980
VDCC0296
p1981
aVDCC1137
p1982
asVDC002605
p1983
(lp1984
VDCC0131
p1985
aVDCC1110
p1986
asVDC001481
p1987
(lp1988
VDCC0278
p1989
aVDCC0156
p1990
aVDCC0103
p1991
asVDC003211
p1992
(lp1993
VDCC1191
p1994
aVDCC0157
p1995
asVDC001928
p1996
(lp1997
VDCC1124
p1998
aVDCC0371
p1999
asVDC003215
p2000
(lp2001
VDCC0290
p2002
aVDCC0250
p2003
aVDCC0276
p2004
asVDC004534
p2005
(lp2006
VDCC1542
p2007
aVDCC0849
p2008
asVDC001695
p2009
(lp2010
VDCC1728
p2011
aVDCC1353
p2012
asVDC003577
p2013
(lp2014
VDCC1116
p2015
aVDCC1539
p2016
asVDC004569
p2017
(lp2018
VDCC1332
p2019
aVDCC1661
p2020
aVDCC1239
p2021
aVDCC0115
p2022
aVDCC1365
p2023
asVDC000468
p2024
(lp2025
VDCC0117
p2026
aVDCC0426
p2027
asVDC005839
p2028
(lp2029
VDCC0024
p2030
aVDCC0464
p2031
asVDC004079
p2032
(lp2033
VDCC0002
p2034
aVDCC1060
p2035
aVDCC0203
p2036
asVDC003926
p2037
(lp2038
VDCC0439
p2039
aVDCC0120
p2040
aVDCC0416
p2041
aVDCC0403
p2042
asVDC000357
p2043
(lp2044
VDCC0150
p2045
aVDCC0225
p2046
asVDC005557
p2047
(lp2048
VDCC1689
p2049
aVDCC1677
p2050
asVDC000459
p2051
(lp2052
VDCC0260
p2053
aVDCC0109
p2054
asVDC000086
p2055
(lp2056
VDCC0229
p2057
aVDCC0089
p2058
asVDC006697
p2059
(lp2060
VDCC0603
p2061
aVDCC0834
p2062
asVDC000988
p2063
(lp2064
VDCC0717
p2065
aVDCC0334
p2066
asVDC001002
p2067
(lp2068
VDCC0091
p2069
aVDCC0547
p2070
aVDCC0235
p2071
asVDC000464
p2072
(lp2073
VDCC0260
p2074
aVDCC0142
p2075
asVDC005938
p2076
(lp2077
VDCC1333
p2078
aVDCC0464
p2079
asVDC005540
p2080
(lp2081
VDCC0123
p2082
aVDCC0016
p2083
aVDCC0325
p2084
asVDC004834
p2085
(lp2086
VDCC0001
p2087
aVDCC0323
p2088
asVDC005542
p2089
(lp2090
VDCC0131
p2091
aVDCC0156
p2092
aVDCC0009
p2093
asVDC007226
p2094
(lp2095
VDCC0224
p2096
aVDCC1833
p2097
asVDC005610
p2098
(lp2099
VDCC0038
p2100
aVDCC0565
p2101
asVDC005208
p2102
(lp2103
VDCC0834
p2104
aVDCC0180
p2105
asVDC000466
p2106
(lp2107
VDCC0189
p2108
aVDCC0117
p2109
asVDC000241
p2110
(lp2111
VDCC0454
p2112
aVDCC0455
p2113
asVDC001901
p2114
(lp2115
VDCC0003
p2116
aVDCC0148
p2117
asVDC007231
p2118
(lp2119
VDCC0051
p2120
aVDCC0298
p2121
asVDC005750
p2122
(lp2123
VDCC0331
p2124
aVDCC0169
p2125
asVDC005752
p2126
(lp2127
VDCC0280
p2128
aVDCC1728
p2129
asVDC000781
p2130
(lp2131
VDCC0601
p2132
aVDCC1733
p2133
asVDC005757
p2134
(lp2135
VDCC0002
p2136
aVDCC1302
p2137
aVDCC0203
p2138
asVDC000142
p2139
(lp2140
VDCC0049
p2141
aVDCC0160
p2142
asVDC000143
p2143
(lp2144
VDCC0280
p2145
aVDCC0318
p2146
asVDC000140
p2147
(lp2148
VDCC0051
p2149
aVDCC0049
p2150
aVDCC0021
p2151
aVDCC0031
p2152
asVDC000141
p2153
(lp2154
VDCC0049
p2155
aVDCC0021
p2156
aVDCC0031
p2157
asVDC000146
p2158
(lp2159
VDCC0049
p2160
aVDCC0112
p2161
asVDC000147
p2162
(lp2163
VDCC0280
p2164
aVDCC0273
p2165
asVDC000144
p2166
(lp2167
VDCC0049
p2168
aVDCC0163
p2169
asVDC000145
p2170
(lp2171
VDCC0147
p2172
aVDCC0273
p2173
asVDC000061
p2174
(lp2175
VDCC0265
p2176
aVDCC0049
p2177
asVDC000060
p2178
(lp2179
VDCC0111
p2180
aVDCC0228
p2181
aVDCC0028
p2182
asVDC000148
p2183
(lp2184
VDCC0049
p2185
aVDCC0346
p2186
asVDC000149
p2187
(lp2188
VDCC0318
p2189
aVDCC0273
p2190
asVDC000065
p2191
(lp2192
VDCC0261
p2193
aVDCC0058
p2194
asVDC000064
p2195
(lp2196
VDCC0053
p2197
aVDCC0101
p2198
asVDC000067
p2199
(lp2200
VDCC0395
p2201
aVDCC0184
p2202
asVDC000066
p2203
(lp2204
VDCC0214
p2205
aVDCC0463
p2206
asVDC003139
p2207
(lp2208
VDCC0131
p2209
aVDCC0218
p2210
asVDC000304
p2211
(lp2212
VDCC0135
p2213
aVDCC0183
p2214
asVDC002327
p2215
(lp2216
VDCC0325
p2217
aVDCC1737
p2218
aVDCC0103
p2219
asVDC000305
p2220
(lp2221
VDCC0184
p2222
aVDCC0151
p2223
aVDCC0193
p2224
aVDCC0257
p2225
asVDC002104
p2226
(lp2227
VDCC0288
p2228
aVDCC0917
p2229
aVDCC0123
p2230
asVDC004966
p2231
(lp2232
VDCC1680
p2233
aVDCC0267
p2234
aVDCC0057
p2235
asVDC003505
p2236
(lp2237
VDCC0218
p2238
aVDCC0156
p2239
aVDCC0173
p2240
asVDC006524
p2241
(lp2242
VDCC0348
p2243
aVDCC1466
p2244
asVDC006113
p2245
(lp2246
VDCC0191
p2247
aVDCC0410
p2248
asVDC000200
p2249
(lp2250
VDCC0458
p2251
aVDCC0117
p2252
asVDC005333
p2253
(lp2254
VDCC0073
p2255
aVDCC0247
p2256
aVDCC0142
p2257
aVDCC0157
p2258
asVDC000268
p2259
(lp2260
VDCC0473
p2261
aVDCC0259
p2262
asVDC006115
p2263
(lp2264
VDCC0158
p2265
aVDCC0117
p2266
aVDCC0050
p2267
asVDC001710
p2268
(lp2269
VDCC0777
p2270
aVDCC0332
p2271
asVDC002069
p2272
(lp2273
VDCC0601
p2274
aVDCC0370
p2275
asVDC006118
p2276
(lp2277
VDCC1021
p2278
aVDCC1376
p2279
asVDC000301
p2280
(lp2281
VDCC0251
p2282
aVDCC0240
p2283
asVDC003082
p2284
(lp2285
VDCC0006
p2286
aVDCC0191
p2287
aVDCC0123
p2288
aVDCC1162
p2289
asVDC002689
p2290
(lp2291
VDCC0008
p2292
aVDCC0329
p2293
aVDCC0323
p2294
asVDC000302
p2295
(lp2296
VDCC0290
p2297
aVDCC0302
p2298
asVDC000481
p2299
(lp2300
VDCC0227
p2301
aVDCC0337
p2302
asVDC006847
p2303
(lp2304
VDCC1183
p2305
aVDCC0117
p2306
aVDCC0325
p2307
aVDCC0013
p2308
asVDC000303
p2309
(lp2310
VDCC0291
p2311
aVDCC0135
p2312
asVDC002686
p2313
(lp2314
VDCC1433
p2315
aVDCC0082
p2316
asVDC006842
p2317
(lp2318
VDCC0545
p2319
aVDCC1127
p2320
aVDCC0203
p2321
asVDC001246
p2322
(lp2323
VDCC0111
p2324
aVDCC0030
p2325
aVDCC0179
p2326
asVDC000399
p2327
(lp2328
VDCC0002
p2329
aVDCC0203
p2330
asVDC000398
p2331
(lp2332
VDCC0003
p2333
aVDCC0203
p2334
asVDC005116
p2335
(lp2336
VDCC1450
p2337
aVDCC1539
p2338
asVDC000396
p2339
(lp2340
VDCC0351
p2341
aVDCC0280
p2342
aVDCC0114
p2343
asVDC000395
p2344
(lp2345
VDCC0300
p2346
aVDCC0441
p2347
asVDC000394
p2348
(lp2349
VDCC0300
p2350
aVDCC0054
p2351
asVDC000393
p2352
(lp2353
VDCC0043
p2354
aVDCC0459
p2355
asVDC000392
p2356
(lp2357
VDCC0154
p2358
aVDCC0459
p2359
asVDC000391
p2360
(lp2361
VDCC0350
p2362
aVDCC0083
p2363
asVDC000390
p2364
(lp2365
VDCC0117
p2366
aVDCC0461
p2367
asVDC000267
p2368
(lp2369
VDCC0285
p2370
aVDCC0190
p2371
asVDC000664
p2372
(lp2373
VDCC1489
p2374
aVDCC0802
p2375
asVDC000202
p2376
(lp2377
VDCC0294
p2378
aVDCC0328
p2379
asVDC000460
p2380
(lp2381
VDCC0221
p2382
aVDCC0214
p2383
asVDC003746
p2384
(lp2385
VDCC1424
p2386
aVDCC0057
p2387
asVDC007222
p2388
(lp2389
VDCC1813
p2390
aVDCC0184
p2391
aVDCC0193
p2392
asVDC007223
p2393
(lp2394
VDCC1813
p2395
aVDCC0193
p2396
asVDC000096
p2397
(lp2398
VDCC0079
p2399
aVDCC0245
p2400
aVDCC0323
p2401
asVDC007221
p2402
(lp2403
VDCC1813
p2404
aVDCC0184
p2405
asVDC002614
p2406
(lp2407
VDCC0156
p2408
aVDCC0223
p2409
aVDCC0173
p2410
asVDC007227
p2411
(lp2412
VDCC1852
p2413
aVDCC1814
p2414
asVDC000092
p2415
(lp2416
VDCC0408
p2417
aVDCC0154
p2418
asVDC007225
p2419
(lp2420
VDCC1824
p2421
aVDCC0101
p2422
asVDC002618
p2423
(lp2424
VDCC1498
p2425
aVDCC0887
p2426
asVDC000306
p2427
(lp2428
VDCC0259
p2429
aVDCC0369
p2430
asVDC007228
p2431
(lp2432
VDCC0298
p2433
aVDCC0214
p2434
aVDCC0243
p2435
asVDC007229
p2436
(lp2437
VDCC0075
p2438
aVDCC0282
p2439
aVDCC0298
p2440
asVDC000098
p2441
(lp2442
VDCC0111
p2443
aVDCC0281
p2444
aVDCC0179
p2445
asVDC000099
p2446
(lp2447
VDCC0016
p2448
aVDCC0277
p2449
aVDCC0325
p2450
asVDC002209
p2451
(lp2452
VDCC0120
p2453
aVDCC0329
p2454
aVDCC0128
p2455
aVDCC0162
p2456
asVDC000807
p2457
(lp2458
VDCC0166
p2459
aVDCC1238
p2460
aVDCC0920
p2461
asVDC007159
p2462
(lp2463
VDCC0252
p2464
aVDCC1699
p2465
asVDC004751
p2466
(lp2467
VDCC0124
p2468
aVDCC0172
p2469
asVDC000336
p2470
(lp2471
VDCC0284
p2472
aVDCC0464
p2473
aVDCC0383
p2474
asVDC000081
p2475
(lp2476
VDCC0202
p2477
aVDCC0116
p2478
asVDC007150
p2479
(lp2480
VDCC0043
p2481
aVDCC0177
p2482
asVDC007151
p2483
(lp2484
VDCC1194
p2485
aVDCC1593
p2486
asVDC004690
p2487
(lp2488
VDCC0070
p2489
aVDCC0252
p2490
aVDCC1221
p2491
asVDC007153
p2492
(lp2493
VDCC0318
p2494
aVDCC0285
p2495
aVDCC0061
p2496
asVDC007154
p2497
(lp2498
VDCC0290
p2499
aVDCC1577
p2500
aVDCC0250
p2501
asVDC007155
p2502
(lp2503
VDCC0180
p2504
aVDCC0194
p2505
asVDC007156
p2506
(lp2507
VDCC1680
p2508
aVDCC0057
p2509
asVDC007157
p2510
(lp2511
VDCC0045
p2512
aVDCC0903
p2513
aVDCC0494
p2514
aVDCC0225
p2515
asVDC006625
p2516
(lp2517
VDCC1347
p2518
aVDCC0146
p2519
aVDCC0023
p2520
asVDC004109
p2521
(lp2522
VDCC0464
p2523
aVDCC0927
p2524
asVDC006882
p2525
(lp2526
VDCC1116
p2527
aVDCC0168
p2528
asVDC006623
p2529
(lp2530
VDCC1245
p2531
aVDCC0295
p2532
aVDCC0120
p2533
aVDCC0325
p2534
asVDC000332
p2535
(lp2536
VDCC0079
p2537
aVDCC0355
p2538
asVDC003585
p2539
(lp2540
VDCC1684
p2541
aVDCC0318
p2542
asVDC006837
p2543
(lp2544
VDCC1659
p2545
aVDCC1587
p2546
asVDC000483
p2547
(lp2548
VDCC0038
p2549
aVDCC0260
p2550
asVDC000482
p2551
(lp2552
VDCC0260
p2553
aVDCC0270
p2554
asVDC000328
p2555
(lp2556
VDCC0008
p2557
aVDCC0117
p2558
asVDC000329
p2559
(lp2560
VDCC0268
p2561
aVDCC0370
p2562
asVDC000487
p2563
(lp2564
VDCC0130
p2565
aVDCC0102
p2566
asVDC001236
p2567
(lp2568
VDCC0308
p2569
aVDCC0186
p2570
asVDC000485
p2571
(lp2572
VDCC0260
p2573
aVDCC0226
p2574
asVDC000484
p2575
(lp2576
VDCC0260
p2577
aVDCC0134
p2578
asVDC000322
p2579
(lp2580
VDCC0111
p2581
aVDCC0030
p2582
aVDCC0178
p2583
asVDC000323
p2584
(lp2585
VDCC0013
p2586
aVDCC0323
p2587
asVDC000489
p2588
(lp2589
VDCC0130
p2590
aVDCC0200
p2591
asVDC000488
p2592
(lp2593
VDCC0130
p2594
aVDCC0304
p2595
asVDC000890
p2596
(lp2597
VDCC1723
p2598
aVDCC1384
p2599
asVDC000891
p2600
(lp2601
VDCC1555
p2602
aVDCC0120
p2603
aVDCC0128
p2604
aVDCC0162
p2605
asVDC000324
p2606
(lp2607
VDCC0050
p2608
aVDCC0402
p2609
asVDC000325
p2610
(lp2611
VDCC0093
p2612
aVDCC0266
p2613
aVDCC0193
p2614
asVDC000713
p2615
(lp2616
VDCC0012
p2617
aVDCC0189
p2618
aVDCC0128
p2619
aVDCC0162
p2620
asVDC000240
p2621
(lp2622
VDCC0023
p2623
aVDCC0339
p2624
asVDC000243
p2625
(lp2626
VDCC0386
p2627
aVDCC0223
p2628
asVDC000242
p2629
(lp2630
VDCC0120
p2631
aVDCC0189
p2632
asVDC004999
p2633
(lp2634
VDCC0239
p2635
aVDCC0738
p2636
asVDC000244
p2637
(lp2638
VDCC0117
p2639
aVDCC0369
p2640
asVDC000247
p2641
(lp2642
VDCC0148
p2643
aVDCC0223
p2644
asVDC000246
p2645
(lp2646
VDCC0308
p2647
aVDCC0456
p2648
asVDC000249
p2649
(lp2650
VDCC0117
p2651
aVDCC0271
p2652
asVDC000248
p2653
(lp2654
VDCC0001
p2655
aVDCC0245
p2656
aVDCC0323
p2657
asVDC004637
p2658
(lp2659
VDCC1149
p2660
aVDCC0216
p2661
aVDCC0348
p2662
aVDCC1477
p2663
asVDC000320
p2664
(lp2665
VDCC0474
p2666
aVDCC0262
p2667
aVDCC0444
p2668
asVDC007089
p2669
(lp2670
VDCC0056
p2671
aVDCC0242
p2672
asVDC005570
p2673
(lp2674
VDCC0072
p2675
aVDCC1613
p2676
aVDCC0106
p2677
asVDC004575
p2678
(lp2679
VDCC0169
p2680
aVDCC0181
p2681
asVDC004490
p2682
(lp2683
VDCC0161
p2684
aVDCC0150
p2685
aVDCC0179
p2686
asVDC003252
p2687
(lp2688
VDCC0075
p2689
aVDCC0214
p2690
asVDC003251
p2691
(lp2692
VDCC1242
p2693
aVDCC1314
p2694
asVDC004025
p2695
(lp2696
VDCC1136
p2697
aVDCC0082
p2698
asVDC004694
p2699
(lp2700
VDCC1478
p2701
aVDCC0342
p2702
asVDC000931
p2703
(lp2704
VDCC1482
p2705
aVDCC0705
p2706
asVDC004578
p2707
(lp2708
VDCC0079
p2709
aVDCC0295
p2710
asVDC001408
p2711
(lp2712
VDCC0290
p2713
aVDCC0700
p2714
asVDC001728
p2715
(lp2716
VDCC0094
p2717
aVDCC0120
p2718
asVDC003176
p2719
(lp2720
VDCC0917
p2721
aVDCC1121
p2722
aVDCC0009
p2723
asVDC002684
p2724
(lp2725
VDCC1666
p2726
aVDCC0240
p2727
aVDCC1390
p2728
asVDC003961
p2729
(lp2730
VDCC0079
p2731
aVDCC1624
p2732
aVDCC0403
p2733
asVDC000264
p2734
(lp2735
VDCC0213
p2736
aVDCC0053
p2737
asVDC000265
p2738
(lp2739
VDCC0111
p2740
aVDCC0366
p2741
asVDC005871
p2742
(lp2743
VDCC1380
p2744
aVDCC0818
p2745
asVDC000428
p2746
(lp2747
VDCC0187
p2748
aVDCC0138
p2749
asVDC004872
p2750
(lp2751
VDCC1454
p2752
aVDCC0868
p2753
asVDC004873
p2754
(lp2755
VDCC1124
p2756
aVDCC0233
p2757
asVDC002846
p2758
(lp2759
VDCC0259
p2760
aVDCC0123
p2761
aVDCC0128
p2762
asVDC001240
p2763
(lp2764
VDCC1361
p2765
aVDCC1595
p2766
asVDC007011
p2767
(lp2768
VDCC0096
p2769
aVDCC0329
p2770
asVDC005774
p2771
(lp2772
VDCC1140
p2773
aVDCC0157
p2774
asVDC001949
p2775
(lp2776
VDCC0096
p2777
aVDCC0329
p2778
aVDCC1120
p2779
asVDC006074
p2780
(lp2781
VDCC0072
p2782
aVDCC0219
p2783
aVDCC1613
p2784
asVDC005501
p2785
(lp2786
VDCC1431
p2787
aVDCC0886
p2788
asVDC002878
p2789
(lp2790
VDCC0789
p2791
aVDCC0323
p2792
asVDC004193
p2793
(lp2794
VDCC0156
p2795
aVDCC0009
p2796
asVDC000439
p2797
(lp2798
VDCC0331
p2799
aVDCC0270
p2800
asVDC000436
p2801
(lp2802
VDCC0331
p2803
aVDCC0015
p2804
asVDC000437
p2805
(lp2806
VDCC0433
p2807
aVDCC0154
p2808
asVDC003000
p2809
(lp2810
VDCC0256
p2811
aVDCC0629
p2812
asVDC000435
p2813
(lp2814
VDCC0258
p2815
aVDCC0192
p2816
asVDC000432
p2817
(lp2818
VDCC0192
p2819
aVDCC0316
p2820
asVDC000433
p2821
(lp2822
VDCC0332
p2823
aVDCC0271
p2824
asVDC000430
p2825
(lp2826
VDCC0157
p2827
aVDCC0276
p2828
asVDC004053
p2829
(lp2830
VDCC0111
p2831
aVDCC0228
p2832
aVDCC0030
p2833
asVDC005715
p2834
(lp2835
VDCC0158
p2836
aVDCC0245
p2837
aVDCC0634
p2838
asVDC006083
p2839
(lp2840
VDCC0096
p2841
aVDCC0295
p2842
aVDCC0117
p2843
asVDC002716
p2844
(lp2845
VDCC0723
p2846
aVDCC1537
p2847
asVDC004379
p2848
(lp2849
VDCC0111
p2850
aVDCC0030
p2851
asVDC001309
p2852
(lp2853
VDCC1584
p2854
aVDCC0738
p2855
asVDC005712
p2856
(lp2857
VDCC0012
p2858
aVDCC1127
p2859
asVDC002485
p2860
(lp2861
VDCC1137
p2862
aVDCC0223
p2863
asVDC001572
p2864
(lp2865
VDCC0348
p2866
aVDCC1477
p2867
asVDC000371
p2868
(lp2869
VDCC0199
p2870
aVDCC0115
p2871
asVDC004931
p2872
(lp2873
VDCC1143
p2874
aVDCC1468
p2875
asVDC002484
p2876
(lp2877
VDCC0652
p2878
aVDCC1353
p2879
asVDC000025
p2880
(lp2881
VDCC0131
p2882
aVDCC0301
p2883
asVDC000397
p2884
(lp2885
VDCC0002
p2886
aVDCC0281
p2887
aVDCC0203
p2888
asVDC000027
p2889
(lp2890
VDCC0021
p2891
aVDCC0240
p2892
aVDCC0310
p2893
asVDC005959
p2894
(lp2895
VDCC0094
p2896
aVDCC0403
p2897
asVDC000021
p2898
(lp2899
VDCC0480
p2900
aVDCC0168
p2901
asVDC000020
p2902
(lp2903
VDCC0289
p2904
aVDCC0282
p2905
asVDC000023
p2906
(lp2907
VDCC0212
p2908
aVDCC0147
p2909
aVDCC0056
p2910
aVDCC0242
p2911
asVDC000022
p2912
(lp2913
VDCC0285
p2914
aVDCC0061
p2915
asVDC003423
p2916
(lp2917
VDCC0043
p2918
aVDCC1238
p2919
aVDCC0920
p2920
asVDC004170
p2921
(lp2922
VDCC0169
p2923
aVDCC0134
p2924
asVDC005488
p2925
(lp2926
VDCC0612
p2927
aVDCC1221
p2928
asVDC000028
p2929
(lp2930
VDCC0443
p2931
aVDCC0159
p2932
aVDCC0200
p2933
asVDC000971
p2934
(lp2935
VDCC0001
p2936
aVDCC0128
p2937
aVDCC0245
p2938
asVDC003290
p2939
(lp2940
VDCC1182
p2941
aVDCC0080
p2942
asVDC003771
p2943
(lp2944
VDCC1240
p2945
aVDCC0319
p2946
asVDC006156
p2947
(lp2948
VDCC1182
p2949
aVDCC1577
p2950
aVDCC0080
p2951
asVDC006406
p2952
(lp2953
VDCC0545
p2954
aVDCC0203
p2955
asVDC004289
p2956
(lp2957
VDCC0331
p2958
aVDCC0315
p2959
asVDC004288
p2960
(lp2961
VDCC0146
p2962
aVDCC0023
p2963
aVDCC0339
p2964
asVDC005802
p2965
(lp2966
VDCC0236
p2967
aVDCC1590
p2968
aVDCC0312
p2969
asVDC001058
p2970
(lp2971
VDCC0351
p2972
aVDCC0045
p2973
aVDCC0114
p2974
aVDCC0225
p2975
asVDC005804
p2976
(lp2977
VDCC0191
p2978
aVDCC0153
p2979
aVDCC0123
p2980
asVDC005472
p2981
(lp2982
VDCC1489
p2983
aVDCC0351
p2984
aVDCC0114
p2985
asVDC001057
p2986
(lp2987
VDCC0001
p2988
aVDCC0120
p2989
aVDCC0128
p2990
aVDCC0162
p2991
asVDC001054
p2992
(lp2993
VDCC0295
p2994
aVDCC0012
p2995
asVDC005093
p2996
(lp2997
VDCC0325
p2998
aVDCC0009
p2999
asVDC001228
p3000
(lp3001
VDCC0288
p3002
aVDCC0123
p3003
aVDCC0009
p3004
asVDC005159
p3005
(lp3006
VDCC0198
p3007
aVDCC0137
p3008
asVDC005096
p3009
(lp3010
VDCC0002
p3011
aVDCC1524
p3012
aVDCC0203
p3013
asVDC000340
p3014
(lp3015
VDCC0079
p3016
aVDCC0245
p3017
asVDC000326
p3018
(lp3019
VDCC0330
p3020
aVDCC0386
p3021
asVDC000420
p3022
(lp3023
VDCC0472
p3024
aVDCC0376
p3025
asVDC005665
p3026
(lp3027
VDCC0016
p3028
aVDCC0325
p3029
aVDCC0103
p3030
asVDC005627
p3031
(lp3032
VDCC1227
p3033
aVDCC0551
p3034
asVDC000119
p3035
(lp3036
VDCC0097
p3037
aVDCC0196
p3038
asVDC000118
p3039
(lp3040
VDCC0246
p3041
aVDCC0373
p3042
asVDC000290
p3043
(lp3044
VDCC0117
p3045
aVDCC0415
p3046
asVDC000291
p3047
(lp3048
VDCC0374
p3049
aVDCC0372
p3050
asVDC000296
p3051
(lp3052
VDCC0016
p3053
aVDCC0412
p3054
asVDC000297
p3055
(lp3056
VDCC0008
p3057
aVDCC0168
p3058
asVDC000294
p3059
(lp3060
VDCC0121
p3061
aVDCC0137
p3062
asVDC000295
p3063
(lp3064
VDCC0016
p3065
aVDCC0361
p3066
asVDC005259
p3067
(lp3068
VDCC1681
p3069
aVDCC0008
p3070
aVDCC0329
p3071
asVDC005258
p3072
(lp3073
VDCC1445
p3074
aVDCC0114
p3075
asVDC000113
p3076
(lp3077
VDCC0152
p3078
aVDCC0029
p3079
asVDC000112
p3080
(lp3081
VDCC0049
p3082
aVDCC0021
p3083
aVDCC0240
p3084
asVDC000115
p3085
(lp3086
VDCC0049
p3087
aVDCC0031
p3088
asVDC000114
p3089
(lp3090
VDCC0220
p3091
aVDCC0172
p3092
asVDC005396
p3093
(lp3094
VDCC0073
p3095
aVDCC0169
p3096
asVDC004307
p3097
(lp3098
VDCC1422
p3099
aVDCC0321
p3100
asVDC000050
p3101
(lp3102
VDCC0260
p3103
aVDCC0137
p3104
asVDC003704
p3105
(lp3106
VDCC0259
p3107
aVDCC0008
p3108
aVDCC0245
p3109
asVDC003707
p3110
(lp3111
VDCC1293
p3112
aVDCC1524
p3113
asVDC000053
p3114
(lp3115
VDCC0352
p3116
aVDCC0052
p3117
aVDCC0413
p3118
asVDC000054
p3119
(lp3120
VDCC0413
p3121
aVDCC0102
p3122
asVDC000055
p3123
(lp3124
VDCC0413
p3125
aVDCC0065
p3126
asVDC003875
p3127
(lp3128
VDCC0247
p3129
aVDCC0251
p3130
aVDCC0240
p3131
asVDC000057
p3132
(lp3133
VDCC0021
p3134
aVDCC0175
p3135
asVDC000058
p3136
(lp3137
VDCC0282
p3138
aVDCC0243
p3139
asVDC000059
p3140
(lp3141
VDCC0069
p3142
aVDCC0100
p3143
asVDC002656
p3144
(lp3145
VDCC0024
p3146
aVDCC0023
p3147
aVDCC0339
p3148
asVDC000509
p3149
(lp3150
VDCC1400
p3151
aVDCC0468
p3152
aVDCC0313
p3153
asVDC002652
p3154
(lp3155
VDCC1197
p3156
aVDCC1098
p3157
aVDCC0316
p3158
asVDC006275
p3159
(lp3160
VDCC0256
p3161
aVDCC1357
p3162
asVDC007304
p3163
(lp3164
VDCC1858
p3165
aVDCC1188
p3166
aVDCC1615
p3167
asVDC007307
p3168
(lp3169
VDCC0266
p3170
aVDCC1844
p3171
asVDC006572
p3172
(lp3173
VDCC0144
p3174
aVDCC0319
p3175
asVDC007301
p3176
(lp3177
VDCC1454
p3178
aVDCC0257
p3179
asVDC007300
p3180
(lp3181
VDCC1852
p3182
aVDCC1838
p3183
asVDC006577
p3184
(lp3185
VDCC0189
p3186
aVDCC0128
p3187
aVDCC0336
p3188
aVDCC0162
p3189
asVDC007302
p3190
(lp3191
VDCC0216
p3192
aVDCC0257
p3193
asVDC000901
p3194
(lp3195
VDCC0290
p3196
aVDCC0250
p3197
asVDC007276
p3198
(lp3199
VDCC0214
p3200
aVDCC0243
p3201
asVDC007309
p3202
(lp3203
VDCC0035
p3204
aVDCC1844
p3205
asVDC007308
p3206
(lp3207
VDCC0093
p3208
aVDCC0266
p3209
aVDCC1844
p3210
asVDC006476
p3211
(lp3212
VDCC1546
p3213
aVDCC0048
p3214
asVDC000123
p3215
(lp3216
VDCC0407
p3217
aVDCC0062
p3218
asVDC000750
p3219
(lp3220
VDCC0859
p3221
aVDCC0157
p3222
asVDC002470
p3223
(lp3224
VDCC0264
p3225
aVDCC1135
p3226
asVDC005521
p3227
(lp3228
VDCC0944
p3229
aVDCC0049
p3230
asVDC004002
p3231
(lp3232
VDCC1345
p3233
aVDCC1524
p3234
asVDC002772
p3235
(lp3236
VDCC1450
p3237
aVDCC0050
p3238
asVDC002777
p3239
(lp3240
VDCC1560
p3241
aVDCC0303
p3242
asVDC006970
p3243
(lp3244
VDCC1680
p3245
aVDCC1124
p3246
asVDC004658
p3247
(lp3248
VDCC0049
p3249
aVDCC0043
p3250
asVDC002774
p3251
(lp3252
VDCC1454
p3253
aVDCC1145
p3254
aVDCC0166
p3255
asVDC007284
p3256
(lp3257
VDCC0184
p3258
aVDCC0187
p3259
asVDC007285
p3260
(lp3261
VDCC1852
p3262
aVDCC1830
p3263
asVDC007286
p3264
(lp3265
VDCC0202
p3266
aVDCC1831
p3267
asVDC007287
p3268
(lp3269
VDCC0075
p3270
aVDCC0282
p3271
asVDC007281
p3272
(lp3273
VDCC0184
p3274
aVDCC1860
p3275
asVDC007283
p3276
(lp3277
VDCC0184
p3278
aVDCC0193
p3279
asVDC001275
p3280
(lp3281
VDCC0331
p3282
aVDCC0260
p3283
aVDCC0014
p3284
asVDC000279
p3285
(lp3286
VDCC0043
p3287
aVDCC0258
p3288
asVDC007288
p3289
(lp3290
VDCC0075
p3291
aVDCC1486
p3292
asVDC001365
p3293
(lp3294
VDCC0770
p3295
aVDCC0329
p3296
asVDC002181
p3297
(lp3298
VDCC1259
p3299
aVDCC1412
p3300
asVDC002205
p3301
(lp3302
VDCC0199
p3303
aVDCC0304
p3304
asVDC000094
p3305
(lp3306
VDCC0408
p3307
aVDCC0320
p3308
asVDC000044
p3309
(lp3310
VDCC0260
p3311
aVDCC0014
p3312
asVDC001372
p3313
(lp3314
VDCC0012
p3315
aVDCC0332
p3316
asVDC000208
p3317
(lp3318
VDCC0353
p3319
aVDCC0190
p3320
asVDC002847
p3321
(lp3322
VDCC0289
p3323
aVDCC1678
p3324
asVDC000095
p3325
(lp3326
VDCC0344
p3327
aVDCC0413
p3328
asVDC000205
p3329
(lp3330
VDCC0298
p3331
aVDCC0214
p3332
asVDC000756
p3333
(lp3334
VDCC1705
p3335
aVDCC0887
p3336
asVDC000207
p3337
(lp3338
VDCC0350
p3339
aVDCC0349
p3340
asVDC000206
p3341
(lp3342
VDCC0298
p3343
aVDCC0243
p3344
asVDC003675
p3345
(lp3346
VDCC1454
p3347
aVDCC1143
p3348
aVDCC0131
p3349
asVDC007220
p3350
(lp3351
VDCC1813
p3352
aVDCC1817
p3353
aVDCC1827
p3354
asVDC004957
p3355
(lp3356
VDCC0351
p3357
aVDCC1726
p3358
aVDCC0114
p3359
asVDC004956
p3360
(lp3361
VDCC0238
p3362
aVDCC1411
p3363
asVDC000616
p3364
(lp3365
VDCC0259
p3366
aVDCC0008
p3367
aVDCC0123
p3368
aVDCC0323
p3369
asVDC006888
p3370
(lp3371
VDCC0131
p3372
aVDCC1564
p3373
asVDC001696
p3374
(lp3375
VDCC0912
p3376
aVDCC0769
p3377
asVDC000286
p3378
(lp3379
VDCC0477
p3380
aVDCC0319
p3381
aVDCC0115
p3382
asVDC000610
p3383
(lp3384
VDCC1396
p3385
aVDCC0223
p3386
asVDC000611
p3387
(lp3388
VDCC0131
p3389
aVDCC0273
p3390
aVDCC0186
p3391
aVDCC1525
p3392
asVDC007271
p3393
(lp3394
VDCC0260
p3395
aVDCC1328
p3396
asVDC007270
p3397
(lp3398
VDCC1852
p3399
aVDCC0337
p3400
asVDC007273
p3401
(lp3402
VDCC1852
p3403
aVDCC0260
p3404
asVDC007272
p3405
(lp3406
VDCC0260
p3407
aVDCC1455
p3408
asVDC007275
p3409
(lp3410
VDCC0243
p3411
aVDCC1845
p3412
asVDC007274
p3413
(lp3414
VDCC0072
p3415
aVDCC0260
p3416
asVDC002270
p3417
(lp3418
VDCC1494
p3419
aVDCC0250
p3420
asVDC000543
p3421
(lp3422
VDCC0223
p3423
aVDCC0173
p3424
asVDC007029
p3425
(lp3426
VDCC0228
p3427
aVDCC0030
p3428
aVDCC0179
p3429
asVDC004000
p3430
(lp3431
VDCC1546
p3432
aVDCC0059
p3433
aVDCC1541
p3434
aVDCC1218
p3435
aVDCC1376
p3436
asVDC001974
p3437
(lp3438
VDCC1548
p3439
aVDCC0100
p3440
asVDC007224
p3441
(lp3442
VDCC1813
p3443
aVDCC0216
p3444
asVDC004005
p3445
(lp3446
VDCC1133
p3447
aVDCC0887
p3448
asVDC007020
p3449
(lp3450
VDCC0073
p3451
aVDCC0270
p3452
asVDC003191
p3453
(lp3454
VDCC0218
p3455
aVDCC0223
p3456
aVDCC0173
p3457
asVDC000093
p3458
(lp3459
VDCC0256
p3460
aVDCC0469
p3461
asVDC001328
p3462
(lp3463
VDCC0079
p3464
aVDCC0128
p3465
asVDC002505
p3466
(lp3467
VDCC0917
p3468
aVDCC0223
p3469
asVDC002507
p3470
(lp3471
VDCC0240
p3472
aVDCC1390
p3473
asVDC003345
p3474
(lp3475
VDCC1493
p3476
aVDCC0023
p3477
aVDCC0339
p3478
asVDC002096
p3479
(lp3480
VDCC1427
p3481
aVDCC0325
p3482
aVDCC0089
p3483
asVDC006753
p3484
(lp3485
VDCC0099
p3486
aVDCC0216
p3487
asVDC000411
p3488
(lp3489
VDCC0136
p3490
aVDCC0154
p3491
asVDC005894
p3492
(lp3493
VDCC0002
p3494
aVDCC0545
p3495
aVDCC0203
p3496
asVDC007261
p3497
(lp3498
VDCC0140
p3499
aVDCC0257
p3500
asVDC001086
p3501
(lp3502
VDCC1489
p3503
aVDCC0281
p3504
aVDCC0114
p3505
aVDCC0179
p3506
asVDC001087
p3507
(lp3508
VDCC1122
p3509
aVDCC0325
p3510
asVDC006904
p3511
(lp3512
VDCC1453
p3513
aVDCC0319
p3514
aVDCC0285
p3515
aVDCC1297
p3516
aVDCC0172
p3517
asVDC003717
p3518
(lp3519
VDCC0601
p3520
aVDCC0290
p3521
asVDC000478
p3522
(lp3523
VDCC0260
p3524
aVDCC0249
p3525
asVDC000479
p3526
(lp3527
VDCC0036
p3528
aVDCC0260
p3529
asVDC000100
p3530
(lp3531
VDCC0281
p3532
aVDCC0179
p3533
asVDC001473
p3534
(lp3535
VDCC0120
p3536
aVDCC0012
p3537
aVDCC0189
p3538
aVDCC0128
p3539
aVDCC0162
p3540
asVDC000472
p3541
(lp3542
VDCC0432
p3543
aVDCC0242
p3544
asVDC000473
p3545
(lp3546
VDCC0264
p3547
aVDCC0180
p3548
asVDC000470
p3549
(lp3550
VDCC0216
p3551
aVDCC0118
p3552
asVDC000471
p3553
(lp3554
VDCC0218
p3555
aVDCC0348
p3556
asVDC000476
p3557
(lp3558
VDCC0260
p3559
aVDCC0181
p3560
asVDC000477
p3561
(lp3562
VDCC0260
p3563
aVDCC0169
p3564
asVDC000474
p3565
(lp3566
VDCC0125
p3567
aVDCC0323
p3568
asVDC000475
p3569
(lp3570
VDCC0259
p3571
aVDCC0080
p3572
asVDC000278
p3573
(lp3574
VDCC0158
p3575
aVDCC0122
p3576
asVDC001904
p3577
(lp3578
VDCC1339
p3579
aVDCC1330
p3580
asVDC000373
p3581
(lp3582
VDCC0471
p3583
aVDCC0323
p3584
asVDC000372
p3585
(lp3586
VDCC0016
p3587
aVDCC0256
p3588
aVDCC0325
p3589
asVDC000375
p3590
(lp3591
VDCC0389
p3592
aVDCC0323
p3593
asVDC001802
p3594
(lp3595
VDCC1354
p3596
aVDCC0184
p3597
aVDCC0849
p3598
asVDC000377
p3599
(lp3600
VDCC0439
p3601
aVDCC0046
p3602
aVDCC0416
p3603
aVDCC0403
p3604
asVDC000376
p3605
(lp3606
VDCC0439
p3607
aVDCC0189
p3608
aVDCC0416
p3609
aVDCC0403
p3610
asVDC000379
p3611
(lp3612
VDCC0068
p3613
aVDCC0170
p3614
asVDC000378
p3615
(lp3616
VDCC0259
p3617
aVDCC0439
p3618
aVDCC0416
p3619
aVDCC0403
p3620
asVDC000956
p3621
(lp3622
VDCC0057
p3623
aVDCC0303
p3624
aVDCC0371
p3625
asVDC000273
p3626
(lp3627
VDCC0012
p3628
aVDCC0323
p3629
asVDC000274
p3630
(lp3631
VDCC0201
p3632
aVDCC0197
p3633
asVDC007050
p3634
(lp3635
VDCC1678
p3636
aVDCC1127
p3637
asVDC000276
p3638
(lp3639
VDCC0272
p3640
aVDCC0241
p3641
asVDC000277
p3642
(lp3643
VDCC0153
p3644
aVDCC0256
p3645
asVDC007158
p3646
(lp3647
VDCC0073
p3648
aVDCC0331
p3649
asVDC000782
p3650
(lp3651
VDCC0112
p3652
aVDCC1210
p3653
asVDC005998
p3654
(lp3655
VDCC0295
p3656
aVDCC0012
p3657
aVDCC0189
p3658
asVDC005449
p3659
(lp3660
VDCC1560
p3661
aVDCC1124
p3662
asVDC003689
p3663
(lp3664
VDCC0657
p3665
aVDCC0276
p3666
asVDC004329
p3667
(lp3668
VDCC0091
p3669
aVDCC0235
p3670
asVDC007013
p3671
(lp3672
VDCC1354
p3673
aVDCC1124
p3674
aVDCC0184
p3675
asVDC004137
p3676
(lp3677
VDCC0318
p3678
aVDCC0285
p3679
aVDCC0235
p3680
aVDCC0061
p3681
asVDC003851
p3682
(lp3683
VDCC0117
p3684
aVDCC0067
p3685
asVDC003132
p3686
(lp3687
VDCC0123
p3688
aVDCC0278
p3689
aVDCC1162
p3690
aVDCC0103
p3691
asVDC000108
p3692
(lp3693
VDCC0011
p3694
aVDCC0223
p3695
asVDC004327
p3696
(lp3697
VDCC0002
p3698
aVDCC0979
p3699
aVDCC0203
p3700
asVDC000980
p3701
(lp3702
VDCC0027
p3703
aVDCC0057
p3704
aVDCC0333
p3705
asVDC001547
p3706
(lp3707
VDCC0640
p3708
aVDCC0009
p3709
asVDC003954
p3710
(lp3711
VDCC0259
p3712
aVDCC0325
p3713
aVDCC0103
p3714
asVDC000421
p3715
(lp3716
VDCC0105
p3717
aVDCC0442
p3718
asVDC003957
p3719
(lp3720
VDCC1707
p3721
aVDCC0156
p3722
asVDC006725
p3723
(lp3724
VDCC1454
p3725
aVDCC0123
p3726
aVDCC0156
p3727
aVDCC1468
p3728
asVDC006726
p3729
(lp3730
VDCC0652
p3731
aVDCC0245
p3732
aVDCC0323
p3733
asVDC007313
p3734
(lp3735
VDCC1852
p3736
aVDCC1846
p3737
asVDC000134
p3738
(lp3739
VDCC0307
p3740
aVDCC0128
p3741
aVDCC0104
p3742
asVDC006759
p3743
(lp3744
VDCC0096
p3745
aVDCC0295
p3746
aVDCC0329
p3747
asVDC005840
p3748
(lp3749
VDCC0008
p3750
aVDCC0295
p3751
aVDCC0128
p3752
aVDCC0117
p3753
asVDC003959
p3754
(lp3755
VDCC0105
p3756
aVDCC1594
p3757
asVDC005843
p3758
(lp3759
VDCC0191
p3760
aVDCC0120
p3761
aVDCC0189
p3762
aVDCC0245
p3763
asVDC001017
p3764
(lp3765
VDCC0001
p3766
aVDCC0329
p3767
asVDC001016
p3768
(lp3769
VDCC0286
p3770
aVDCC0057
p3771
aVDCC0333
p3772
aVDCC0303
p3773
asVDC005921
p3774
(lp3775
VDCC0093
p3776
aVDCC0266
p3777
aVDCC0176
p3778
asVDC001403
p3779
(lp3780
VDCC1719
p3781
aVDCC0240
p3782
asVDC000875
p3783
(lp3784
VDCC1208
p3785
aVDCC0280
p3786
aVDCC0062
p3787
aVDCC0056
p3788
asVDC007018
p3789
(lp3790
VDCC0131
p3791
aVDCC0868
p3792
aVDCC1495
p3793
asVDC001156
p3794
(lp3795
VDCC0001
p3796
aVDCC0128
p3797
aVDCC0117
p3798
aVDCC0245
p3799
asVDC002501
p3800
(lp3801
VDCC0239
p3802
aVDCC0255
p3803
asVDC003351
p3804
(lp3805
VDCC0315
p3806
aVDCC0270
p3807
asVDC007152
p3808
(lp3809
VDCC0073
p3810
aVDCC0260
p3811
aVDCC0014
p3812
asVDC001019
p3813
(lp3814
VDCC1489
p3815
aVDCC0045
p3816
aVDCC0114
p3817
aVDCC0225
p3818
asVDC007317
p3819
(lp3820
VDCC1852
p3821
aVDCC1856
p3822
asVDC002672
p3823
(lp3824
VDCC0096
p3825
aVDCC0123
p3826
aVDCC0329
p3827
aVDCC0012
p3828
asVDC002890
p3829
(lp3830
VDCC0280
p3831
aVDCC1221
p3832
asVDC002891
p3833
(lp3834
VDCC0057
p3835
aVDCC1567
p3836
asVDC005404
p3837
(lp3838
VDCC1143
p3839
aVDCC0011
p3840
asVDC002178
p3841
(lp3842
VDCC0259
p3843
aVDCC1129
p3844
aVDCC0117
p3845
aVDCC0126
p3846
aVDCC0311
p3847
asVDC005743
p3848
(lp3849
VDCC0094
p3850
aVDCC0012
p3851
aVDCC0117
p3852
asVDC000426
p3853
(lp3854
VDCC0258
p3855
aVDCC0132
p3856
asVDC005210
p3857
(lp3858
VDCC1259
p3859
aVDCC0166
p3860
aVDCC0990
p3861
aVDCC1412
p3862
asVDC000155
p3863
(lp3864
VDCC0027
p3865
aVDCC0082
p3866
asVDC004345
p3867
(lp3868
VDCC0278
p3869
aVDCC0156
p3870
aVDCC0240
p3871
aVDCC0103
p3872
asVDC000157
p3873
(lp3874
VDCC0057
p3875
aVDCC0333
p3876
asVDC000156
p3877
(lp3878
VDCC0027
p3879
aVDCC0303
p3880
asVDC000151
p3881
(lp3882
VDCC0267
p3883
aVDCC0057
p3884
asVDC002436
p3885
(lp3886
VDCC0904
p3887
aVDCC0323
p3888
asVDC000153
p3889
(lp3890
VDCC0286
p3891
aVDCC0057
p3892
asVDC000152
p3893
(lp3894
VDCC0021
p3895
aVDCC0240
p3896
aVDCC0346
p3897
asVDC000014
p3898
(lp3899
VDCC0020
p3900
aVDCC0035
p3901
asVDC000015
p3902
(lp3903
VDCC0070
p3904
aVDCC0194
p3905
asVDC000016
p3906
(lp3907
VDCC0166
p3908
aVDCC0040
p3909
asVDC002437
p3910
(lp3911
VDCC0259
p3912
aVDCC0191
p3913
aVDCC1522
p3914
aVDCC1234
p3915
aVDCC0156
p3916
asVDC000010
p3917
(lp3918
VDCC0157
p3919
aVDCC0250
p3920
asVDC000011
p3921
(lp3922
VDCC0252
p3923
aVDCC0207
p3924
asVDC000012
p3925
(lp3926
VDCC0180
p3927
aVDCC0340
p3928
asVDC000013
p3929
(lp3930
VDCC0194
p3931
aVDCC0244
p3932
asVDC007319
p3933
(lp3934
VDCC1854
p3935
aVDCC1256
p3936
asVDC007168
p3937
(lp3938
VDCC1336
p3939
aVDCC0887
p3940
asVDC000344
p3941
(lp3942
VDCC0091
p3943
aVDCC0024
p3944
asVDC001536
p3945
(lp3946
VDCC0295
p3947
aVDCC0123
p3948
asVDC001072
p3949
(lp3950
VDCC0016
p3951
aVDCC0628
p3952
aVDCC0009
p3953
asVDC000088
p3954
(lp3955
VDCC0288
p3956
aVDCC0009
p3957
asVDC002056
p3958
(lp3959
VDCC0351
p3960
aVDCC0114
p3961
aVDCC0802
p3962
asVDC001709
p3963
(lp3964
VDCC1368
p3965
aVDCC1280
p3966
asVDC006122
p3967
(lp3968
VDCC0329
p3969
aVDCC0325
p3970
aVDCC1736
p3971
asVDC000834
p3972
(lp3973
VDCC0158
p3974
aVDCC0329
p3975
aVDCC0117
p3976
asVDC002503
p3977
(lp3978
VDCC1208
p3979
aVDCC0285
p3980
aVDCC1377
p3981
asVDC001575
p3982
(lp3983
VDCC0189
p3984
aVDCC0128
p3985
aVDCC0162
p3986
asVDC005288
p3987
(lp3988
VDCC0793
p3989
aVDCC0907
p3990
asVDC005322
p3991
(lp3992
VDCC0139
p3993
aVDCC0969
p3994
asVDC000327
p3995
(lp3996
VDCC0045
p3997
aVDCC0179
p3998
asVDC007240
p3999
(lp4000
VDCC0325
p4001
aVDCC0193
p4002
aVDCC0257
p4003
asVDC007242
p4004
(lp4005
VDCC0040
p4006
aVDCC0296
p4007
aVDCC1820
p4008
asVDC007243
p4009
(lp4010
VDCC0137
p4011
aVDCC0064
p4012
asVDC005284
p4013
(lp4014
VDCC1488
p4015
aVDCC1498
p4016
asVDC007246
p4017
(lp4018
VDCC0289
p4019
aVDCC0214
p4020
asVDC007247
p4021
(lp4022
VDCC0204
p4023
aVDCC1282
p4024
asVDC007248
p4025
(lp4026
VDCC0166
p4027
aVDCC1825
p4028
asVDC007249
p4029
(lp4030
VDCC0166
p4031
aVDCC1370
p4032
asVDC002155
p4033
(lp4034
VDCC0290
p4035
aVDCC1390
p4036
asVDC007294
p4037
(lp4038
VDCC0794
p4039
aVDCC1381
p4040
asVDC004661
p4041
(lp4042
VDCC1690
p4043
aVDCC0811
p4044
asVDC001571
p4045
(lp4046
VDCC0290
p4047
aVDCC0169
p4048
aVDCC0181
p4049
asVDC005268
p4050
(lp4051
VDCC0295
p4052
aVDCC0117
p4053
aVDCC0148
p4054
asVDC001330
p4055
(lp4056
VDCC0853
p4057
aVDCC0329
p4058
asVDC007177
p4059
(lp4060
VDCC0044
p4061
aVDCC0040
p4062
asVDC002454
p4063
(lp4064
VDCC0040
p4065
aVDCC0224
p4066
asVDC005339
p4067
(lp4068
VDCC1505
p4069
aVDCC0057
p4070
asVDC007165
p4071
(lp4072
VDCC1393
p4073
aVDCC0255
p4074
asVDC003335
p4075
(lp4076
VDCC1681
p4077
aVDCC0008
p4078
asVDC000097
p4079
(lp4080
VDCC0350
p4081
aVDCC0413
p4082
asVDC004971
p4083
(lp4084
VDCC0280
p4085
aVDCC0056
p4086
aVDCC0150
p4087
aVDCC0242
p4088
aVDCC0030
p4089
asVDC000231
p4090
(lp4091
VDCC0008
p4092
aVDCC0067
p4093
asVDC003566
p4094
(lp4095
VDCC0016
p4096
aVDCC1525
p4097
asVDC000120
p4098
(lp4099
VDCC0057
p4100
aVDCC0303
p4101
asVDC000121
p4102
(lp4103
VDCC0057
p4104
aVDCC0233
p4105
asVDC002238
p4106
(lp4107
VDCC1116
p4108
aVDCC1508
p4109
asVDC001577
p4110
(lp4111
VDCC1639
p4112
aVDCC0295
p4113
asVDC000124
p4114
(lp4115
VDCC0396
p4116
aVDCC0406
p4117
asVDC000125
p4118
(lp4119
VDCC0378
p4120
aVDCC0060
p4121
asVDC000126
p4122
(lp4123
VDCC0105
p4124
aVDCC0399
p4125
asVDC000127
p4126
(lp4127
VDCC0378
p4128
aVDCC0064
p4129
asVDC003734
p4130
(lp4131
VDCC1149
p4132
aVDCC0218
p4133
aVDCC0348
p4134
asVDC000129
p4135
(lp4136
VDCC0280
p4137
aVDCC0407
p4138
aVDCC0062
p4139
asVDC007166
p4140
(lp4141
VDCC1722
p4142
aVDCC0047
p4143
asVDC000236
p4144
(lp4145
VDCC0008
p4146
aVDCC0245
p4147
asVDC000002
p4148
(lp4149
VDCC0216
p4150
aVDCC0199
p4151
asVDC000087
p4152
(lp4153
VDCC0073
p4154
aVDCC0292
p4155
asVDC007234
p4156
(lp4157
VDCC1852
p4158
aVDCC0047
p4159
asVDC007237
p4160
(lp4161
VDCC1816
p4162
aVDCC0260
p4163
asVDC000084
p4164
(lp4165
VDCC0329
p4166
aVDCC0128
p4167
aVDCC0117
p4168
asVDC000083
p4169
(lp4170
VDCC0357
p4171
aVDCC0404
p4172
asVDC007230
p4173
(lp4174
VDCC0298
p4175
aVDCC1845
p4176
asVDC007233
p4177
(lp4178
VDCC0036
p4179
aVDCC0047
p4180
asVDC007232
p4181
(lp4182
VDCC0136
p4183
aVDCC0047
p4184
asVDC000090
p4185
(lp4186
VDCC0435
p4187
aVDCC0408
p4188
asVDC000245
p4189
(lp4190
VDCC0075
p4191
aVDCC0254
p4192
asVDC007239
p4193
(lp4194
VDCC0325
p4195
aVDCC0257
p4196
asVDC007238
p4197
(lp4198
VDCC1816
p4199
aVDCC1838
p4200
asVDC000089
p4201
(lp4202
VDCC0008
p4203
aVDCC0050
p4204
asVDC000374
p4205
(lp4206
VDCC0369
p4207
aVDCC0323
p4208
asVDC002049
p4209
(lp4210
VDCC0057
p4211
aVDCC1690
p4212
asVDC007189
p4213
(lp4214
VDCC0195
p4215
aVDCC0184
p4216
asVDC007060
p4217
(lp4218
VDCC0094
p4219
aVDCC0329
p4220
asVDC007061
p4221
(lp4222
VDCC0006
p4223
aVDCC1461
p4224
aVDCC1121
p4225
asVDC007062
p4226
(lp4227
VDCC0296
p4228
aVDCC0240
p4229
asVDC002423
p4230
(lp4231
VDCC0932
p4232
aVDCC0323
p4233
asVDC003124
p4234
(lp4235
VDCC0045
p4236
aVDCC0802
p4237
aVDCC0179
p4238
asVDC007146
p4239
(lp4240
VDCC0012
p4241
aVDCC1678
p4242
asVDC004769
p4243
(lp4244
VDCC1144
p4245
aVDCC0002
p4246
aVDCC0203
p4247
asVDC000270
p4248
(lp4249
VDCC0124
p4250
aVDCC0279
p4251
asVDC000480
p4252
(lp4253
VDCC0073
p4254
aVDCC0014
p4255
asVDC000091
p4256
(lp4257
VDCC0318
p4258
aVDCC0285
p4259
aVDCC0385
p4260
asVDC006823
p4261
(lp4262
VDCC0295
p4263
aVDCC0120
p4264
aVDCC0332
p4265
asVDC000898
p4266
(lp4267
VDCC0949
p4268
aVDCC0123
p4269
aVDCC0126
p4270
aVDCC0156
p4271
aVDCC0009
p4272
asVDC003492
p4273
(lp4274
VDCC0288
p4275
aVDCC0123
p4276
aVDCC1106
p4277
asVDC000272
p4278
(lp4279
VDCC0191
p4280
aVDCC0456
p4281
asVDC000486
p4282
(lp4283
VDCC0481
p4284
aVDCC0376
p4285
asVDC003129
p4286
(lp4287
VDCC0278
p4288
aVDCC1471
p4289
asVDC007188
p4290
(lp4291
VDCC1662
p4292
aVDCC1486
p4293
asVDC002973
p4294
(lp4295
VDCC1489
p4296
aVDCC0045
p4297
aVDCC0494
p4298
aVDCC0225
p4299
asVDC000339
p4300
(lp4301
VDCC0027
p4302
aVDCC0057
p4303
aVDCC0082
p4304
asVDC000338
p4305
(lp4306
VDCC0306
p4307
aVDCC0177
p4308
asVDC002977
p4309
(lp4310
VDCC0259
p4311
aVDCC0008
p4312
aVDCC0123
p4313
aVDCC0329
p4314
aVDCC0245
p4315
asVDC001201
p4316
(lp4317
VDCC0288
p4318
aVDCC0278
p4319
aVDCC1471
p4320
asVDC000335
p4321
(lp4322
VDCC0295
p4323
aVDCC0120
p4324
asVDC000334
p4325
(lp4326
VDCC0050
p4327
aVDCC0400
p4328
asVDC000337
p4329
(lp4330
VDCC0430
p4331
aVDCC0323
p4332
asVDC003089
p4333
(lp4334
VDCC0218
p4335
aVDCC0223
p4336
asVDC000331
p4337
(lp4338
VDCC0148
p4339
aVDCC0384
p4340
asVDC001187
p4341
(lp4342
VDCC0164
p4343
aVDCC0314
p4344
asVDC002876
p4345
(lp4346
VDCC1288
p4347
aVDCC1556
p4348
asVDC001908
p4349
(lp4350
VDCC1680
p4351
aVDCC0057
p4352
aVDCC0303
p4353
asVDC000234
p4354
(lp4355
VDCC0445
p4356
aVDCC0382
p4357
asVDC000235
p4358
(lp4359
VDCC0072
p4360
aVDCC0164
p4361
asVDC004962
p4362
(lp4363
VDCC0131
p4364
aVDCC1676
p4365
asVDC000237
p4366
(lp4367
VDCC0093
p4368
aVDCC0266
p4369
asVDC000230
p4370
(lp4371
VDCC0329
p4372
aVDCC0088
p4373
asVDC004965
p4374
(lp4375
VDCC0259
p4376
aVDCC0325
p4377
aVDCC0369
p4378
asVDC000232
p4379
(lp4380
VDCC0414
p4381
aVDCC0311
p4382
asVDC000233
p4383
(lp4384
VDCC0008
p4385
aVDCC0123
p4386
asVDC000438
p4387
(lp4388
VDCC0231
p4389
aVDCC0258
p4390
asVDC004618
p4391
(lp4392
VDCC0290
p4393
aVDCC0157
p4394
asVDC000238
p4395
(lp4396
VDCC0072
p4397
aVDCC0314
p4398
asVDC000239
p4399
(lp4400
VDCC0215
p4401
aVDCC0411
p4402
asVDC005783
p4403
(lp4404
VDCC1384
p4405
aVDCC1599
p4406
asVDC001841
p4407
(lp4408
VDCC0295
p4409
aVDCC0012
p4410
aVDCC0128
p4411
aVDCC0117
p4412
asVDC000321
p4413
(lp4414
VDCC0448
p4415
aVDCC0152
p4416
asVDC003304
p4417
(lp4418
VDCC0026
p4419
aVDCC1035
p4420
asVDC001518
p4421
(lp4422
VDCC1637
p4423
aVDCC0111
p4424
aVDCC0179
p4425
asVDC004469
p4426
(lp4427
VDCC0779
p4428
aVDCC0027
p4429
aVDCC0057
p4430
aVDCC0303
p4431
aVDCC0082
p4432
asVDC003521
p4433
(lp4434
VDCC0093
p4435
aVDCC0266
p4436
aVDCC0242
p4437
asVDC003062
p4438
(lp4439
VDCC1112
p4440
aVDCC0080
p4441
asVDC007173
p4442
(lp4443
VDCC0057
p4444
aVDCC0885
p4445
asVDC003066
p4446
(lp4447
VDCC0085
p4448
aVDCC0174
p4449
asVDC001750
p4450
(lp4451
VDCC1745
p4452
aVDCC0325
p4453
asVDC003991
p4454
(lp4455
VDCC0290
p4456
aVDCC0157
p4457
aVDCC0250
p4458
asVDC000275
p4459
(lp4460
VDCC0189
p4461
aVDCC0050
p4462
asVDC005582
p4463
(lp4464
VDCC1422
p4465
aVDCC0321
p4466
aVDCC0255
p4467
asVDC006480
p4468
(lp4469
VDCC0295
p4470
aVDCC0120
p4471
aVDCC0189
p4472
asVDC003997
p4473
(lp4474
VDCC0280
p4475
aVDCC0062
p4476
aVDCC0056
p4477
aVDCC0150
p4478
aVDCC0242
p4479
aVDCC0179
p4480
asVDC006217
p4481
(lp4482
VDCC0082
p4483
aVDCC0811
p4484
asVDC000213
p4485
(lp4486
VDCC0051
p4487
aVDCC0214
p4488
aVDCC0087
p4489
asVDC006767
p4490
(lp4491
VDCC0228
p4492
aVDCC0150
p4493
aVDCC0179
p4494
asVDC002264
p4495
(lp4496
VDCC1466
p4497
aVDCC1040
p4498
asVDC002154
p4499
(lp4500
VDCC1454
p4501
aVDCC1143
p4502
aVDCC1468
p4503
asVDC000167
p4504
(lp4505
VDCC0475
p4506
aVDCC0117
p4507
aVDCC0420
p4508
asVDC000150
p4509
(lp4510
VDCC0354
p4511
aVDCC0375
p4512
asVDC001444
p4513
(lp4514
VDCC0908
p4515
aVDCC0252
p4516
aVDCC1136
p4517
asVDC004864
p4518
(lp4519
VDCC0139
p4520
aVDCC0216
p4521
asVDC003645
p4522
(lp4523
VDCC1353
p4524
aVDCC0204
p4525
asVDC004057
p4526
(lp4527
VDCC0259
p4528
aVDCC1234
p4529
aVDCC0009
p4530
aVDCC1417
p4531
aVDCC1321
p4532
asVDC001443
p4533
(lp4534
VDCC0045
p4535
aVDCC0225
p4536
aVDCC0030
p4537
asVDC001523
p4538
(lp4539
VDCC1020
p4540
aVDCC0323
p4541
asVDC000349
p4542
(lp4543
VDCC0072
p4544
aVDCC0106
p4545
asVDC000423
p4546
(lp4547
VDCC0129
p4548
aVDCC0048
p4549
asVDC003395
p4550
(lp4551
VDCC0134
p4552
aVDCC1386
p4553
asVDC000425
p4554
(lp4555
VDCC0048
p4556
aVDCC0258
p4557
asVDC001830
p4558
(lp4559
VDCC0094
p4560
aVDCC1555
p4561
aVDCC0189
p4562
asVDC000427
p4563
(lp4564
VDCC0113
p4565
aVDCC0241
p4566
asVDC001296
p4567
(lp4568
VDCC1381
p4569
aVDCC1108
p4570
asVDC000429
p4571
(lp4572
VDCC0187
p4573
aVDCC0196
p4574
asVDC002449
p4575
(lp4576
VDCC0002
p4577
aVDCC1648
p4578
aVDCC0203
p4579
asVDC000342
p4580
(lp4581
VDCC0012
p4582
aVDCC0336
p4583
asVDC000343
p4584
(lp4585
VDCC0077
p4586
aVDCC0255
p4587
asVDC003011
p4588
(lp4589
VDCC0259
p4590
aVDCC0094
p4591
aVDCC0123
p4592
aVDCC0323
p4593
asVDC000345
p4594
(lp4595
VDCC0072
p4596
aVDCC0230
p4597
asVDC001932
p4598
(lp4599
VDCC0269
p4600
aVDCC0270
p4601
asVDC000347
p4602
(lp4603
VDCC0325
p4604
aVDCC0462
p4605
asVDC000160
p4606
(lp4607
VDCC0232
p4608
aVDCC0138
p4609
asVDC005314
p4610
(lp4611
VDCC0001
p4612
aVDCC0120
p4613
aVDCC0329
p4614
asVDC005702
p4615
(lp4616
VDCC1231
p4617
aVDCC1293
p4618
aVDCC1524
p4619
aVDCC1414
p4620
asVDC005319
p4621
(lp4622
VDCC0295
p4623
aVDCC0634
p4624
asVDC005323
p4625
(lp4626
VDCC0296
p4627
aVDCC1046
p4628
asVDC007277
p4629
(lp4630
VDCC0184
p4631
aVDCC0257
p4632
asVDC001340
p4633
(lp4634
VDCC1688
p4635
aVDCC0094
p4636
asVDC004263
p4637
(lp4638
VDCC0247
p4639
aVDCC1390
p4640
asVDC000444
p4641
(lp4642
VDCC0437
p4643
aVDCC0348
p4644
asVDC005250
p4645
(lp4646
VDCC1207
p4647
aVDCC0306
p4648
aVDCC1498
p4649
asVDC004149
p4650
(lp4651
VDCC1481
p4652
aVDCC1465
p4653
asVDC000009
p4654
(lp4655
VDCC0343
p4656
aVDCC0194
p4657
asVDC002521
p4658
(lp4659
VDCC1149
p4660
aVDCC0223
p4661
asVDC000504
p4662
(lp4663
VDCC0199
p4664
aVDCC0083
p4665
asVDC000161
p4666
(lp4667
VDCC0017
p4668
aVDCC0110
p4669
aVDCC0326
p4670
asVDC002202
p4671
(lp4672
VDCC0077
p4673
aVDCC0239
p4674
asVDC000204
p4675
(lp4676
VDCC0259
p4677
aVDCC0323
p4678
asVDC002016
p4679
(lp4680
VDCC0123
p4681
aVDCC0016
p4682
aVDCC0277
p4683
aVDCC0325
p4684
asVDC002017
p4685
(lp4686
VDCC0859
p4687
aVDCC0290
p4688
asVDC004309
p4689
(lp4690
VDCC0294
p4691
aVDCC1542
p4692
asVDC001885
p4693
(lp4694
VDCC0008
p4695
aVDCC0012
p4696
aVDCC0332
p4697
asVDC006001
p4698
(lp4699
VDCC1628
p4700
aVDCC0012
p4701
asVDC004991
p4702
(lp4703
VDCC0319
p4704
aVDCC0235
p4705
asVDC006002
p4706
(lp4707
VDCC0093
p4708
aVDCC0266
p4709
aVDCC0124
p4710
asVDC005791
p4711
(lp4712
VDCC0131
p4713
aVDCC0868
p4714
asVDC000137
p4715
(lp4716
VDCC0273
p4717
aVDCC0024
p4718
asVDC004818
p4719
(lp4720
VDCC1244
p4721
aVDCC1329
p4722
asVDC002701
p4723
(lp4724
VDCC0122
p4725
aVDCC0329
p4726
asVDC003269
p4727
(lp4728
VDCC0057
p4729
aVDCC1133
p4730
aVDCC0741
p4731
asVDC001461
p4732
(lp4733
VDCC0131
p4734
aVDCC1692
p4735
asVDC005184
p4736
(lp4737
VDCC0073
p4738
aVDCC0260
p4739
asVDC005362
p4740
(lp4741
VDCC0306
p4742
aVDCC1524
p4743
asVDC003262
p4744
(lp4745
VDCC0001
p4746
aVDCC0117
p4747
aVDCC0067
p4748
asVDC000191
p4749
(lp4750
VDCC0061
p4751
aVDCC0341
p4752
asVDC005818
p4753
(lp4754
VDCC1112
p4755
aVDCC1267
p4756
asVDC005400
p4757
(lp4758
VDCC0318
p4759
aVDCC0285
p4760
aVDCC0235
p4761
asVDC000758
p4762
(lp4763
VDCC0191
p4764
aVDCC1121
p4765
aVDCC1120
p4766
aVDCC0009
p4767
aVDCC0311
p4768
asVDC000410
p4769
(lp4770
VDCC0394
p4771
aVDCC0256
p4772
asVDC006260
p4773
(lp4774
VDCC1454
p4775
aVDCC1145
p4776
aVDCC0166
p4777
aVDCC0184
p4778
asVDC000211
p4779
(lp4780
VDCC0272
p4781
aVDCC0342
p4782
asVDC007236
p4783
(lp4784
VDCC1851
p4785
aVDCC1815
p4786
asVDC000341
p4787
(lp4788
VDCC0123
p4789
aVDCC0323
p4790
asVDC000018
p4791
(lp4792
VDCC0166
p4793
aVDCC0044
p4794
asVDC006181
p4795
(lp4796
VDCC0129
p4797
aVDCC1367
p4798
asVDC000008
p4799
(lp4800
VDCC0343
p4801
aVDCC0252
p4802
asVDC004823
p4803
(lp4804
VDCC0131
p4805
aVDCC0157
p4806
aVDCC1676
p4807
asVDC005141
p4808
(lp4809
VDCC1443
p4810
aVDCC0048
p4811
aVDCC0245
p4812
asVDC005636
p4813
(lp4814
VDCC0094
p4815
aVDCC1555
p4816
aVDCC0295
p4817
aVDCC0120
p4818
asVDC000285
p4819
(lp4820
VDCC0216
p4821
aVDCC0251
p4822
asVDC000284
p4823
(lp4824
VDCC0073
p4825
aVDCC0197
p4826
asVDC000287
p4827
(lp4828
VDCC0365
p4829
aVDCC0034
p4830
asVDC002367
p4831
(lp4832
VDCC0123
p4833
aVDCC0016
p4834
aVDCC0325
p4835
aVDCC0103
p4836
asVDC000168
p4837
(lp4838
VDCC0236
p4839
aVDCC0312
p4840
asVDC000169
p4841
(lp4842
VDCC0275
p4843
aVDCC0117
p4844
asVDC000283
p4845
(lp4846
VDCC0303
p4847
aVDCC0421
p4848
asVDC000282
p4849
(lp4850
VDCC0146
p4851
aVDCC0464
p4852
asVDC000164
p4853
(lp4854
VDCC0214
p4855
aVDCC0063
p4856
asVDC000165
p4857
(lp4858
VDCC0280
p4859
aVDCC0173
p4860
asVDC000166
p4861
(lp4862
VDCC0450
p4863
aVDCC0170
p4864
asVDC000743
p4865
(lp4866
VDCC1231
p4867
aVDCC1541
p4868
aVDCC0100
p4869
asVDC000289
p4870
(lp4871
VDCC0283
p4872
aVDCC0137
p4873
asVDC005651
p4874
(lp4875
VDCC0043
p4876
aVDCC0320
p4877
asVDC000162
p4878
(lp4879
VDCC0232
p4880
aVDCC0171
p4881
asVDC000163
p4882
(lp4883
VDCC0282
p4884
aVDCC0298
p4885
aVDCC0214
p4886
asVDC004178
p4887
(lp4888
VDCC0256
p4889
aVDCC1357
p4890
aVDCC0386
p4891
asVDC000623
p4892
(lp4893
VDCC1680
p4894
aVDCC0082
p4895
asVDC000041
p4896
(lp4897
VDCC0240
p4898
aVDCC0346
p4899
asVDC000387
p4900
(lp4901
VDCC0451
p4902
aVDCC0186
p4903
asVDC000047
p4904
(lp4905
VDCC0119
p4906
aVDCC0165
p4907
asVDC000046
p4908
(lp4909
VDCC0269
p4910
aVDCC0137
p4911
asVDC000019
p4912
(lp4913
VDCC0166
p4914
aVDCC0417
p4915
asVDC003841
p4916
(lp4917
VDCC1334
p4918
aVDCC0187
p4919
aVDCC0338
p4920
asVDC000720
p4921
(lp4922
VDCC1259
p4923
aVDCC1614
p4924
asVDC003477
p4925
(lp4926
VDCC1235
p4927
aVDCC0009
p4928
asVDC000049
p4929
(lp4930
VDCC0260
p4931
aVDCC0222
p4932
asVDC007254
p4933
(lp4934
VDCC0908
p4935
aVDCC0552
p4936
asVDC000519
p4937
(lp4938
VDCC1478
p4939
aVDCC1474
p4940
asVDC000052
p4941
(lp4942
VDCC0091
p4943
aVDCC0107
p4944
asVDC000441
p4945
(lp4946
VDCC0129
p4947
aVDCC0037
p4948
asVDC000416
p4949
(lp4950
VDCC0398
p4951
aVDCC0018
p4952
asVDC000192
p4953
(lp4954
VDCC0143
p4955
aVDCC0193
p4956
asVDC001080
p4957
(lp4958
VDCC1560
p4959
aVDCC0057
p4960
asVDC002088
p4961
(lp4962
VDCC0001
p4963
aVDCC0122
p4964
aVDCC0012
p4965
asVDC001440
p4966
(lp4967
VDCC1744
p4968
aVDCC0240
p4969
asVDC005733
p4970
(lp4971
VDCC0216
p4972
aVDCC0278
p4973
aVDCC0277
p4974
asVDC002081
p4975
(lp4976
VDCC0009
p4977
aVDCC0103
p4978
asVDC006509
p4979
(lp4980
VDCC0329
p4981
aVDCC0330
p4982
asVDC002493
p4983
(lp4984
VDCC1132
p4985
aVDCC1133
p4986
asVDC003697
p4987
(lp4988
VDCC1628
p4989
aVDCC1165
p4990
aVDCC1417
p4991
asVDC002827
p4992
(lp4993
VDCC1181
p4994
aVDCC0585
p4995
aVDCC0013
p4996
aVDCC0520
p4997
asVDC003646
p4998
(lp4999
VDCC0769
p5000
aVDCC0023
p5001
aVDCC0339
p5002
asVDC004047
p5003
(lp5004
VDCC1444
p5005
aVDCC0057
p5006
asVDC006144
p5007
(lp5008
VDCC0859
p5009
aVDCC0276
p5010
asVDC002749
p5011
(lp5012
VDCC0139
p5013
aVDCC1446
p5014
aVDCC1285
p5015
asVDC004483
p5016
(lp5017
VDCC0303
p5018
aVDCC0240
p5019
asVDC005559
p5020
(lp5021
VDCC0012
p5022
aVDCC0189
p5023
aVDCC0245
p5024
asVDC002745
p5025
(lp5026
VDCC0094
p5027
aVDCC0245
p5028
asVDC007216
p5029
(lp5030
VDCC1705
p5031
aVDCC1579
p5032
aVDCC0237
p5033
asVDC007245
p5034
(lp5035
VDCC0289
p5036
aVDCC0196
p5037
asVDC002741
p5038
(lp5039
VDCC1682
p5040
aVDCC0055
p5041
asVDC007297
p5042
(lp5043
VDCC0186
p5044
aVDCC1836
p5045
asVDC007296
p5046
(lp5047
VDCC0287
p5048
aVDCC1284
p5049
asVDC006865
p5050
(lp5051
VDCC0008
p5052
aVDCC0329
p5053
aVDCC0012
p5054
asVDC006864
p5055
(lp5056
VDCC0139
p5057
aVDCC1131
p5058
asVDC007293
p5059
(lp5060
VDCC0211
p5061
aVDCC0959
p5062
asVDC007292
p5063
(lp5064
VDCC0040
p5065
aVDCC0143
p5066
asVDC007291
p5067
(lp5068
VDCC0373
p5069
aVDCC1847
p5070
aVDCC1370
p5071
asVDC000755
p5072
(lp5073
VDCC0012
p5074
aVDCC0189
p5075
aVDCC0128
p5076
asVDC004617
p5077
(lp5078
VDCC1423
p5079
aVDCC0174
p5080
asVDC003590
p5081
(lp5082
VDCC0893
p5083
aVDCC1500
p5084
aVDCC0083
p5085
asVDC000594
p5086
(lp5087
VDCC0001
p5088
aVDCC0094
p5089
asVDC007299
p5090
(lp5091
VDCC1838
p5092
aVDCC1842
p5093
asVDC007298
p5094
(lp5095
VDCC1841
p5096
aVDCC0340
p5097
asVDC000762
p5098
(lp5099
VDCC1489
p5100
aVDCC1658
p5101
aVDCC0114
p5102
asVDC002836
p5103
(lp5104
VDCC0252
p5105
aVDCC0180
p5106
asVDC000581
p5107
(lp5108
VDCC0259
p5109
aVDCC0191
p5110
aVDCC0123
p5111
aVDCC0126
p5112
aVDCC0009
p5113
asVDC000766
p5114
(lp5115
VDCC1149
p5116
aVDCC0011
p5117
aVDCC0173
p5118
asVDC007199
p5119
(lp5120
VDCC1191
p5121
aVDCC0240
p5122
asVDC000764
p5123
(lp5124
VDCC0784
p5125
aVDCC0203
p5126
asVDC007320
p5127
(lp5128
VDCC1853
p5129
aVDCC0155
p5130
aVDCC1861
p5131
asVDC002342
p5132
(lp5133
VDCC0158
p5134
aVDCC0012
p5135
aVDCC0117
p5136
asVDC007195
p5137
(lp5138
VDCC0240
p5139
aVDCC0031
p5140
asVDC007196
p5141
(lp5142
VDCC0160
p5143
aVDCC0021
p5144
aVDCC0240
p5145
asVDC007197
p5146
(lp5147
VDCC0243
p5148
aVDCC0240
p5149
asVDC007191
p5150
(lp5151
VDCC1704
p5152
aVDCC1834
p5153
asVDC007193
p5154
(lp5155
VDCC0272
p5156
aVDCC0083
p5157
asVDC000561
p5158
(lp5159
VDCC0014
p5160
aVDCC1374
p5161
asVDC001326
p5162
(lp5163
VDCC0164
p5164
aVDCC0106
p5165
asVDC007208
p5166
(lp5167
VDCC0040
p5168
aVDCC0151
p5169
aVDCC0193
p5170
aVDCC0257
p5171
asVDC000754
p5172
(lp5173
VDCC0259
p5174
aVDCC0008
p5175
aVDCC0904
p5176
aVDCC0123
p5177
aVDCC0323
p5178
asVDC000566
p5179
(lp5180
VDCC0096
p5181
aVDCC0123
p5182
aVDCC0329
p5183
aVDCC0332
p5184
asVDC007186
p5185
(lp5186
VDCC0045
p5187
aVDCC1727
p5188
aVDCC0225
p5189
asVDC000159
p5190
(lp5191
VDCC0017
p5192
aVDCC0326
p5193
asVDC007205
p5194
(lp5195
VDCC1459
p5196
aVDCC0139
p5197
asVDC007206
p5198
(lp5199
VDCC1857
p5200
aVDCC0024
p5201
asVDC007200
p5202
(lp5203
VDCC0160
p5204
aVDCC0240
p5205
asVDC007201
p5206
(lp5207
VDCC1819
p5208
aVDCC0135
p5209
asVDC003321
p5210
(lp5211
VDCC0259
p5212
aVDCC0123
p5213
aVDCC0126
p5214
aVDCC0156
p5215
aVDCC1084
p5216
asVDC007203
p5217
(lp5218
VDCC0135
p5219
aVDCC1284
p5220
asVDC006727
p5221
(lp5222
VDCC0259
p5223
aVDCC0620
p5224
asVDC001975
p5225
(lp5226
VDCC0329
p5227
aVDCC0050
p5228
asVDC003295
p5229
(lp5230
VDCC1686
p5231
aVDCC1542
p5232
aVDCC0171
p5233
asVDC006475
p5234
(lp5235
VDCC0236
p5236
aVDCC0177
p5237
asVDC004030
p5238
(lp5239
VDCC1149
p5240
aVDCC0218
p5241
aVDCC1693
p5242
aVDCC0173
p5243
asVDC000779
p5244
(lp5245
VDCC1450
p5246
aVDCC0410
p5247
asVDC001969
p5248
(lp5249
VDCC1743
p5250
aVDCC0057
p5251
asVDC007303
p5252
(lp5253
VDCC0149
p5254
aVDCC0257
p5255
asVDC003186
p5256
(lp5257
VDCC0094
p5258
aVDCC0323
p5259
asVDC003185
p5260
(lp5261
VDCC0450
p5262
aVDCC1587
p5263
asVDC007182
p5264
(lp5265
VDCC0037
p5266
aVDCC1199
p5267
asVDC000418
p5268
(lp5269
VDCC0350
p5270
aVDCC0200
p5271
asVDC002248
p5272
(lp5273
VDCC1546
p5274
aVDCC1574
p5275
asVDC007312
p5276
(lp5277
VDCC1285
p5278
aVDCC1846
p5279
asVDC003611
p5280
(lp5281
VDCC0003
p5282
aVDCC0764
p5283
aVDCC0203
p5284
asVDC003737
p5285
(lp5286
VDCC0285
p5287
aVDCC0832
p5288
aVDCC1334
p5289
aVDCC0190
p5290
aVDCC1377
p5291
asVDC001689
p5292
(lp5293
VDCC0097
p5294
aVDCC0321
p5295
asVDC001097
p5296
(lp5297
VDCC0139
p5298
aVDCC0099
p5299
aVDCC0239
p5300
asVDC001095
p5301
(lp5302
VDCC0259
p5303
aVDCC0295
p5304
aVDCC0123
p5305
aVDCC0329
p5306
aVDCC0012
p5307
asVDC001093
p5308
(lp5309
VDCC0329
p5310
aVDCC0330
p5311
aVDCC0156
p5312
asVDC001090
p5313
(lp5314
VDCC0111
p5315
aVDCC0351
p5316
aVDCC0228
p5317
aVDCC0114
p5318
aVDCC0030
p5319
asVDC000026
p5320
(lp5321
VDCC0299
p5322
aVDCC0302
p5323
asVDC002949
p5324
(lp5325
VDCC0787
p5326
aVDCC1417
p5327
asVDC000469
p5328
(lp5329
VDCC0426
p5330
aVDCC0323
p5331
asVDC003773
p5332
(lp5333
VDCC0045
p5334
aVDCC0802
p5335
aVDCC0225
p5336
asVDC004972
p5337
(lp5338
VDCC1781
p5339
aVDCC0938
p5340
asVDC001567
p5341
(lp5342
VDCC0049
p5343
aVDCC0221
p5344
aVDCC0285
p5345
aVDCC0214
p5346
aVDCC0116
p5347
asVDC004926
p5348
(lp5349
VDCC1293
p5350
aVDCC0258
p5351
asVDC000467
p5352
(lp5353
VDCC0259
p5354
aVDCC0426
p5355
asVDC003148
p5356
(lp5357
VDCC0348
p5358
aVDCC1390
p5359
asVDC000461
p5360
(lp5361
VDCC0182
p5362
aVDCC0243
p5363
asVDC001562
p5364
(lp5365
VDCC0206
p5366
aVDCC1353
p5367
asVDC000463
p5368
(lp5369
VDCC0073
p5370
aVDCC0038
p5371
asVDC000725
p5372
(lp5373
VDCC0295
p5374
aVDCC0323
p5375
asVDC003110
p5376
(lp5377
VDCC1207
p5378
aVDCC0100
p5379
asVDC001647
p5380
(lp5381
VDCC0464
p5382
aVDCC0066
p5383
asVDC001396
p5384
(lp5385
VDCC1740
p5386
aVDCC0062
p5387
asVDC000307
p5388
(lp5389
VDCC0012
p5390
aVDCC0245
p5391
aVDCC0323
p5392
asVDC000300
p5393
(lp5394
VDCC0354
p5395
aVDCC0377
p5396
asVDC004727
p5397
(lp5398
VDCC0123
p5399
aVDCC0325
p5400
aVDCC0103
p5401
asVDC004724
p5402
(lp5403
VDCC1755
p5404
aVDCC0171
p5405
asVDC003117
p5406
(lp5407
VDCC1577
p5408
aVDCC1589
p5409
aVDCC1363
p5410
asVDC000263
p5411
(lp5412
VDCC0405
p5413
aVDCC0170
p5414
asVDC000262
p5415
(lp5416
VDCC0397
p5417
aVDCC0367
p5418
asVDC003619
p5419
(lp5420
VDCC0050
p5421
aVDCC0157
p5422
asVDC000260
p5423
(lp5424
VDCC0007
p5425
aVDCC0131
p5426
asVDC000308
p5427
(lp5428
VDCC0092
p5429
aVDCC0328
p5430
asVDC000309
p5431
(lp5432
VDCC0259
p5433
aVDCC0123
p5434
aVDCC0126
p5435
aVDCC0156
p5436
aVDCC0009
p5437
asVDC003509
p5438
(lp5439
VDCC1520
p5440
aVDCC0240
p5441
aVDCC1390
p5442
asVDC000422
p5443
(lp5444
VDCC0361
p5445
aVDCC0148
p5446
asVDC005981
p5447
(lp5448
VDCC0152
p5449
aVDCC0157
p5450
aVDCC0250
p5451
asVDC004459
p5452
(lp5453
VDCC0114
p5454
aVDCC1552
p5455
asVDC005450
p5456
(lp5457
VDCC1200
p5458
aVDCC0161
p5459
aVDCC0030
p5460
aVDCC0179
p5461
asVDC007219
p5462
(lp5463
VDCC0319
p5464
aVDCC0040
p5465
asVDC000417
p5466
(lp5467
VDCC0280
p5468
aVDCC0228
p5469
aVDCC0114
p5470
aVDCC0242
p5471
aVDCC0324
p5472
aVDCC0179
p5473
asVDC003331
p5474
(lp5475
VDCC0304
p5476
aVDCC0156
p5477
asVDC004100
p5478
(lp5479
VDCC0319
p5480
aVDCC0318
p5481
asVDC003294
p5482
(lp5483
VDCC1126
p5484
aVDCC1165
p5485
aVDCC0203
p5486
asVDC000136
p5487
(lp5488
VDCC0051
p5489
aVDCC0049
p5490
asVDC007204
p5491
(lp5492
VDCC1810
p5493
aVDCC0214
p5494
asVDC003043
p5495
(lp5496
VDCC0139
p5497
aVDCC0255
p5498
asVDC000514
p5499
(lp5500
VDCC0187
p5501
aVDCC0235
p5502
aVDCC1377
p5503
asVDC000130
p5504
(lp5505
VDCC0021
p5506
aVDCC0055
p5507
aVDCC0089
p5508
asVDC001893
p5509
(lp5510
VDCC0111
p5511
aVDCC0351
p5512
aVDCC0114
p5513
aVDCC0179
p5514
asVDC002282
p5515
(lp5516
VDCC1208
p5517
aVDCC0407
p5518
aVDCC0062
p5519
asVDC000201
p5520
(lp5521
VDCC0186
p5522
aVDCC0313
p5523
asVDC000042
p5524
(lp5525
VDCC0247
p5526
aVDCC0260
p5527
asVDC003422
p5528
(lp5529
VDCC0128
p5530
aVDCC0117
p5531
asVDC002383
p5532
(lp5533
VDCC0319
p5534
aVDCC0304
p5535
asVDC007214
p5536
(lp5537
VDCC1010
p5538
aVDCC0187
p5539
aVDCC0235
p5540
asVDC001786
p5541
(lp5542
VDCC0768
p5543
aVDCC0016
p5544
aVDCC0325
p5545
asVDC001784
p5546
(lp5547
VDCC1436
p5548
aVDCC0059
p5549
aVDCC0057
p5550
aVDCC0234
p5551
asVDC006327
p5552
(lp5553
VDCC0123
p5554
aVDCC0256
p5555
aVDCC1357
p5556
aVDCC1121
p5557
aVDCC1471
p5558
aVDCC1138
p5559
asVDC006321
p5560
(lp5561
VDCC0240
p5562
aVDCC1377
p5563
asVDC003425
p5564
(lp5565
VDCC0057
p5566
aVDCC0741
p5567
asVDC001413
p5568
(lp5569
VDCC0429
p5570
aVDCC0323
p5571
asVDC000419
p5572
(lp5573
VDCC0008
p5574
aVDCC0016
p5575
asVDC006457
p5576
(lp5577
VDCC1390
p5578
aVDCC0323
p5579
asVDC004857
p5580
(lp5581
VDCC0131
p5582
aVDCC0123
p5583
aVDCC0128
p5584
asVDC001808
p5585
(lp5586
VDCC0008
p5587
aVDCC0096
p5588
aVDCC0123
p5589
aVDCC0329
p5590
aVDCC0128
p5591
asVDC004428
p5592
(lp5593
VDCC1249
p5594
aVDCC0218
p5595
aVDCC0348
p5596
aVDCC0011
p5597
asVDC000558
p5598
(lp5599
VDCC0352
p5600
aVDCC0285
p5601
aVDCC0052
p5602
aVDCC0190
p5603
asVDC004425
p5604
(lp5605
VDCC0111
p5606
aVDCC0150
p5607
aVDCC0179
p5608
asVDC000281
p5609
(lp5610
VDCC0001
p5611
aVDCC0128
p5612
asVDC000412
p5613
(lp5614
VDCC0117
p5615
aVDCC0462
p5616
asVDC000413
p5617
(lp5618
VDCC0191
p5619
aVDCC0462
p5620
asVDC005523
p5621
(lp5622
VDCC1149
p5623
aVDCC0011
p5624
aVDCC0156
p5625
aVDCC0173
p5626
asVDC000415
p5627
(lp5628
VDCC0451
p5629
aVDCC0323
p5630
asVDC003435
p5631
(lp5632
VDCC1584
p5633
aVDCC0255
p5634
asVDC000280
p5635
(lp5636
VDCC0454
p5637
aVDCC0452
p5638
asVDC002885
p5639
(lp5640
VDCC0259
p5641
aVDCC0048
p5642
asVDC004719
p5643
(lp5644
VDCC0096
p5645
aVDCC1555
p5646
aVDCC0295
p5647
aVDCC0120
p5648
asVDC000138
p5649
(lp5650
VDCC0049
p5651
aVDCC0021
p5652
aVDCC0346
p5653
asVDC000198
p5654
(lp5655
VDCC0216
p5656
aVDCC0155
p5657
asVDC006019
p5658
(lp5659
VDCC0169
p5660
aVDCC1641
p5661
asVDC006066
p5662
(lp5663
VDCC0256
p5664
aVDCC1165
p5665
aVDCC0148
p5666
asVDC000314
p5667
(lp5668
VDCC0294
p5669
aVDCC0011
p5670
asVDC005773
p5671
(lp5672
VDCC1437
p5673
aVDCC1473
p5674
asVDC000346
p5675
(lp5676
VDCC0456
p5677
aVDCC0380
p5678
asVDC005878
p5679
(lp5680
VDCC0112
p5681
aVDCC0312
p5682
asVDC000040
p5683
(lp5684
VDCC0051
p5685
aVDCC0021
p5686
aVDCC0240
p5687
aVDCC0031
p5688
asVDC004458
p5689
(lp5690
VDCC0198
p5691
aVDCC1502
p5692
asVDC005421
p5693
(lp5694
VDCC1110
p5695
aVDCC0304
p5696
asVDC000007
p5697
(lp5698
VDCC0042
p5699
aVDCC0252
p5700
asVDC000006
p5701
(lp5702
VDCC0139
p5703
aVDCC0239
p5704
asVDC000005
p5705
(lp5706
VDCC0059
p5707
aVDCC0100
p5708
asVDC000004
p5709
(lp5710
VDCC0140
p5711
aVDCC0172
p5712
asVDC000003
p5713
(lp5714
VDCC0140
p5715
aVDCC0388
p5716
aVDCC0186
p5717
asVDC004980
p5718
(lp5719
VDCC0216
p5720
aVDCC0123
p5721
asVDC000001
p5722
(lp5723
VDCC0005
p5724
aVDCC0193
p5725
aVDCC0257
p5726
asVDC000449
p5727
(lp5728
VDCC0334
p5729
aVDCC0390
p5730
asVDC002122
p5731
(lp5732
VDCC0218
p5733
aVDCC1161
p5734
aVDCC0223
p5735
aVDCC0173
p5736
asVDC001530
p5737
(lp5738
VDCC0049
p5739
aVDCC0282
p5740
aVDCC0138
p5741
asVDC005263
p5742
(lp5743
VDCC0216
p5744
aVDCC0011
p5745
aVDCC0173
p5746
asVDC004310
p5747
(lp5748
VDCC1207
p5749
aVDCC0303
p5750
aVDCC0101
p5751
asVDC002126
p5752
(lp5753
VDCC1011
p5754
aVDCC0138
p5755
asVDC003031
p5756
(lp5757
VDCC1666
p5758
aVDCC1390
p5759
asVDC003559
p5760
(lp5761
VDCC1705
p5762
aVDCC1182
p5763
aVDCC1677
p5764
asVDC006131
p5765
(lp5766
VDCC1481
p5767
aVDCC1182
p5768
asVDC006130
p5769
(lp5770
VDCC0259
p5771
aVDCC0008
p5772
aVDCC0123
p5773
aVDCC0332
p5774
aVDCC0323
p5775
asVDC002043
p5776
(lp5777
VDCC1567
p5778
aVDCC0233
p5779
asVDC003030
p5780
(lp5781
VDCC1368
p5782
aVDCC1280
p5783
aVDCC0179
p5784
asVDC002044
p5785
(lp5786
VDCC0259
p5787
aVDCC0008
p5788
aVDCC0123
p5789
aVDCC0329
p5790
asVDC006391
p5791
(lp5792
VDCC1454
p5793
aVDCC0156
p5794
aVDCC0009
p5795
asVDC000288
p5796
(lp5797
VDCC0325
p5798
aVDCC0103
p5799
asVDC005294
p5800
(lp5801
VDCC0169
p5802
aVDCC0060
p5803
asVDC005385
p5804
(lp5805
VDCC1330
p5806
aVDCC0118
p5807
asVDC004659
p5808
(lp5809
VDCC0030
p5810
aVDCC0132
p5811
asVDC003362
p5812
(lp5813
VDCC0216
p5814
aVDCC1468
p5815
asVDC007268
p5816
(lp5817
VDCC1852
p5818
aVDCC0260
p5819
aVDCC0337
p5820
asVDC001735
p5821
(lp5822
VDCC0061
p5823
aVDCC0240
p5824
aVDCC1390
p5825
asVDC005350
p5826
(lp5827
VDCC0001
p5828
aVDCC1535
p5829
asVDC000448
p5830
(lp5831
VDCC0037
p5832
aVDCC0316
p5833
asVDC005353
p5834
(lp5835
VDCC1124
p5836
aVDCC0027
p5837
aVDCC0057
p5838
aVDCC0082
p5839
asVDC007253
p5840
(lp5841
VDCC0836
p5842
aVDCC1097
p5843
asVDC000043
p5844
(lp5845
VDCC0260
p5846
aVDCC0085
p5847
asVDC007251
p5848
(lp5849
VDCC0908
p5850
aVDCC1823
p5851
asVDC007250
p5852
(lp5853
VDCC0196
p5854
aVDCC1377
p5855
asVDC007256
p5856
(lp5857
VDCC1826
p5858
aVDCC0252
p5859
aVDCC0180
p5860
asVDC007255
p5861
(lp5862
VDCC0071
p5863
aVDCC0552
p5864
asVDC001463
p5865
(lp5866
VDCC0295
p5867
aVDCC0332
p5868
asVDC007259
p5869
(lp5870
VDCC0207
p5871
aVDCC0340
p5872
asVDC007258
p5873
(lp5874
VDCC0252
p5875
aVDCC0244
p5876
asVDC000424
p5877
(lp5878
VDCC0381
p5879
aVDCC0223
p5880
asVDC005946
p5881
(lp5882
VDCC0684
p5883
aVDCC1390
p5884
asVDC007000
p5885
(lp5886
VDCC0079
p5887
aVDCC0006
p5888
asVDC002058
p5889
(lp5890
VDCC1200
p5891
aVDCC0170
p5892
asVDC006269
p5893
(lp5894
VDCC0152
p5895
aVDCC0250
p5896
asVDC003038
p5897
(lp5898
VDCC0246
p5899
aVDCC0204
p5900
asVDC007023
p5901
(lp5902
VDCC1333
p5903
aVDCC0023
p5904
aVDCC0339
p5905
aVDCC0464
p5906
asVDC000434
p5907
(lp5908
VDCC0293
p5909
aVDCC0022
p5910
asVDC000133
p5911
(lp5912
VDCC0008
p5913
aVDCC0295
p5914
aVDCC0117
p5915
asVDC000132
p5916
(lp5917
VDCC0008
p5918
aVDCC0323
p5919
asVDC000131
p5920
(lp5921
VDCC0004
p5922
aVDCC0325
p5923
aVDCC0126
p5924
aVDCC0271
p5925
asVDC000362
p5926
(lp5927
VDCC0329
p5928
aVDCC0189
p5929
asVDC000370
p5930
(lp5931
VDCC0122
p5932
aVDCC0012
p5933
asVDC003898
p5934
(lp5935
VDCC0259
p5936
aVDCC0117
p5937
aVDCC0126
p5938
aVDCC0311
p5939
asVDC000135
p5940
(lp5941
VDCC0016
p5942
aVDCC0278
p5943
aVDCC0277
p5944
aVDCC0156
p5945
asVDC000154
p5946
(lp5947
VDCC0049
p5948
aVDCC0018
p5949
asVDC003554
p5950
(lp5951
VDCC0057
p5952
aVDCC1133
p5953
asVDC003897
p5954
(lp5955
VDCC0288
p5956
aVDCC0917
p5957
aVDCC0009
p5958
asVDC003896
p5959
(lp5960
VDCC0003
p5961
aVDCC1118
p5962
aVDCC0764
p5963
aVDCC0203
p5964
asVDC000649
p5965
(lp5966
VDCC0332
p5967
aVDCC0323
p5968
asVDC002220
p5969
(lp5970
VDCC1450
p5971
aVDCC1040
p5972
asVDC000522
p5973
(lp5974
VDCC0295
p5975
aVDCC0189
p5976
asVDC000045
p5977
(lp5978
VDCC0074
p5979
aVDCC0260
p5980
asVDC006255
p5981
(lp5982
VDCC1662
p5983
aVDCC0216
p5984
asVDC002634
p5985
(lp5986
VDCC0945
p5987
aVDCC0245
p5988
aVDCC0323
p5989
asVDC007315
p5990
(lp5991
VDCC0039
p5992
aVDCC1370
p5993
asVDC003443
p5994
(lp5995
VDCC0012
p5996
aVDCC0117
p5997
aVDCC0271
p5998
asVDC006553
p5999
(lp6000
VDCC0015
p6001
aVDCC0270
p6002
asVDC004974
p6003
(lp6004
VDCC0011
p6005
aVDCC1161
p6006
asVDC004736
p6007
(lp6008
VDCC1116
p6009
aVDCC1508
p6010
aVDCC1478
p6011
aVDCC1507
p6012
asVDC000431
p6013
(lp6014
VDCC0020
p6015
aVDCC0084
p6016
asVDC007322
p6017
(lp6018
VDCC1859
p6019
aVDCC0797
p6020
asVDC007321
p6021
(lp6022
VDCC1855
p6023
aVDCC1854
p6024
aVDCC1256
p6025
asVDC006554
p6026
(lp6027
VDCC1478
p6028
aVDCC1728
p6029
as.