(dp1
I2
c__builtin__
set
p2
((lp3
VPF00207
p4
aVPF07678
p5
aVPF07677
p6
aVPF10569
p7
aVPF01835
p8
aVPF07703
p9
atRp10
sI2057
g2
((lp11
VPF00041
p12
aVPF09067
p13
atRp14
sI2064
g2
((lp15
VPF01030
p16
aVPF07714
p17
aVPF00757
p18
aVPF14843
p19
atRp20
sI18
g2
((lp21
VPF00202
p22
atRp23
sI19
g2
((lp24
VPF00005
p25
atRp26
sI90134
g2
((lp27
VPF00520
p28
aVPF00027
p29
aVPF13426
p30
atRp31
sI25
g2
((lp32
VPF00018
p33
aVPF07714
p34
aVPF00017
p35
aVPF08919
p36
atRp37
sI26
g2
((lp38
VPF02727
p39
aVPF02728
p40
aVPF01179
p41
atRp42
sI27
g2
((lp43
VPF00018
p44
aVPF07714
p45
aVPF00017
p46
aVPF08919
p47
atRp48
sI4129
g2
((lp49
VPF01593
p50
atRp51
sI36
g2
((lp52
VPF02771
p53
aVPF00441
p54
aVPF02770
p55
atRp56
sI4133
g2
((lp57
VPF08377
p58
aVPF00418
p59
atRp60
sI38
g2
((lp61
VPF02803
p62
aVPF00108
p63
atRp64
sI10280
g2
((lp65
VPF04622
p66
atRp67
sI4137
g2
((lp68
VPF00418
p69
atRp70
sI43
g2
((lp71
VPF08674
p72
aVPF00135
p73
atRp74
sI2099
g2
((lp75
VPF00104
p76
aVPF00105
p77
aVPF02159
p78
aVPF12743
p79
atRp80
sI2100
g2
((lp81
VPF00104
p82
aVPF00105
p83
aVPF12497
p84
atRp85
sI4790
g2
((lp86
VPF12796
p87
aVPF00554
p88
aVPF00531
p89
aVPF16179
p90
atRp91
sI51284
g2
((lp92
VPF13306
p93
aVPF01582
p94
aVPF13855
p95
atRp96
sI6240
g2
((lp97
VPF03477
p98
aVPF02867
p99
aVPF00317
p100
atRp101
sI6241
g2
((lp102
VPF00268
p103
atRp104
sI2147
g2
((lp105
VPF09396
p106
aVPF00594
p107
aVPF00089
p108
aVPF00051
p109
atRp110
sI100
g2
((lp111
VPF00962
p112
atRp113
sI2153
g2
((lp114
VPF07732
p115
aVPF00754
p116
atRp117
sI2066
g2
((lp118
VPF01030
p119
aVPF07714
p120
aVPF00757
p121
aVPF14843
p122
atRp123
sI2159
g2
((lp124
VPF00089
p125
aVPF00008
p126
aVPF00594
p127
atRp128
sI6256
g2
((lp129
VPF00104
p130
aVPF00105
p131
aVPF11825
p132
atRp133
sI6257
g2
((lp134
VPF00104
p135
aVPF00105
p136
atRp137
sI6258
g2
((lp138
VPF00104
p139
aVPF00105
p140
aVPF11825
p141
atRp142
sI6261
g2
((lp143
VPF00520
p144
aVPF02026
p145
aVPF06459
p146
aVPF08709
p147
aVPF00622
p148
aVPF02815
p149
aVPF13833
p150
aVPF08454
p151
aVPF01365
p152
atRp153
sI2166
g2
((lp154
VPF01425
p155
atRp156
sI2169
g2
((lp157
VPF00061
p158
atRp159
sI124
g2
((lp160
VPF00107
p161
aVPF08240
p162
atRp163
sI125
g2
((lp164
VPF00107
p165
aVPF08240
p166
atRp167
sI132
g2
((lp168
VPF00294
p169
atRp170
sI134
g2
((lp171
VPF00001
p172
atRp173
sI135
g2
((lp174
VPF00001
p175
atRp176
sI136
g2
((lp177
VPF00001
p178
atRp179
sI2185
g2
((lp180
VPF00373
p181
aVPF07714
p182
aVPF03623
p183
atRp184
sI10381
g2
((lp185
VPF03953
p186
aVPF00091
p187
atRp188
sI142
g2
((lp189
VPF05406
p190
aVPF00533
p191
aVPF02877
p192
aVPF00645
p193
aVPF00644
p194
aVPF08063
p195
atRp196
sI10383
g2
((lp197
VPF03953
p198
aVPF00091
p199
atRp200
sI146
g2
((lp201
VPF00001
p202
atRp203
sI147
g2
((lp204
VPF00001
p205
atRp206
sI148
g2
((lp207
VPF00001
p208
atRp209
sI150
g2
((lp210
VPF00001
p211
atRp212
sI151
g2
((lp213
VPF00001
p214
atRp215
sI153
g2
((lp216
VPF00001
p217
atRp218
sI154
g2
((lp219
VPF00001
p220
atRp221
sI2205
g2
((lp222
VPF13895
p223
atRp224
sI2206
g2
((lp225
VPF04103
p226
atRp227
sI4255
g2
((lp228
VPF02870
p229
aVPF01035
p230
atRp231
sI2209
g2
((lp232
VPF13895
p233
aVPF00047
p234
atRp235
sI2212
g2
((lp236
VPF13895
p237
atRp238
sI2213
g2
((lp239
VPF13895
p240
atRp241
sI2214
g2
((lp242
VPF13895
p243
atRp244
sI2215
g2
((lp245
VPF13895
p246
atRp247
sI2220
g2
((lp248
VPF01391
p249
aVPF00147
p250
atRp251
sI2224
g2
((lp252
VPF00348
p253
atRp254
sI6323
g2
((lp255
VPF00520
p256
aVPF11933
p257
aVPF06512
p258
atRp259
sI6325
g2
((lp260
VPF00520
p261
aVPF11933
p262
aVPF06512
p263
atRp264
sI6326
g2
((lp265
VPF00520
p266
aVPF11933
p267
aVPF06512
p268
atRp269
sI6328
g2
((lp270
VPF00520
p271
aVPF11933
p272
aVPF06512
p273
atRp274
sI6329
g2
((lp275
VPF00520
p276
aVPF06512
p277
atRp278
sI186
g2
((lp279
VPF00001
p280
atRp281
sI6331
g2
((lp282
VPF00520
p283
aVPF11933
p284
aVPF06512
p285
atRp286
sI190
g2
((lp287
VPF00104
p288
aVPF14046
p289
atRp290
sI6336
g2
((lp291
VPF00520
p292
aVPF06512
p293
atRp294
sI6337
g2
((lp295
VPF00858
p296
atRp297
sI6338
g2
((lp298
VPF00858
p299
atRp300
sI6339
g2
((lp301
VPF00858
p302
atRp303
sI6340
g2
((lp304
VPF00858
p305
atRp306
sI2246
g2
((lp307
VPF00167
p308
atRp309
sI2247
g2
((lp310
VPF00167
p311
atRp312
sI207
g2
((lp313
VPF00169
p314
aVPF00069
p315
aVPF00433
p316
atRp317
sI4306
g2
((lp318
VPF00104
p319
aVPF00105
p320
atRp321
sI2260
g2
((lp322
VPF07714
p323
aVPF07679
p324
aVPF00047
p325
atRp326
sI2261
g2
((lp327
VPF07714
p328
aVPF07679
p329
atRp330
sI2263
g2
((lp331
VPF07714
p332
aVPF07679
p333
atRp334
sI2264
g2
((lp335
VPF07714
p336
aVPF07679
p337
atRp338
sI4313
g2
((lp339
VPF00040
p340
aVPF01471
p341
aVPF00045
p342
aVPF00413
p343
atRp344
sI4318
g2
((lp345
VPF00040
p346
aVPF01471
p347
aVPF00045
p348
aVPF00413
p349
atRp350
sI4134
g2
((lp351
VPF00418
p352
atRp353
sI2280
g2
((lp354
VPF00254
p355
atRp356
sI6383
g2
((lp357
VPF01034
p358
atRp359
sI240
g2
((lp360
VPF00305
p361
aVPF01477
p362
atRp363
sI241
g2
((lp364
VPF01124
p365
atRp366
sI41
g2
((lp367
VPF00858
p368
atRp369
sI4352
g2
((lp370
VPF00041
p371
aVPF09067
p372
atRp373
sI10499
g2
((lp374
VPF16279
p375
aVPF08832
p376
aVPF08815
p377
aVPF00989
p378
aVPF07469
p379
atRp380
sI1509
g2
((lp381
VPF07966
p382
aVPF00026
p383
atRp384
sI2321
g2
((lp385
VPF07714
p386
aVPF07679
p387
aVPF00047
p388
atRp389
sI2322
g2
((lp390
VPF07714
p391
aVPF00047
p392
atRp393
sI2324
g2
((lp394
VPF07714
p395
aVPF07679
p396
atRp397
sI284
g2
((lp398
VPF00147
p399
atRp400
sI285
g2
((lp401
VPF00147
p402
atRp403
sI301
g2
((lp404
VPF00191
p405
atRp406
sI2352
g2
((lp407
VPF03024
p408
atRp409
sI8503
g2
((lp410
VPF16454
p411
aVPF00017
p412
atRp413
sI203068
g2
((lp414
VPF03953
p415
aVPF00091
p416
atRp417
sI3557
g2
((lp418
VPF00340
p419
atRp420
sI9900
g2
((lp421
VPF13599
p422
aVPF07690
p423
aVPF00083
p424
atRp425
sI367
g2
((lp426
VPF00104
p427
aVPF00105
p428
aVPF02166
p429
atRp430
sI8566
g2
((lp431
VPF08543
p432
atRp433
sI384
g2
((lp434
VPF00491
p435
atRp436
sI6530
g2
((lp437
VPF00209
p438
atRp439
sI6531
g2
((lp440
VPF00209
p441
atRp442
sI6532
g2
((lp443
VPF03491
p444
aVPF00209
p445
atRp446
sI6535
g2
((lp447
VPF00209
p448
atRp449
sI6541
g2
((lp450
VPF13906
p451
aVPF13520
p452
atRp453
sI27032
g2
((lp454
VPF00690
p455
aVPF00689
p456
aVPF00122
p457
atRp458
sI6548
g2
((lp459
VPF16644
p460
aVPF00999
p461
atRp462
sI4846
g2
((lp463
VPF00175
p464
aVPF00258
p465
aVPF02898
p466
aVPF00667
p467
atRp468
sI8600
g2
((lp469
VPF00229
p470
atRp471
sI6557
g2
((lp472
VPF00324
p473
aVPF03522
p474
aVPF08403
p475
atRp476
sI6559
g2
((lp477
VPF00324
p478
aVPF03522
p479
aVPF08403
p480
atRp481
sI6571
g2
((lp482
VPF07690
p483
atRp484
sI4524
g2
((lp485
VPF02219
p486
atRp487
sI435
g2
((lp488
VPF00206
p489
aVPF14698
p490
atRp491
sI1438
g2
((lp492
VPF09240
p493
atRp494
sI4535
g2
((lp495
VPF00146
p496
atRp497
sI1439
g2
((lp498
VPF09240
p499
aVPF09294
p500
atRp501
sI2492
g2
((lp502
VPF13306
p503
aVPF01462
p504
aVPF00001
p505
aVPF12369
p506
atRp507
sI445
g2
((lp508
VPF00764
p509
atRp510
sI8639
g2
((lp511
VPF02727
p512
aVPF02728
p513
aVPF01179
p514
atRp515
sI22978
g2
((lp516
VPF05761
p517
atRp518
sI8644
g2
((lp519
VPF00248
p520
atRp521
sI8647
g2
((lp522
VPF00005
p523
aVPF00664
p524
atRp525
sI4552
g2
((lp526
VPF00175
p527
aVPF00258
p528
aVPF00667
p529
atRp530
sI462
g2
((lp531
VPF00079
p532
atRp533
sI6609
g2
((lp534
VPF00149
p535
atRp536
sI471
g2
((lp537
VPF01808
p538
aVPF02142
p539
atRp540
sI476
g2
((lp541
VPF00690
p542
aVPF00689
p543
aVPF00122
p544
atRp545
sI2534
g2
((lp546
VPF00018
p547
aVPF07714
p548
aVPF00017
p549
atRp550
sI495
g2
((lp551
VPF00690
p552
aVPF00689
p553
aVPF00122
p554
aVPF09040
p555
atRp556
sI6646
g2
((lp557
VPF03062
p558
atRp559
sI2554
g2
((lp560
VPF02932
p561
aVPF02931
p562
atRp563
sI2555
g2
((lp564
VPF02932
p565
aVPF02931
p566
atRp567
sI2556
g2
((lp568
VPF02932
p569
aVPF02931
p570
atRp571
sI2557
g2
((lp572
VPF02932
p573
aVPF02931
p574
atRp575
sI2559
g2
((lp576
VPF02932
p577
aVPF02931
p578
atRp579
sI2560
g2
((lp580
VPF02932
p581
aVPF02931
p582
atRp583
sI2561
g2
((lp584
VPF02932
p585
aVPF02931
p586
atRp587
sI2562
g2
((lp588
VPF02932
p589
aVPF02931
p590
atRp591
sI2563
g2
((lp592
VPF02932
p593
aVPF02931
p594
atRp595
sI2565
g2
((lp596
VPF02932
p597
aVPF02931
p598
atRp599
sI2566
g2
((lp600
VPF02932
p601
aVPF02931
p602
atRp603
sI2567
g2
((lp604
VPF02932
p605
aVPF02931
p606
atRp607
sI2569
g2
((lp608
VPF02932
p609
aVPF02931
p610
atRp611
sI2570
g2
((lp612
VPF02932
p613
aVPF02931
p614
atRp615
sI523
g2
((lp616
VPF02874
p617
aVPF00006
p618
aVPF16886
p619
atRp620
sI51727
g2
((ltRp621
sI3973
g2
((lp622
VPF13306
p623
aVPF00001
p624
atRp625
sI2593
g2
((ltRp626
sI552
g2
((lp627
VPF00001
p628
aVPF08983
p629
atRp630
sI554
g2
((lp631
VPF00001
p632
atRp633
sI10800
g2
((lp634
VPF00001
p635
atRp636
sI6711
g2
((lp637
VPF00307
p638
aVPF00435
p639
atRp640
sI6714
g2
((lp641
VPF00018
p642
aVPF07714
p643
aVPF00017
p644
atRp645
sI55867
g2
((lp646
VPF00083
p647
atRp648
sI55869
g2
((lp649
VPF00850
p650
atRp651
sI8972
g2
((lp652
VPF01055
p653
aVPF00088
p654
aVPF16863
p655
atRp656
sI586
g2
((lp657
VPF01063
p658
atRp659
sI590
g2
((lp660
VPF08674
p661
aVPF00135
p662
atRp663
sI595
g2
((lp664
VPF00134
p665
aVPF02984
p666
atRp667
sI596
g2
((lp668
VPF00452
p669
aVPF02180
p670
atRp671
sI4879
g2
((lp672
VPF00212
p673
atRp674
sI2475
g2
((lp675
VPF02260
p676
aVPF11865
p677
aVPF02259
p678
aVPF08771
p679
aVPF00454
p680
atRp681
sI10846
g2
((lp682
VPF01590
p683
aVPF00233
p684
atRp685
sI6751
g2
((lp686
VPF00001
p687
atRp688
sI6752
g2
((lp689
VPF00001
p690
atRp691
sI6755
g2
((lp692
VPF00001
p693
atRp694
sI613
g2
((lp695
VPF00168
p696
aVPF00621
p697
aVPF00620
p698
aVPF09036
p699
atRp700
sI4881
g2
((lp701
VPF01094
p702
aVPF07714
p703
aVPF00211
p704
atRp705
sI1128
g2
((lp706
VPF00001
p707
atRp708
sI2677
g2
((lp709
VPF05090
p710
atRp711
sI23657
g2
((lp712
VPF13520
p713
atRp714
sI6777
g2
((lp715
VPF01017
p716
aVPF02865
p717
aVPF00017
p718
aVPF02864
p719
atRp720
sI8829
g2
((lp721
VPF00629
p722
aVPF00431
p723
aVPF11980
p724
aVPF00754
p725
atRp726
sI2690
g2
((lp727
VPF00041
p728
aVPF12772
p729
aVPF09067
p730
atRp731
sI8841
g2
((lp732
VPF00850
p733
atRp734
sI2157
g2
((lp735
VPF07732
p736
aVPF07731
p737
aVPF00394
p738
aVPF00754
p739
atRp740
sI8854
g2
((lp741
VPF00171
p742
atRp743
sI4759
g2
((lp744
VPF13088
p745
atRp746
sI8856
g2
((lp747
VPF00104
p748
aVPF00105
p749
atRp750
sI4548
g2
((lp751
VPF02965
p752
aVPF02607
p753
aVPF02310
p754
aVPF00809
p755
aVPF02574
p756
atRp757
sI673
g2
((lp758
VPF00130
p759
aVPF02196
p760
aVPF07714
p761
atRp762
sI683
g2
((lp763
VPF02267
p764
atRp765
sI2162
g2
((lp766
VPF00927
p767
aVPF01841
p768
aVPF00868
p769
atRp770
sI8648
g2
((lp771
VPF08832
p772
aVPF00010
p773
aVPF08815
p774
aVPF00989
p775
aVPF07469
p776
atRp777
sI2739
g2
((lp778
VPF00903
p779
atRp780
sI2740
g2
((lp781
VPF02793
p782
aVPF00002
p783
atRp784
sI2742
g2
((lp785
VPF02932
p786
aVPF02931
p787
atRp788
sI706
g2
((lp789
VPF03073
p790
atRp791
sI4803
g2
((lp792
VPF00243
p793
atRp794
sI7184
g2
((lp795
VPF02518
p796
aVPF00183
p797
atRp798
sI712
g2
((lp799
VPF00386
p800
aVPF01391
p801
atRp802
sI713
g2
((lp803
VPF00386
p804
aVPF01391
p805
atRp806
sI714
g2
((lp807
VPF00386
p808
aVPF01391
p809
atRp810
sI715
g2
((lp811
VPF00084
p812
aVPF00089
p813
aVPF00431
p814
atRp815
sI716
g2
((lp816
VPF00084
p817
aVPF00089
p818
aVPF00431
p819
atRp820
sI8911
g2
((lp821
VPF00520
p822
atRp823
sI8913
g2
((lp824
VPF00520
p825
atRp826
sI6869
g2
((lp827
VPF00001
p828
atRp829
sI4835
g2
((lp830
VPF02525
p831
atRp832
sI4837
g2
((lp833
VPF01234
p834
atRp835
sI4843
g2
((lp836
VPF00175
p837
aVPF00258
p838
aVPF02898
p839
aVPF00667
p840
atRp841
sI2798
g2
((lp842
VPF00001
p843
atRp844
sI759
g2
((lp845
VPF00194
p846
atRp847
sI4856
g2
((lp848
VPF00093
p849
aVPF00007
p850
aVPF00219
p851
atRp852
sI761
g2
((lp853
VPF00194
p854
atRp855
sI762
g2
((lp856
VPF00194
p857
atRp858
sI4860
g2
((lp859
VPF01048
p860
atRp861
sI765
g2
((lp862
VPF00194
p863
atRp864
sI767
g2
((lp865
VPF00194
p866
atRp867
sI768
g2
((lp868
VPF00194
p869
atRp870
sI1152
g2
((lp871
VPF00217
p872
aVPF02807
p873
atRp874
sI4915
g2
((lp875
VPF01462
p876
aVPF07714
p877
aVPF16920
p878
aVPF07679
p879
aVPF13855
p880
atRp881
sI771
g2
((lp882
VPF00194
p883
atRp884
sI773
g2
((lp885
VPF00520
p886
aVPF16905
p887
aVPF08763
p888
atRp889
sI774
g2
((lp890
VPF00520
p891
aVPF16905
p892
aVPF08763
p893
atRp894
sI775
g2
((lp895
VPF00520
p896
aVPF16885
p897
aVPF16905
p898
aVPF08763
p899
atRp900
sI776
g2
((lp901
VPF00520
p902
aVPF16885
p903
aVPF16905
p904
aVPF08763
p905
atRp906
sI779
g2
((lp907
VPF00520
p908
aVPF16905
p909
aVPF08763
p910
atRp911
sI780
g2
((lp912
VPF07714
p913
aVPF00754
p914
atRp915
sI781
g2
((lp916
VPF00092
p917
aVPF08399
p918
aVPF08473
p919
atRp920
sI782
g2
((lp921
VPF00625
p922
aVPF12052
p923
atRp924
sI783
g2
((lp925
VPF00625
p926
aVPF12052
p927
atRp928
sI784
g2
((lp929
VPF00625
p930
aVPF12052
p931
atRp932
sI785
g2
((lp933
VPF00625
p934
aVPF12052
p935
atRp936
sI786
g2
((lp937
VPF13903
p938
atRp939
sI801
g2
((lp940
VPF13499
p941
atRp942
sI805
g2
((lp943
VPF13499
p944
atRp945
sI808
g2
((lp946
VPF13499
p947
atRp948
sI113451
g2
((lp949
VPF02784
p950
aVPF00278
p951
atRp952
sI54106
g2
((lp953
VPF13516
p954
aVPF01582
p955
aVPF13855
p956
atRp957
sI818
g2
((lp958
VPF08332
p959
aVPF00069
p960
atRp961
sI4914
g2
((lp962
VPF07714
p963
aVPF16920
p964
aVPF13855
p965
atRp966
sI819
g2
((lp967
VPF14963
p968
atRp969
sI831
g2
((lp970
VPF00748
p971
atRp972
sI834
g2
((lp973
VPF00619
p974
atRp975
sI836
g2
((ltRp976
sI2890
g2
((lp977
VPF01094
p978
aVPF10613
p979
aVPF00060
p980
atRp981
sI2891
g2
((lp982
VPF01094
p983
aVPF10613
p984
aVPF00060
p985
atRp986
sI2892
g2
((lp987
VPF01094
p988
aVPF10613
p989
aVPF00060
p990
atRp991
sI3554
g2
((lp992
VPF13895
p993
aVPF01582
p994
aVPF07679
p995
atRp996
sI846
g2
((lp997
VPF01094
p998
aVPF00003
p999
aVPF07562
p1000
atRp1001
sI6285
g2
((lp1002
VPF01023
p1003
aVPF00036
p1004
atRp1005
sI2897
g2
((lp1006
VPF01094
p1007
aVPF10613
p1008
aVPF00060
p1009
atRp1010
sI2898
g2
((lp1011
VPF01094
p1012
aVPF10613
p1013
aVPF00060
p1014
atRp1015
sI2902
g2
((lp1016
VPF10562
p1017
aVPF01094
p1018
aVPF10613
p1019
aVPF00060
p1020
atRp1021
sI2903
g2
((lp1022
VPF01094
p1023
aVPF10613
p1024
aVPF10565
p1025
aVPF00060
p1026
atRp1027
sI2904
g2
((lp1028
VPF01094
p1029
aVPF10613
p1030
aVPF10565
p1031
aVPF00060
p1032
atRp1033
sI2905
g2
((lp1034
VPF01094
p1035
aVPF10613
p1036
aVPF10565
p1037
aVPF00060
p1038
atRp1039
sI2906
g2
((lp1040
VPF01094
p1041
aVPF10613
p1042
aVPF00060
p1043
atRp1044
sI2908
g2
((lp1045
VPF00104
p1046
aVPF00105
p1047
aVPF02155
p1048
atRp1049
sI2911
g2
((lp1050
VPF01094
p1051
aVPF10606
p1052
aVPF00003
p1053
aVPF07562
p1054
atRp1055
sI2912
g2
((lp1056
VPF01094
p1057
aVPF00003
p1058
aVPF07562
p1059
atRp1060
sI2913
g2
((lp1061
VPF01094
p1062
aVPF00003
p1063
aVPF07562
p1064
atRp1065
sI7010
g2
((lp1066
VPF00041
p1067
aVPF07714
p1068
aVPF10430
p1069
atRp1070
sI2915
g2
((lp1071
VPF01094
p1072
aVPF10606
p1073
aVPF00003
p1074
aVPF07562
p1075
atRp1076
sI4967
g2
((lp1077
VPF00676
p1078
aVPF16870
p1079
aVPF02779
p1080
aVPF16078
p1081
atRp1082
sI2194
g2
((lp1083
VPF00698
p1084
aVPF08242
p1085
aVPF16197
p1086
aVPF00975
p1087
aVPF02801
p1088
aVPF00109
p1089
aVPF14765
p1090
aVPF00550
p1091
aVPF00107
p1092
aVPF08659
p1093
atRp1094
sI2932
g2
((lp1095
VPF00069
p1096
atRp1097
sI2936
g2
((lp1098
VPF07992
p1099
aVPF02852
p1100
atRp1101
sI4985
g2
((lp1102
VPF00001
p1103
atRp1104
sI4986
g2
((lp1105
VPF00001
p1106
atRp1107
sI2939
g2
((lp1108
VPF14497
p1109
aVPF02798
p1110
atRp1111
sI4988
g2
((lp1112
VPF00001
p1113
atRp1114
sI166785
g2
((ltRp1115
sI2950
g2
((lp1116
VPF14497
p1117
aVPF02798
p1118
atRp1119
sI909
g2
((lp1120
VPF07654
p1121
aVPF16497
p1122
atRp1123
sI9103
g2
((lp1124
VPF13895
p1125
atRp1126
sI7056
g2
((lp1127
VPF09064
p1128
aVPF07645
p1129
aVPF12662
p1130
aVPF00059
p1131
atRp1132
sI920
g2
((lp1133
VPF09191
p1134
aVPF12104
p1135
aVPF05790
p1136
aVPF00047
p1137
atRp1138
sI5020
g2
((lp1139
VPF00184
p1140
aVPF00220
p1141
atRp1142
sI931
g2
((lp1143
VPF04103
p1144
atRp1145
sI2984
g2
((lp1146
VPF07714
p1147
aVPF00211
p1148
atRp1149
sI5033
g2
((lp1150
VPF08336
p1151
aVPF13640
p1152
atRp1153
sI941
g2
((lp1154
VPF08205
p1155
aVPF07686
p1156
atRp1157
sI942
g2
((lp1158
VPF13895
p1159
aVPF07686
p1160
atRp1161
sI945
g2
((lp1162
VPF07686
p1163
aVPF00047
p1164
atRp1165
sI23475
g2
((lp1166
VPF02749
p1167
aVPF01729
p1168
atRp1169
sI7099
g2
((lp1170
VPF13516
p1171
aVPF01582
p1172
aVPF13855
p1173
atRp1174
sI54205
g2
((lp1175
VPF00034
p1176
atRp1177
sI5054
g2
((lp1178
VPF00079
p1179
atRp1180
sI7124
g2
((lp1181
VPF00229
p1182
atRp1183
sI7125
g2
((lp1184
VPF13499
p1185
aVPF13833
p1186
atRp1187
sI983
g2
((lp1188
VPF00069
p1189
atRp1190
sI10746
g2
((lp1191
VPF00564
p1192
aVPF00069
p1193
atRp1194
sI7134
g2
((lp1195
VPF13499
p1196
aVPF13833
p1197
atRp1198
sI3039
g2
((lp1199
VPF00042
p1200
atRp1201
sI3040
g2
((lp1202
VPF00042
p1203
atRp1204
sI1003
g2
((lp1205
VPF00028
p1206
aVPF01049
p1207
atRp1208
sI7150
g2
((lp1209
VPF01028
p1210
aVPF02919
p1211
aVPF14370
p1212
atRp1213
sI3055
g2
((lp1214
VPF00018
p1215
aVPF07714
p1216
aVPF00017
p1217
atRp1218
sI5104
g2
((lp1219
VPF00079
p1220
atRp1221
sI7153
g2
((lp1222
VPF00204
p1223
aVPF16898
p1224
aVPF01751
p1225
aVPF02518
p1226
aVPF00521
p1227
aVPF08070
p1228
atRp1229
sI7155
g2
((lp1230
VPF00204
p1231
aVPF16898
p1232
aVPF01751
p1233
aVPF02518
p1234
aVPF00521
p1235
aVPF08070
p1236
atRp1237
sI1017
g2
((lp1238
VPF00069
p1239
atRp1240
sI3066
g2
((lp1241
VPF00850
p1242
atRp1243
sI1019
g2
((lp1244
VPF00069
p1245
atRp1246
sI1020
g2
((lp1247
VPF00069
p1248
atRp1249
sI1021
g2
((lp1250
VPF00069
p1251
atRp1252
sI1022
g2
((lp1253
VPF00069
p1254
atRp1255
sI1024
g2
((lp1256
VPF00069
p1257
atRp1258
sI1025
g2
((lp1259
VPF00069
p1260
atRp1261
sI513
g2
((lp1262
VPF02823
p1263
atRp1264
sI5136
g2
((lp1265
VPF00233
p1266
aVPF08499
p1267
atRp1268
sI5139
g2
((lp1269
VPF00233
p1270
atRp1271
sI5141
g2
((lp1272
VPF00233
p1273
atRp1274
sI5142
g2
((lp1275
VPF00233
p1276
atRp1277
sI5143
g2
((lp1278
VPF00233
p1279
atRp1280
sI5144
g2
((lp1281
VPF00233
p1282
atRp1283
sI5148
g2
((lp1284
VPF04868
p1285
atRp1286
sI5149
g2
((lp1287
VPF04868
p1288
atRp1289
sI5153
g2
((lp1290
VPF00233
p1291
aVPF08499
p1292
atRp1293
sI5156
g2
((lp1294
VPF07714
p1295
aVPF07679
p1296
atRp1297
sI9254
g2
((lp1298
VPF00092
p1299
aVPF08399
p1300
aVPF08473
p1301
atRp1302
sI5159
g2
((lp1303
VPF07714
p1304
aVPF07679
p1305
aVPF00047
p1306
atRp1307
sI9052
g2
((lp1308
VPF00003
p1309
atRp1310
sI1066
g2
((lp1311
VPF00135
p1312
atRp1313
sI5170
g2
((lp1314
VPF14593
p1315
aVPF00069
p1316
atRp1317
sI1080
g2
((lp1318
VPF00005
p1319
aVPF00664
p1320
aVPF14396
p1321
atRp1322
sI3140
g2
((lp1323
VPF07654
p1324
aVPF00129
p1325
atRp1326
sI23632
g2
((lp1327
VPF00194
p1328
atRp1329
sI1105
g2
((lp1330
VPF00271
p1331
aVPF00385
p1332
aVPF00176
p1333
aVPF13907
p1334
atRp1335
sI3156
g2
((lp1336
VPF00368
p1337
aVPF12349
p1338
atRp1339
sI1111
g2
((lp1340
VPF00069
p1341
atRp1342
sI23649
g2
((lp1343
VPF08418
p1344
aVPF04042
p1345
atRp1346
sI3176
g2
((ltRp1347
sI1129
g2
((lp1348
VPF00001
p1349
atRp1350
sI5226
g2
((lp1351
VPF00393
p1352
aVPF03446
p1353
atRp1354
sI7015
g2
((lp1355
VPF00078
p1356
aVPF12009
p1357
atRp1358
sI5228
g2
((lp1359
VPF00341
p1360
atRp1361
sI7277
g2
((lp1362
VPF03953
p1363
aVPF00091
p1364
atRp1365
sI1136
g2
((lp1366
VPF02932
p1367
aVPF02931
p1368
atRp1369
sI1137
g2
((lp1370
VPF02932
p1371
aVPF02931
p1372
atRp1373
sI1139
g2
((lp1374
VPF02932
p1375
aVPF02931
p1376
atRp1377
sI5241
g2
((lp1378
VPF00104
p1379
aVPF00105
p1380
aVPF02161
p1381
atRp1382
sI1147
g2
((lp1383
VPF12179
p1384
aVPF00069
p1385
atRp1386
sI7296
g2
((lp1387
VPF07992
p1388
aVPF00462
p1389
aVPF02852
p1390
atRp1391
sI7298
g2
((lp1392
VPF00303
p1393
atRp1394
sI81027
g2
((lp1395
VPF03953
p1396
aVPF00091
p1397
atRp1398
sI1158
g2
((lp1399
VPF00217
p1400
aVPF02807
p1401
atRp1402
sI1159
g2
((lp1403
VPF00217
p1404
aVPF02807
p1405
atRp1406
sI1160
g2
((lp1407
VPF00217
p1408
aVPF02807
p1409
atRp1410
sI9356
g2
((lp1411
VPF00083
p1412
atRp1413
sI2243
g2
((lp1414
VPF08702
p1415
aVPF12160
p1416
aVPF00147
p1417
atRp1418
sI5269
g2
((lp1419
VPF00079
p1420
atRp1421
sI79001
g2
((lp1422
VPF07884
p1423
atRp1424
sI1181
g2
((lp1425
VPF00654
p1426
atRp1427
sI5295
g2
((lp1428
VPF16454
p1429
aVPF00017
p1430
aVPF00620
p1431
atRp1432
sI5296
g2
((lp1433
VPF16454
p1434
aVPF00017
p1435
aVPF00620
p1436
atRp1437
sI3251
g2
((lp1438
VPF00156
p1439
atRp1440
sI40
g2
((lp1441
VPF00858
p1442
atRp1443
sI3269
g2
((lp1444
VPF00001
p1445
atRp1446
sI5320
g2
((lp1447
VPF00068
p1448
atRp1449
sI5321
g2
((lp1450
VPF00168
p1451
aVPF01735
p1452
atRp1453
sI5327
g2
((lp1454
VPF00039
p1455
aVPF00089
p1456
aVPF00008
p1457
aVPF00051
p1458
atRp1459
sI5328
g2
((lp1460
VPF00089
p1461
aVPF00051
p1462
atRp1463
sI5329
g2
((lp1464
VPF00021
p1465
atRp1466
sI1234
g2
((lp1467
VPF00001
p1468
atRp1469
sI3290
g2
((lp1470
VPF00106
p1471
atRp1472
sI5340
g2
((lp1473
VPF00051
p1474
aVPF00089
p1475
aVPF00024
p1476
atRp1477
sI9453
g2
((lp1478
VPF00348
p1479
atRp1480
sI7412
g2
((lp1481
VPF07679
p1482
aVPF05790
p1483
aVPF00047
p1484
atRp1485
sI3320
g2
((lp1486
VPF02518
p1487
aVPF00183
p1488
atRp1489
sI7421
g2
((lp1490
VPF00104
p1491
aVPF00105
p1492
atRp1493
sI7422
g2
((lp1494
VPF14554
p1495
aVPF00341
p1496
atRp1497
sI7423
g2
((lp1498
VPF00341
p1499
atRp1500
sI3339
g2
((lp1501
VPF07679
p1502
aVPF00057
p1503
aVPF00054
p1504
aVPF00052
p1505
aVPF00053
p1506
aVPF13895
p1507
aVPF00008
p1508
atRp1509
sI216
g2
((lp1510
VPF00171
p1511
atRp1512
sI3350
g2
((lp1513
VPF00001
p1514
atRp1515
sI3351
g2
((lp1516
VPF00001
p1517
atRp1518
sI7448
g2
((lp1519
VPF01033
p1520
aVPF00045
p1521
atRp1522
sI7449
g2
((lp1523
VPF00357
p1524
aVPF08441
p1525
aVPF01839
p1526
atRp1527
sI3354
g2
((lp1528
VPF00001
p1529
atRp1530
sI3356
g2
((lp1531
VPF00001
p1532
atRp1533
sI3357
g2
((lp1534
VPF00001
p1535
atRp1536
sI3358
g2
((lp1537
VPF00001
p1538
atRp1539
sI1311
g2
((lp1540
VPF05735
p1541
aVPF07645
p1542
aVPF11598
p1543
aVPF02412
p1544
atRp1545
sI3360
g2
((lp1546
VPF00001
p1547
atRp1548
sI3362
g2
((lp1549
VPF00001
p1550
atRp1551
sI5422
g2
((lp1552
VPF08996
p1553
aVPF12254
p1554
aVPF03104
p1555
aVPF00136
p1556
atRp1557
sI5423
g2
((lp1558
VPF14716
p1559
aVPF10391
p1560
aVPF14792
p1561
aVPF14791
p1562
atRp1563
sI5443
g2
((lp1564
VPF08384
p1565
aVPF00976
p1566
aVPF08035
p1567
atRp1568
sI1356
g2
((lp1569
VPF07732
p1570
aVPF07731
p1571
aVPF00394
p1572
atRp1573
sI1363
g2
((lp1574
VPF00246
p1575
atRp1576
sI3416
g2
((lp1577
VPF00675
p1578
aVPF16187
p1579
aVPF05193
p1580
atRp1581
sI5465
g2
((lp1582
VPF00104
p1583
aVPF00105
p1584
atRp1585
sI5468
g2
((lp1586
VPF00104
p1587
aVPF00105
p1588
aVPF12577
p1589
atRp1590
sI2618
g2
((lp1591
VPF02769
p1592
aVPF00551
p1593
aVPF02844
p1594
aVPF02843
p1595
aVPF00586
p1596
aVPF01071
p1597
atRp1598
sI3643
g2
((lp1599
VPF01030
p1600
aVPF07714
p1601
aVPF00757
p1602
atRp1603
sI7525
g2
((lp1604
VPF00018
p1605
aVPF07714
p1606
aVPF00017
p1607
atRp1608
sI5478
g2
((lp1609
VPF00160
p1610
atRp1611
sI1385
g2
((lp1612
VPF02173
p1613
aVPF00170
p1614
atRp1615
sI25974
g2
((lp1616
VPF16690
p1617
atRp1618
sI3454
g2
((lp1619
VPF01108
p1620
aVPF09294
p1621
atRp1622
sI3455
g2
((lp1623
VPF01108
p1624
aVPF09294
p1625
atRp1626
sI3459
g2
((lp1627
VPF07140
p1628
aVPF01108
p1629
atRp1630
sI3460
g2
((lp1631
VPF01108
p1632
aVPF09294
p1633
atRp1634
sI9607
g2
((lp1635
VPF06373
p1636
atRp1637
sI3480
g2
((lp1638
VPF01030
p1639
aVPF07714
p1640
aVPF00757
p1641
atRp1642
sI3482
g2
((lp1643
VPF00040
p1644
aVPF00878
p1645
atRp1646
sI1436
g2
((lp1647
VPF07714
p1648
aVPF00047
p1649
atRp1650
sI3486
g2
((lp1651
VPF00086
p1652
aVPF00219
p1653
atRp1654
sI5535
g2
((lp1655
VPF13499
p1656
atRp1657
sI101930400
g2
((ltRp1658
sI1441
g2
((lp1659
VPF00041
p1660
aVPF06328
p1661
atRp1662
sI3490
g2
((lp1663
VPF07679
p1664
aVPF00219
p1665
aVPF07648
p1666
atRp1667
sI5553
g2
((lp1668
VPF00059
p1669
atRp1670
sI185
g2
((lp1671
VPF00001
p1672
atRp1673
sI5564
g2
((lp1674
VPF16561
p1675
aVPF04739
p1676
atRp1677
sI50632
g2
((lp1678
VPF06387
p1679
atRp1680
sI5578
g2
((lp1681
VPF00130
p1682
aVPF00168
p1683
aVPF00069
p1684
aVPF00433
p1685
atRp1686
sI5579
g2
((lp1687
VPF00130
p1688
aVPF00168
p1689
aVPF00069
p1690
aVPF00433
p1691
atRp1692
sI1493
g2
((lp1693
VPF07686
p1694
atRp1695
sI5594
g2
((lp1696
VPF00069
p1697
atRp1698
sI5595
g2
((lp1699
VPF00069
p1700
atRp1701
sI3551
g2
((lp1702
VPF12179
p1703
aVPF00069
p1704
atRp1705
sI3552
g2
((lp1706
VPF00340
p1707
aVPF02394
p1708
atRp1709
sI3553
g2
((lp1710
VPF00340
p1711
aVPF02394
p1712
atRp1713
sI760
g2
((lp1714
VPF00194
p1715
atRp1716
sI5604
g2
((lp1717
VPF00069
p1718
atRp1719
sI5605
g2
((lp1720
VPF00069
p1721
atRp1722
sI3559
g2
((lp1723
VPF00084
p1724
atRp1725
sI3560
g2
((ltRp1726
sI3561
g2
((lp1727
VPF09240
p1728
atRp1729
sI3563
g2
((lp1730
VPF09240
p1731
atRp1732
sI5618
g2
((lp1733
VPF09067
p1734
atRp1735
sI5621
g2
((lp1736
VPF00377
p1737
aVPF11587
p1738
atRp1739
sI3577
g2
((lp1740
VPF00001
p1741
atRp1742
sI5627
g2
((lp1743
VPF00054
p1744
aVPF07645
p1745
aVPF00008
p1746
aVPF02210
p1747
aVPF00594
p1748
atRp1749
sI9734
g2
((lp1750
VPF00850
p1751
aVPF12203
p1752
atRp1753
sI6403
g2
((lp1754
VPF00084
p1755
aVPF00059
p1756
atRp1757
sI3609
g2
((lp1758
VPF00035
p1759
aVPF07528
p1760
atRp1761
sI3612
g2
((lp1762
VPF00459
p1763
atRp1764
sI3613
g2
((lp1765
VPF00459
p1766
atRp1767
sI3614
g2
((lp1768
VPF00478
p1769
aVPF00571
p1770
atRp1771
sI3615
g2
((lp1772
VPF00478
p1773
aVPF00571
p1774
atRp1775
sI1576
g2
((lp1776
VPF00067
p1777
atRp1778
sI1586
g2
((lp1779
VPF00067
p1780
atRp1781
sI5689
g2
((lp1782
VPF00227
p1783
atRp1784
sI5690
g2
((lp1785
VPF00227
p1786
atRp1787
sI1595
g2
((lp1788
VPF00067
p1789
atRp1790
sI5693
g2
((lp1791
VPF00227
p1792
atRp1793
sI5696
g2
((lp1794
VPF00227
p1795
atRp1796
sI5698
g2
((lp1797
VPF00227
p1798
atRp1799
sI5699
g2
((lp1800
VPF12465
p1801
aVPF00227
p1802
atRp1803
sI5707
g2
((lp1804
VPF01851
p1805
atRp1806
sI5708
g2
((lp1807
VPF01851
p1808
atRp1809
sI24145
g2
((lp1810
VPF00876
p1811
atRp1812
sI3683
g2
((lp1813
VPF00092
p1814
aVPF00357
p1815
aVPF08441
p1816
aVPF01839
p1817
atRp1818
sI9817
g2
((lp1819
VPF01344
p1820
aVPF07707
p1821
aVPF00651
p1822
atRp1823
sI3674
g2
((lp1824
VPF00357
p1825
aVPF08441
p1826
aVPF01839
p1827
atRp1828
sI3678
g2
((lp1829
VPF01839
p1830
aVPF08441
p1831
atRp1832
sI3685
g2
((lp1833
VPF00357
p1834
aVPF08441
p1835
aVPF01839
p1836
atRp1837
sI1633
g2
((lp1838
VPF01712
p1839
atRp1840
sI5731
g2
((lp1841
VPF00001
p1842
atRp1843
sI1636
g2
((lp1844
VPF01401
p1845
atRp1846
sI5733
g2
((lp1847
VPF00001
p1848
atRp1849
sI5734
g2
((lp1850
VPF00001
p1851
atRp1852
sI3688
g2
((lp1853
VPF07974
p1854
aVPF00362
p1855
aVPF07965
p1856
aVPF17205
p1857
aVPF08725
p1858
atRp1859
sI3689
g2
((lp1860
VPF00362
p1861
aVPF07965
p1862
aVPF17205
p1863
aVPF08725
p1864
atRp1865
sI3690
g2
((lp1866
VPF07974
p1867
aVPF00362
p1868
aVPF07965
p1869
aVPF17205
p1870
aVPF08725
p1871
atRp1872
sI5739
g2
((lp1873
VPF00001
p1874
atRp1875
sI1644
g2
((lp1876
VPF00282
p1877
atRp1878
sI1645
g2
((lp1879
VPF00248
p1880
atRp1881
sI5742
g2
((lp1882
VPF03098
p1883
aVPF00008
p1884
atRp1885
sI5053
g2
((lp1886
VPF01842
p1887
aVPF00351
p1888
atRp1889
sI5745
g2
((lp1890
VPF02793
p1891
aVPF00002
p1892
atRp1893
sI3702
g2
((lp1894
VPF00018
p1895
aVPF00169
p1896
aVPF07714
p1897
aVPF00017
p1898
aVPF00779
p1899
atRp1900
sI5753
g2
((lp1901
VPF00018
p1902
aVPF07714
p1903
aVPF00017
p1904
atRp1905
sI3570
g2
((lp1906
VPF09240
p1907
aVPF00047
p1908
atRp1909
sI1666
g2
((ltRp1910
sI3725
g2
((lp1911
VPF00170
p1912
aVPF03957
p1913
atRp1914
sI5775
g2
((lp1915
VPF00373
p1916
aVPF09380
p1917
aVPF00595
p1918
aVPF09379
p1919
aVPF08736
p1920
aVPF00102
p1921
atRp1922
sI3736
g2
((lp1923
VPF00520
p1924
aVPF02214
p1925
atRp1926
sI5743
g2
((lp1927
VPF03098
p1928
aVPF00008
p1929
atRp1930
sI5791
g2
((lp1931
VPF00102
p1932
atRp1933
sI7846
g2
((lp1934
VPF03953
p1935
aVPF00091
p1936
atRp1937
sI3751
g2
((lp1938
VPF11601
p1939
aVPF00520
p1940
aVPF11879
p1941
aVPF02214
p1942
atRp1943
sI3752
g2
((lp1944
VPF11601
p1945
aVPF00520
p1946
aVPF11879
p1947
aVPF02214
p1948
atRp1949
sI3753
g2
((lp1950
VPF02060
p1951
atRp1952
sI5802
g2
((lp1953
VPF00041
p1954
aVPF07679
p1955
aVPF00102
p1956
atRp1957
sI7852
g2
((lp1958
VPF00001
p1959
aVPF12109
p1960
atRp1961
sI3757
g2
((lp1962
VPF00520
p1963
aVPF00027
p1964
aVPF13426
p1965
atRp1966
sI3758
g2
((lp1967
VPF01007
p1968
atRp1969
sI3762
g2
((lp1970
VPF01007
p1971
atRp1972
sI54963
g2
((lp1973
VPF00485
p1974
aVPF14681
p1975
atRp1976
sI1719
g2
((lp1977
VPF00186
p1978
atRp1979
sI1723
g2
((lp1980
VPF01180
p1981
atRp1982
sI81551
g2
((lp1983
VPF00836
p1984
atRp1985
sI3775
g2
((lp1986
VPF07885
p1987
atRp1988
sI1312
g2
((lp1989
VPF01596
p1990
atRp1991
sI3778
g2
((lp1992
VPF00520
p1993
aVPF03493
p1994
atRp1995
sI3779
g2
((lp1996
VPF03185
p1997
atRp1998
sI3781
g2
((lp1999
VPF03530
p2000
aVPF07885
p2001
aVPF02888
p2002
atRp2003
sI3783
g2
((lp2004
VPF03530
p2005
aVPF07885
p2006
aVPF02888
p2007
atRp2008
sI3784
g2
((lp2009
VPF00520
p2010
aVPF03520
p2011
atRp2012
sI3785
g2
((lp2013
VPF11956
p2014
aVPF00520
p2015
aVPF03520
p2016
atRp2017
sI3786
g2
((lp2018
VPF11956
p2019
aVPF00520
p2020
aVPF03520
p2021
atRp2022
sI5837
g2
((lp2023
VPF00343
p2024
atRp2025
sI3791
g2
((lp2026
VPF07714
p2027
aVPF07679
p2028
aVPF00047
p2029
atRp2030
sI116443
g2
((lp2031
VPF10613
p2032
aVPF00060
p2033
atRp2034
sI116444
g2
((lp2035
VPF10613
p2036
aVPF00060
p2037
atRp2038
sI116447
g2
((lp2039
VPF01028
p2040
aVPF02919
p2041
aVPF14370
p2042
atRp2043
sI3815
g2
((lp2044
VPF07714
p2045
aVPF00047
p2046
atRp2047
sI89832
g2
((lp2048
VPF02932
p2049
aVPF02931
p2050
atRp2051
sI7915
g2
((lp2052
VPF00171
p2053
atRp2054
sI548596
g2
((lp2055
VPF00217
p2056
aVPF02807
p2057
atRp2058
sI1786
g2
((lp2059
VPF01426
p2060
aVPF02008
p2061
aVPF12047
p2062
aVPF00145
p2063
aVPF06464
p2064
atRp2065
sI196
g2
((lp2066
VPF08447
p2067
aVPF00010
p2068
aVPF00989
p2069
atRp2070
sI5894
g2
((lp2071
VPF00130
p2072
aVPF02196
p2073
aVPF07714
p2074
atRp2075
sI1800
g2
((lp2076
VPF01244
p2077
atRp2078
sI1803
g2
((lp2079
VPF00930
p2080
aVPF00326
p2081
atRp2082
sI1806
g2
((lp2083
VPF07992
p2084
aVPF14691
p2085
aVPF01180
p2086
atRp2087
sI3855
g2
((lp2088
VPF00038
p2089
aVPF16208
p2090
atRp2091
sI5243
g2
((lp2092
VPF00005
p2093
aVPF00664
p2094
atRp2095
sI1812
g2
((lp2096
VPF00001
p2097
atRp2098
sI1813
g2
((lp2099
VPF00001
p2100
atRp2101
sI1815
g2
((lp2102
VPF00001
p2103
atRp2104
sI1816
g2
((lp2105
VPF00001
p2106
atRp2107
sI5914
g2
((lp2108
VPF00104
p2109
aVPF00105
p2110
atRp2111
sI5915
g2
((lp2112
VPF00104
p2113
aVPF00105
p2114
atRp2115
sI5916
g2
((lp2116
VPF00104
p2117
aVPF00105
p2118
atRp2119
sI10013
g2
((lp2120
VPF02148
p2121
aVPF00850
p2122
atRp2123
sI10544
g2
((lp2124
VPF16497
p2125
atRp2126
sI10019
g2
((lp2127
VPF08916
p2128
aVPF00169
p2129
aVPF00017
p2130
atRp2131
sI5925
g2
((lp2132
VPF01858
p2133
aVPF11934
p2134
aVPF08934
p2135
aVPF01857
p2136
atRp2137
sI7133
g2
((lp2138
VPF00020
p2139
atRp2140
sI10038
g2
((lp2141
VPF02877
p2142
aVPF00644
p2143
aVPF05406
p2144
atRp2145
sI2697
g2
((lp2146
VPF00029
p2147
aVPF03508
p2148
atRp2149
sI8654
g2
((lp2150
VPF01590
p2151
aVPF00233
p2152
atRp2153
sI10060
g2
((lp2154
VPF00005
p2155
aVPF00664
p2156
atRp2157
sI5972
g2
((lp2158
VPF07966
p2159
aVPF00026
p2160
atRp2161
sI5979
g2
((lp2162
VPF00028
p2163
aVPF07714
p2164
atRp2165
sI3932
g2
((lp2166
VPF00018
p2167
aVPF07714
p2168
aVPF00017
p2169
atRp2170
sI3939
g2
((lp2171
VPF00056
p2172
aVPF02866
p2173
atRp2174
sI1909
g2
((lp2175
VPF00001
p2176
atRp2177
sI1910
g2
((lp2178
VPF00001
p2179
atRp2180
sI4758
g2
((lp2181
VPF13088
p2182
atRp2183
sI59272
g2
((lp2184
VPF16959
p2185
aVPF01401
p2186
atRp2187
sI3978
g2
((lp2188
VPF04679
p2189
aVPF01068
p2190
aVPF04675
p2191
atRp2192
sI3980
g2
((lp2193
VPF16759
p2194
aVPF00645
p2195
aVPF04679
p2196
aVPF01068
p2197
aVPF04675
p2198
atRp2199
sI1956
g2
((lp2200
VPF01030
p2201
aVPF07714
p2202
aVPF00757
p2203
aVPF14843
p2204
atRp2205
sI94121
g2
((lp2206
VPF00168
p2207
aVPF02318
p2208
atRp2209
sI1969
g2
((lp2210
VPF00041
p2211
aVPF14575
p2212
aVPF01404
p2213
aVPF00536
p2214
aVPF07714
p2215
atRp2216
sI4036
g2
((lp2217
VPF00057
p2218
aVPF07645
p2219
aVPF12662
p2220
aVPF00058
p2221
atRp2222
sI1991
g2
((lp2223
VPF00089
p2224
atRp2225
sI4049
g2
((lp2226
VPF00229
p2227
atRp2228
sI3065
g2
((lp2229
VPF00850
p2230
atRp2231
sI10203
g2
((lp2232
VPF02793
p2233
aVPF00002
p2234
atRp2235
sI4067
g2
((lp2236
VPF00018
p2237
aVPF07714
p2238
aVPF00017
p2239
atRp2240
sI4069
g2
((lp2241
VPF00062
p2242
atRp2243
sI51174
g2
((lp2244
VPF00091
p2245
atRp2246
sI51185
g2
((lp2247
VPF02190
p2248
aVPF03226
p2249
atRp2250
sI7283
g2
((lp2251
VPF03953
p2252
aVPF00091
p2253
atRp2254
sI2182
g2
((lp2255
VPF00501
p2256
atRp2257
s.