(dp1
S'9ab41d24ff99---23192c1b61de'
p2
S'different_targets_different_pathways'
p3
sS'3d9467b5fdd1---707a291195e3'
p4
S'different_targets_similar_pathways'
p5
sS'0996b49af35b---27e94925b47b'
p6
g5
sS'613828919554---a367d753726e'
p7
g5
sS'f453e19f77cf---11f0521575a2'
p8
g5
sS'079c365cd839---7f94344fcda6'
p9
S'similar_targets'
p10
sS'0409f638c0a7---b10c26006633'
p11
g5
sS'a2b7ebac5f5d---a3f214b36ae0'
p12
g5
sS'ad335b853d40---f899864d5882'
p13
g3
sS'c2a74de582c2---b5ceb7bb6fa3'
p14
g5
sS'eeeaaebb7f14---5a5e09bfbc50'
p15
g3
sS'ff5b272a48f7---c30e673352f8'
p16
g10
sS'613828919554---9a5e68b1fce1'
p17
g5
sS'3f22e7b051d8---0409f638c0a7'
p18
g5
sS'2776f979dbe3---92aa3ebfa677'
p19
g5
sS'77863da130e3---2eef76af67eb'
p20
g5
sS'419e9c32904b---707a291195e3'
p21
g5
sS'180e2e2f6d5a---9e8a79e5e7dd'
p22
g5
sS'c22d3d56b0a1---9f5ad99db94e'
p23
g3
sS'f27353bd78f4---6acbaaf44b02'
p24
g5
sS'0996b49af35b---cfd3e8bf9449'
p25
g5
sS'3ab964a57133---1dc0fd5ee82e'
p26
g5
sS'b19cbb60871e---338dc723fe70'
p27
g3
sS'de90f9931a3f---11f0521575a2'
p28
g5
sS'f3c625485df3---7b055528d9e6'
p29
g5
sS'9a5e68b1fce1---6acbaaf44b02'
p30
g5
sS'b99f36e120a6---83284e0ae819'
p31
g10
sS'77863da130e3---3f22e7b051d8'
p32
g5
sS'8a8a2cb5e514---293bb0dac29d'
p33
g3
sS'5f18bdd90b49---9e8a79e5e7dd'
p34
g5
sS'fcdf361bda70---6a945bd2fc32'
p35
g5
sS'6cb74583a84d---0409f638c0a7'
p36
g5
sS'eeeaaebb7f14---4f58eb019193'
p37
g3
sS'62681a2f2850---1070b297eef5'
p38
g5
sS'3a43d5454d0c---f3c625485df3'
p39
g5
sS'de6f8f382865---62681a2f2850'
p40
g5
sS'a8edd21111e7---c2a74de582c2'
p41
g5
sS'fb72759a6230---0409f638c0a7'
p42
g5
sS'4bc8611edbb7---0409f638c0a7'
p43
g5
sS'244d291eba56---83284e0ae819'
p44
g3
sS'487114bedabb---f415b5e924ca'
p45
g3
sS'c10a67efe5f2---8319e514267b'
p46
g5
sS'b0884b787d4a---84ed845708d0'
p47
g3
sS'62681a2f2850---5a5e09bfbc50'
p48
g5
sS'61c44404a2e2---6d4c5b083d24'
p49
g5
sS'4034c93601cb---9e8a79e5e7dd'
p50
g5
sS'5ef6b5f689b3---7031864ef107'
p51
g5
sS'4dea3897bf25---628bb088f722'
p52
g5
sS'2eef76af67eb---707a291195e3'
p53
g5
sS'ff5b272a48f7---7c1ba2d58916'
p54
g5
sS'058f8db813a8---3d9467b5fdd1'
p55
g5
sS'6cb74583a84d---1a4c4567d3ac'
p56
g5
sS'2776f979dbe3---98b9c33b90b6'
p57
g5
sS'244d291eba56---93b8d33658bd'
p58
g5
sS'ff5b272a48f7---f3c625485df3'
p59
g5
sS'5e83cca68a8b---95a24775e25e'
p60
g5
sS'5f18bdd90b49---9e63a8f26e14'
p61
g5
sS'2a5c63df59c6---0f99722833d7'
p62
g5
sS'78e308366e23---84ed845708d0'
p63
g5
sS'89d8e79fac69---1cbdc21d9a4e'
p64
g10
sS'9f043f1c3012---0b554365693b'
p65
g5
sS'9a5e68b1fce1---f27353bd78f4'
p66
g5
sS'4034c93601cb---a8cef5af1de1'
p67
g5
sS'4dea3897bf25---84ed845708d0'
p68
g5
sS'c48fe164438d---628bb088f722'
p69
g5
sS'78e308366e23---86e8dd3b3243'
p70
g5
sS'628bb088f722---4b554f3612f8'
p71
g5
sS'48edb3415339---3f22e7b051d8'
p72
g5
sS'6d7a069f1364---27e94925b47b'
p73
g5
sS'333e3ec0fb3a---754395fab379'
p74
g10
sS'156a6dec0498---293bb0dac29d'
p75
g3
sS'42ec4c7d5901---258fbad78b46'
p76
g5
sS'df0ed67240de---b10c26006633'
p77
g5
sS'3f22e7b051d8---7031864ef107'
p78
g5
sS'aaca295cda73---934078b5d323'
p79
g3
sS'bfc9b5e47774---5225ebfd0c89'
p80
g5
sS'ca6ef6736167---e0c3c02eb7b9'
p81
g5
sS'f644518e67e8---92aa3ebfa677'
p82
g3
sS'332acae60b66---46b6e7259ab5'
p83
g5
sS'2563295ce175---5f352da3e046'
p84
g5
sS'613828919554---38db605214f8'
p85
g5
sS'604adcd4b281---23e581bd65ab'
p86
g5
sS'77ab567bd5cc---f3c625485df3'
p87
g5
sS'f27ccd5d226a---f3c625485df3'
p88
g5
sS'84ed845708d0---9a3241d6b680'
p89
g5
sS'11f578f436c1---5a5e09bfbc50'
p90
g5
sS'78fd596b43e3---258fbad78b46'
p91
g5
sS'c27c98e29e20---6cb74583a84d'
p92
g5
sS'74043d829136---9a6b9ce5dd4d'
p93
g5
sS'52f0b78c838a---f899864d5882'
p94
g3
sS'3f22e7b051d8---707a291195e3'
p95
g5
sS'1cd6705701ac---3d9467b5fdd1'
p96
g5
sS'3556cfd68237---a2b7ebac5f5d'
p97
g3
sS'1822d3b8ab6d---6acbaaf44b02'
p98
g5
sS'1f581cab52ea---7c56fe515238'
p99
g5
sS'6c1bee9e1520---203e92364bcf'
p100
g5
sS'5e83cca68a8b---b10c26006633'
p101
g5
sS'06dece1d13c5---c2cb5d7d8d3b'
p102
g5
sS'33f969046a2f---4e674cfe8930'
p103
g5
sS'3d9467b5fdd1---848685598c80'
p104
g5
sS'949a595cba71---ff427f1a87f9'
p105
g3
sS'338dc723fe70---84ed845708d0'
p106
g5
sS'244d291eba56---d866298a8b98'
p107
g3
sS'a8edd21111e7---3d9467b5fdd1'
p108
g5
sS'a4372979f7d2---8b747fc2e9e6'
p109
g3
sS'93b8d33658bd---38db605214f8'
p110
g5
sS'ea45d0fb1c85---6acbaaf44b02'
p111
g5
sS'244d291eba56---236117c1c8c2'
p112
g3
sS'61c44404a2e2---83284e0ae819'
p113
g3
sS'495c357325bf---d33a2c07c292'
p114
g10
sS'604adcd4b281---56f9afa04f30'
p115
g5
sS'5e83cca68a8b---78fd596b43e3'
p116
g5
sS'4bc8611edbb7---b10c26006633'
p117
g5
sS'5a614bd56f3b---f3c625485df3'
p118
g5
sS'5630025d8e85---0409f638c0a7'
p119
g5
sS'6d7a069f1364---848685598c80'
p120
g5
sS'c7bd11796fea---9a6b9ce5dd4d'
p121
g5
sS'c1d8b0104b5e---6d7a069f1364'
p122
g5
sS'77863da130e3---7031864ef107'
p123
g5
sS'62681a2f2850---b1e02050fc5a'
p124
g5
sS'4e674cfe8930---058f8db813a8'
p125
g5
sS'613828919554---83284e0ae819'
p126
g10
sS'5a614bd56f3b---203e92364bcf'
p127
g5
sS'c27c98e29e20---9e8a79e5e7dd'
p128
g5
sS'1831ce17a910---b236b5e89a92'
p129
g3
sS'7b055528d9e6---8e6a6cdd2be0'
p130
g3
sS'5e83cca68a8b---62681a2f2850'
p131
g10
sS'b19cbb60871e---78e308366e23'
p132
g5
sS'f3c625485df3---b49ad15dad3f'
p133
g5
sS'5225ebfd0c89---97f5d43df6f4'
p134
g10
sS'77863da130e3---c2cb5d7d8d3b'
p135
g5
sS'ff5b272a48f7---4afbf3def8ae'
p136
g5
sS'1cd6705701ac---707a291195e3'
p137
g5
sS'c10a67efe5f2---023a492fbeff'
p138
g3
sS'98b9c33b90b6---3c4f1452a846'
p139
g5
sS'b49ad15dad3f---f74125b00f74'
p140
g5
sS'6d7a069f1364---9e63a8f26e14'
p141
g5
sS'244d291eba56---61c44404a2e2'
p142
g5
sS'5a614bd56f3b---4784bb1123bd'
p143
g3
sS'4e674cfe8930---1cd6705701ac'
p144
g5
sS'6cb74583a84d---707a291195e3'
p145
g5
sS'4e674cfe8930---a803c5d3afc5'
p146
g5
sS'0f99722833d7---44df48dd0504'
p147
g5
sS'613828919554---4f58eb019193'
p148
g5
sS'8e6a6cdd2be0---4afbf3def8ae'
p149
g3
sS'f3c625485df3---062120df4658'
p150
g5
sS'84ed845708d0---b236b5e89a92'
p151
g5
sS'f4a58a75af26---0409f638c0a7'
p152
g5
sS'5e83cca68a8b---eeeaaebb7f14'
p153
g5
sS'a2b7ebac5f5d---8e6a6cdd2be0'
p154
g3
sS'f3c625485df3---3556cfd68237'
p155
g5
sS'a4372979f7d2---d8941af4c4f5'
p156
g5
sS'244d291eba56---9a2f9549b4fb'
p157
g3
sS'5a5e09bfbc50---b1e02050fc5a'
p158
g10
sS'62681a2f2850---98b9c33b90b6'
p159
g5
sS'c9c8cb584a8d---44df48dd0504'
p160
g5
sS'98b9c33b90b6---5f18bdd90b49'
p161
g5
sS'07b96f2c7c5d---cfd3e8bf9449'
p162
g5
sS'180e2e2f6d5a---4034c93601cb'
p163
g5
sS'6d7a069f1364---0409f638c0a7'
p164
g10
sS'495c357325bf---84ed845708d0'
p165
g5
sS'56bb083a9a3d---04aa47cda379'
p166
g5
sS'ca392d2a3516---f453e19f77cf'
p167
g5
sS'333e3ec0fb3a---ff427f1a87f9'
p168
g5
sS'c2cb5d7d8d3b---79e169318cfc'
p169
g5
sS'6f4d1061b37c---6acbaaf44b02'
p170
g5
sS'a8edd21111e7---27e94925b47b'
p171
g5
sS'3d9467b5fdd1---7fc8d53242be'
p172
g5
sS'4e674cfe8930---3d9467b5fdd1'
p173
g5
sS'ca6ef6736167---ef6ab69dbf9a'
p174
g5
sS'0996b49af35b---07b96f2c7c5d'
p175
g5
sS'5e83cca68a8b---bf5397e45710'
p176
g5
sS'c30e673352f8---4afbf3def8ae'
p177
g5
sS'23192c1b61de---293bb0dac29d'
p178
g3
sS'4bc8611edbb7---0944d3172fc7'
p179
g5
sS'4dea3897bf25---495c357325bf'
p180
g5
sS'f844474f7b83---707a291195e3'
p181
g5
sS'6acbaaf44b02---419e9c32904b'
p182
g5
sS'13c2084043e9---1a8bf4c04f43'
p183
g5
sS'a46e20dd9d19---caf6865d0c2f'
p184
g5
sS'84ed845708d0---e416a3804dec'
p185
g5
sS'89d8e79fac69---1dc0fd5ee82e'
p186
g5
sS'0996b49af35b---962a9e3c9ae0'
p187
g10
sS'2776f979dbe3---46b6e7259ab5'
p188
g10
sS'058f8db813a8---79e169318cfc'
p189
g5
sS'0409f638c0a7---707a291195e3'
p190
g5
sS'74043d829136---ca392d2a3516'
p191
g5
sS'aaca295cda73---487114bedabb'
p192
g5
sS'c10a67efe5f2---f3c625485df3'
p193
g5
sS'e06eac4106be---95e3d614149d'
p194
g10
sS'd87438b3d8a8---0409f638c0a7'
p195
g5
sS'46d403199c6f---141f5aafaace'
p196
g3
sS'853d71e9bde3---3d9467b5fdd1'
p197
g5
sS'ce2d105afa7f---4bc8611edbb7'
p198
g5
sS'5a614bd56f3b---da628a75712d'
p199
g5
sS'f899864d5882---949a595cba71'
p200
g10
sS'4bc8611edbb7---1010e953c0f6'
p201
g5
sS'dd4b60d4f926---26d5958192c9'
p202
g3
sS'4e674cfe8930---707a291195e3'
p203
g5
sS'4bc8611edbb7---16614a1915e2'
p204
g5
sS'c10a67efe5f2---293bb0dac29d'
p205
g3
sS'a803c5d3afc5---6d7a069f1364'
p206
g5
sS'c7bd11796fea---ca392d2a3516'
p207
g5
sS'5e83cca68a8b---cfd3e8bf9449'
p208
g5
sS'84ed845708d0---707a291195e3'
p209
g5
sS'caf6865d0c2f---6757cc621964'
p210
g5
sS'd33a2c07c292---2563295ce175'
p211
g10
sS'c10a67efe5f2---8a8a2cb5e514'
p212
g5
sS'5e83cca68a8b---07b96f2c7c5d'
p213
g5
sS'4034c93601cb---dc36766b4c84'
p214
g5
sS'9f5ad99db94e---ee9f44db3b45'
p215
g3
sS'7b055528d9e6---1822d3b8ab6d'
p216
g3
sS'aaca295cda73---7b055528d9e6'
p217
g3
sS'e517fe3c4ccb---15362685e3f2'
p218
g5
sS'338dc723fe70---b0884b787d4a'
p219
g3
sS'5e83cca68a8b---dc1d56454712'
p220
g5
sS'5d9bb00e79bd---b10c26006633'
p221
g5
sS'9ab41d24ff99---156a6dec0498'
p222
g5
sS'4034c93601cb---3312803408d1'
p223
g5
sS'332acae60b66---c394d74d5e98'
p224
g5
sS'4034c93601cb---1a4c4567d3ac'
p225
g5
sS'caf6865d0c2f---c953c1283eb5'
p226
g5
sS'13c2084043e9---2eef76af67eb'
p227
g3
sS'84ed845708d0---e42f2f7c2862'
p228
g5
sS'495c357325bf---2563295ce175'
p229
g10
sS'180e2e2f6d5a---b5ceb7bb6fa3'
p230
g5
sS'e06eac4106be---707a291195e3'
p231
g5
sS'4574146eeff5---7c56fe515238'
p232
g5
sS'f3c625485df3---44199f3dea19'
p233
g5
sS'a111af3fa1b4---ba38204be650'
p234
g3
sS'32f7d967dd48---15362685e3f2'
p235
g5
sS'caf6865d0c2f---6acbaaf44b02'
p236
g5
sS'0d131553f706---c2cb5d7d8d3b'
p237
g5
sS'676fd0fe322b---ef28f62f5f46'
p238
g3
sS'e1b4ee4dcac4---effad44719e4'
p239
g3
sS'3d9467b5fdd1---46d403199c6f'
p240
g3
sS'd8941af4c4f5---3d9467b5fdd1'
p241
g5
sS'4034c93601cb---ef6ab69dbf9a'
p242
g5
sS'de90f9931a3f---b10c26006633'
p243
g5
sS'c8d8d8e17cf7---c2cb5d7d8d3b'
p244
g5
sS'848685598c80---707a291195e3'
p245
g5
sS'ca392d2a3516---45026a45e183'
p246
g5
sS'5d9bb00e79bd---78fd596b43e3'
p247
g5
sS'f3c625485df3---203e92364bcf'
p248
g5
sS'fc74376e4afe---293bb0dac29d'
p249
g3
sS'6d7a069f1364---707a291195e3'
p250
g5
sS'fcdf361bda70---6962950e0a5b'
p251
g10
sS'45026a45e183---141f5aafaace'
p252
g3
sS'4034c93601cb---495c357325bf'
p253
g5
sS'1cd6705701ac---f844474f7b83'
p254
g5
sS'338dc723fe70---b236b5e89a92'
p255
g3
sS'4e674cfe8930---6cb74583a84d'
p256
g5
sS'aad89d7be1ca---4afbf3def8ae'
p257
g5
sS'613828919554---61c44404a2e2'
p258
g5
sS'4b1118ccd1cd---36da0f0d63ee'
p259
g5
sS'a07334b328ce---6acbaaf44b02'
p260
g3
sS'2776f979dbe3---27e94925b47b'
p261
g5
sS'93b8d33658bd---26e543dc3fd7'
p262
g5
sS'64b5bdcb3f5c---acfc6d7692b7'
p263
g3
sS'9a5e68b1fce1---caf6865d0c2f'
p264
g5
sS'b49ad15dad3f---bf5397e45710'
p265
g5
sS'4bc8611edbb7---11f0521575a2'
p266
g5
sS'19891533cb0f---7c56fe515238'
p267
g5
sS'91ea9e3c4fa7---6acbaaf44b02'
p268
g5
sS'754395fab379---ff427f1a87f9'
p269
g5
sS'1bf8f8b564cd---23192c1b61de'
p270
g10
sS'46d403199c6f---f4a58a75af26'
p271
g5
sS'aaca295cda73---a3f214b36ae0'
p272
g5
sS'4e674cfe8930---79e169318cfc'
p273
g5
sS'250e24a74a04---83284e0ae819'
p274
g3
sS'6d7a069f1364---c2cb5d7d8d3b'
p275
g5
sS'aaca295cda73---b49ad15dad3f'
p276
g5
sS'250e24a74a04---91ea9e3c4fa7'
p277
g3
sS'61c44404a2e2---91ea9e3c4fa7'
p278
g5
sS'33372661abaa---c160b697bff9'
p279
g3
sS'fcdf361bda70---ef6ab69dbf9a'
p280
g5
sS'f3c625485df3---4afbf3def8ae'
p281
g5
sS'f27353bd78f4---caf6865d0c2f'
p282
g5
sS'f3c625485df3---b1cd9cda6a64'
p283
g5
sS'fb72759a6230---c953c1283eb5'
p284
g5
sS'f453e19f77cf---b10c26006633'
p285
g5
sS'd33a2c07c292---dc36766b4c84'
p286
g10
sS'6acbaaf44b02---bf5397e45710'
p287
g5
sS'2003fd86c360---d8ce07f06749'
p288
g5
sS'e517fe3c4ccb---32f7d967dd48'
p289
g5
sS'3d9467b5fdd1---419e9c32904b'
p290
g5
sS'5f352da3e046---a8cef5af1de1'
p291
g5
sS'f899864d5882---338dc723fe70'
p292
g3
sS'6d4c5b083d24---6acbaaf44b02'
p293
g5
sS'058f8db813a8---0409f638c0a7'
p294
g5
sS'495c357325bf---5f352da3e046'
p295
g5
sS'2c5b1fe3764a---23192c1b61de'
p296
g5
sS'9f5ad99db94e---c30e673352f8'
p297
g3
sS'0b554365693b---0fa3ec0a670a'
p298
g5
sS'0409f638c0a7---11f0521575a2'
p299
g5
sS'bfc9b5e47774---46b6e7259ab5'
p300
g5
sS'c8ede569513a---23192c1b61de'
p301
g5
sS'0996b49af35b---a8edd21111e7'
p302
g10
sS'ae16c5bc84c1---95e3d614149d'
p303
g5
sS'613828919554---91ea9e3c4fa7'
p304
g5
sS'058f8db813a8---707a291195e3'
p305
g5
sS'4e674cfe8930---6d7a069f1364'
p306
g5
sS'ce2d105afa7f---9f5ad99db94e'
p307
g3
sS'415e34cd29a1---604adcd4b281'
p308
g5
sS'f3c625485df3---8e6a6cdd2be0'
p309
g3
sS'0996b49af35b---3d9467b5fdd1'
p310
g5
sS'5a614bd56f3b---d2a9852d0ea3'
p311
g5
sS'5d9bb00e79bd---6d7a069f1364'
p312
g5
sS'f3c625485df3---a3f214b36ae0'
p313
g5
sS'e12c611b6245---26d5958192c9'
p314
g3
sS'9ab41d24ff99---293bb0dac29d'
p315
g3
sS'3d9467b5fdd1---27e94925b47b'
p316
g5
sS'83284e0ae819---91ea9e3c4fa7'
p317
g3
sS'6d7a069f1364---7031864ef107'
p318
g5
sS'4034c93601cb---d2f652ba1478'
p319
g5
sS'c27c98e29e20---5f18bdd90b49'
p320
g5
sS'f3c625485df3---febe8e239f42'
p321
g5
sS'61fa66ac0054---b10c26006633'
p322
g5
sS'3f22e7b051d8---c2a74de582c2'
p323
g5
sS'a0994b11ee1f---3b34aa666a64'
p324
g5
sS'c48fe164438d---4b554f3612f8'
p325
g5
sS'61c44404a2e2---9a5e68b1fce1'
p326
g5
sS'ef28f62f5f46---4bc8611edbb7'
p327
g3
sS'bfc9b5e47774---45026a45e183'
p328
g5
sS'5d9bb00e79bd---11f0521575a2'
p329
g5
sS'9a5e68b1fce1---98b9438563b7'
p330
g5
sS'5f18bdd90b49---4710dfb50d23'
p331
g5
sS'11f578f436c1---b1e02050fc5a'
p332
g5
sS'4034c93601cb---d33a2c07c292'
p333
g5
sS'5e83cca68a8b---848685598c80'
p334
g5
sS'ce2d105afa7f---8b78b0b7acb4'
p335
g10
sS'9e63a8f26e14---9e8a79e5e7dd'
p336
g5
sS'84ed845708d0---628bb088f722'
p337
g5
sS'4784bb1123bd---1070b297eef5'
p338
g3
sS'a97d68fd1769---3ab964a57133'
p339
g10
sS'ca392d2a3516---0409f638c0a7'
p340
g5
sS'74043d829136---c7bd11796fea'
p341
g5
sS'5e83cca68a8b---11f0521575a2'
p342
g5
sS'613828919554---141f5aafaace'
p343
g5
sS'5630025d8e85---419e9c32904b'
p344
g5
sS'1831ce17a910---338dc723fe70'
p345
g10
sS'934078b5d323---f3c625485df3'
p346
g5
sS'5225ebfd0c89---0f3dade32b6c'
p347
g5
sS'3593175cdd32---5f352da3e046'
p348
g5
sS'2563295ce175---dc36766b4c84'
p349
g10
sS'42ec4c7d5901---b1e02050fc5a'
p350
g10
sS'848685598c80---0409f638c0a7'
p351
g5
sS'0d131553f706---ae16c5bc84c1'
p352
g5
sS'6d7a069f1364---058f8db813a8'
p353
g5
sS'707a291195e3---79e169318cfc'
p354
g5
sS'a3f214b36ae0---8e6a6cdd2be0'
p355
g3
sS'6cb74583a84d---419e9c32904b'
p356
g5
sS'180db1471a86---b1e02050fc5a'
p357
g5
sS'a46e20dd9d19---6acbaaf44b02'
p358
g5
sS'9f5ad99db94e---062120df4658'
p359
g3
sS'4034c93601cb---707a291195e3'
p360
g5
sS'19891533cb0f---e0c3c02eb7b9'
p361
g5
sS'6cb74583a84d---3d9467b5fdd1'
p362
g5
sS'4034c93601cb---e0c3c02eb7b9'
p363
g5
sS'6cb74583a84d---c2cb5d7d8d3b'
p364
g5
sS'b19cbb60871e---84ed845708d0'
p365
g5
sS'92943a8ae508---ca3a360c3fdd'
p366
g3
sS'19891533cb0f---ef6ab69dbf9a'
p367
g5
sS'fab1795ff013---0409f638c0a7'
p368
g5
sS'f94a2f72cb01---d6c81147e411'
p369
g5
sS'dccc6095bd23---6acbaaf44b02'
p370
g5
sS'98b9c33b90b6---65de78cc8ea2'
p371
g5
sS'f899864d5882---4b554f3612f8'
p372
g5
sS'dc1d56454712---f453e19f77cf'
p373
g5
sS'058f8db813a8---c2cb5d7d8d3b'
p374
g5
sS'9e8a79e5e7dd---df0ed67240de'
p375
g5
sS'fb72759a6230---caf6865d0c2f'
p376
g5
sS'2776f979dbe3---5f18bdd90b49'
p377
g5
sS'77429190b75a---23e581bd65ab'
p378
g5
sS'6d7a069f1364---419e9c32904b'
p379
g3
sS'180e2e2f6d5a---419e9c32904b'
p380
g5
sS'6d7a069f1364---78fd596b43e3'
p381
g5
sS'67b3e526e806---c160b697bff9'
p382
g3
sS'6cb74583a84d---b5ceb7bb6fa3'
p383
g5
sS'3d9467b5fdd1---141f5aafaace'
p384
g3
sS'6d4c5b083d24---bc791255f3e7'
p385
g10
sS'c394d74d5e98---46b6e7259ab5'
p386
g3
sS'f899864d5882---5f352da3e046'
p387
g5
sS'11f578f436c1---c6c3cbe92233'
p388
g5
sS'5e83cca68a8b---27e94925b47b'
p389
g5
sS'0f7be40d3b2a---c394d74d5e98'
p390
g3
sS'2776f979dbe3---332acae60b66'
p391
g5
sS'4e674cfe8930---27a0675289df'
p392
g10
sS'd87438b3d8a8---6acbaaf44b02'
p393
g5
sS'6d7a069f1364---6cb74583a84d'
p394
g5
sS'4b1118ccd1cd---a2b7ebac5f5d'
p395
g3
sS'18f46f156a2c---966b5f553fc2'
p396
g3
sS'7cea2b9b3f6e---062120df4658'
p397
g5
sS'258fbad78b46---b1e02050fc5a'
p398
g5
sS'495c357325bf---dc36766b4c84'
p399
g10
sS'e517fe3c4ccb---1822d3b8ab6d'
p400
g10
sS'7195ef9835e2---13c2084043e9'
p401
g3
sS'5d9bb00e79bd---27e94925b47b'
p402
g5
sS'9a5e68b1fce1---fcdf361bda70'
p403
g5
sS'aaca295cda73---e517fe3c4ccb'
p404
g5
sS'42b7168b80c5---26d5958192c9'
p405
g3
sS'26d5958192c9---b5216b661fb2'
p406
g3
sS'c2cb5d7d8d3b---c2a74de582c2'
p407
g5
sS'7031864ef107---707a291195e3'
p408
g5
sS'6d4c5b083d24---e2c7780d495f'
p409
g5
sS'a367d753726e---288b4c2002a2'
p410
g3
sS'65de78cc8ea2---258fbad78b46'
p411
g5
sS'9a5e68b1fce1---6d4c5b083d24'
p412
g5
sS'e517fe3c4ccb---b236b5e89a92'
p413
g5
sS'4574146eeff5---ca6ef6736167'
p414
g3
sS'aaca295cda73---4afbf3def8ae'
p415
g3
sS'6cb74583a84d---848685598c80'
p416
g5
sS'495c357325bf---628bb088f722'
p417
g5
sS'f3c625485df3---0e0e01d9d8d3'
p418
g5
sS'244d291eba56---9f043f1c3012'
p419
g5
sS'd33a2c07c292---a8cef5af1de1'
p420
g5
sS'415e34cd29a1---56f9afa04f30'
p421
g5
sS'65de78cc8ea2---a367d753726e'
p422
g5
sS'72369f9bfbcd---38db605214f8'
p423
g5
sS'ca6ef6736167---7c56fe515238'
p424
g5
sS'3d9467b5fdd1---27a0675289df'
p425
g5
sS'c2cb5d7d8d3b---ae16c5bc84c1'
p426
g5
sS'aad89d7be1ca---062120df4658'
p427
g10
sS'92aa3ebfa677---77429190b75a'
p428
g3
sS'aaca295cda73---8e6a6cdd2be0'
p429
g3
sS'aaca295cda73---f3c625485df3'
p430
g5
sS'b1cd9cda6a64---44df48dd0504'
p431
g5
sS'751bd1aef503---65de78cc8ea2'
p432
g5
sS'ce2d105afa7f---ef28f62f5f46'
p433
g3
sS'62681a2f2850---eeeaaebb7f14'
p434
g5
sS'b0884b787d4a---65669fd3320e'
p435
g3
sS'419e9c32904b---0409f638c0a7'
p436
g5
sS'338dc723fe70---86e8dd3b3243'
p437
g3
sS'e0c3c02eb7b9---754395fab379'
p438
g5
sS'f27ccd5d226a---a3f214b36ae0'
p439
g5
sS'5e83cca68a8b---6d7a069f1364'
p440
g5
sS'5a5e09bfbc50---fab1795ff013'
p441
g10
sS'c10a67efe5f2---fc74376e4afe'
p442
g5
sS'c2cb5d7d8d3b---707a291195e3'
p443
g5
sS'45026a45e183---8b747fc2e9e6'
p444
g5
sS'77863da130e3---6d7a069f1364'
p445
g5
sS'33f969046a2f---3d9467b5fdd1'
p446
g5
sS'f3c625485df3---f74125b00f74'
p447
g5
sS'46d403199c6f---0409f638c0a7'
p448
g5
sS'5e83cca68a8b---a4372979f7d2'
p449
g5
sS'33372661abaa---e517fe3c4ccb'
p450
g10
sS'3d9467b5fdd1---6acbaaf44b02'
p451
g5
sS'3556cfd68237---36da0f0d63ee'
p452
g5
sS'058f8db813a8---848685598c80'
p453
g5
sS'33372661abaa---7f94344fcda6'
p454
g3
sS'244d291eba56---613828919554'
p455
g5
sS'0d131553f706---06dece1d13c5'
p456
g5
sS'e517fe3c4ccb---ae16c5bc84c1'
p457
g5
sS'7cea2b9b3f6e---a3f214b36ae0'
p458
g5
sS'5f18bdd90b49---92aa3ebfa677'
p459
g5
sS'e06eac4106be---3f22e7b051d8'
p460
g5
sS'78fd596b43e3---27e94925b47b'
p461
g5
sS'6acbaaf44b02---0409f638c0a7'
p462
g5
sS'86e8dd3b3243---84ed845708d0'
p463
g5
sS'5a614bd56f3b---9f5ad99db94e'
p464
g3
sS'ef28f62f5f46---26d5958192c9'
p465
g3
sS'33f969046a2f---1cd6705701ac'
p466
g5
sS'23192c1b61de---156a6dec0498'
p467
g5
sS'5cdf3757f3c2---bd9f3661519b'
p468
g5
sS'f27ccd5d226a---8e6a6cdd2be0'
p469
g3
sS'a0994b11ee1f---5de79029fc93'
p470
g5
sS'9a5e68b1fce1---38db605214f8'
p471
g5
sS'84ed845708d0---b1cd9cda6a64'
p472
g5
sS'84ed845708d0---65669fd3320e'
p473
g5
sS'338dc723fe70---4875e9fc7daa'
p474
g3
sS'e06eac4106be---180e2e2f6d5a'
p475
g5
sS'6d7a069f1364---3d9467b5fdd1'
p476
g5
sS'f3c625485df3---4b1118ccd1cd'
p477
g5
sS'2776f979dbe3---c394d74d5e98'
p478
g5
sS'3d9467b5fdd1---78fd596b43e3'
p479
g5
sS'7b055528d9e6---bbdc62b8cef9'
p480
g3
sS'3f22e7b051d8---6d7a069f1364'
p481
g5
sS'613828919554---0a31f09327ac'
p482
g5
sS'fc74376e4afe---8319e514267b'
p483
g5
sS'33372661abaa---15362685e3f2'
p484
g5
sS'5e83cca68a8b---0b554365693b'
p485
g5
sS'df0ed67240de---11f0521575a2'
p486
g5
sS'e517fe3c4ccb---b49ad15dad3f'
p487
g5
sS'3f22e7b051d8---95e3d614149d'
p488
g5
sS'd8ce07f06749---a8cef5af1de1'
p489
g5
sS'33f969046a2f---707a291195e3'
p490
g5
sS'd4e3e3c80670---3d9467b5fdd1'
p491
g5
sS'c2cb5d7d8d3b---0409f638c0a7'
p492
g5
sS'338dc723fe70---6acbaaf44b02'
p493
g5
sS'676fd0fe322b---6d4c5b083d24'
p494
g10
sS'77429190b75a---604adcd4b281'
p495
g3
sS'0d131553f706---6d7a069f1364'
p496
g5
sS'3f22e7b051d8---c2cb5d7d8d3b'
p497
g5
sS'2776f979dbe3---4b4dd9ec13b3'
p498
g5
sS'a8edd21111e7---c2cb5d7d8d3b'
p499
g5
sS'4034c93601cb---7c56fe515238'
p500
g5
sS'c04f76802f82---5f352da3e046'
p501
g5
sS'1831ce17a910---84ed845708d0'
p502
g5
sS'08bc92f4c0a7---3ab964a57133'
p503
g5
sS'61fa66ac0054---11f0521575a2'
p504
g5
sS'e0c3c02eb7b9---7c56fe515238'
p505
g5
sS'b0884b787d4a---b236b5e89a92'
p506
g3
sS'0996b49af35b---6cb74583a84d'
p507
g5
s.