(dp1
VDCC0777
p2
c__builtin__
set
p3
((lp4
VL01XE11
p5
atRp6
sVDCC1515
p7
g3
((lp8
VN06AA01
p9
atRp10
sVDCC1459
p11
g3
((lp12
VR06AX19
p13
aVS01GX07
p14
aVR01AC03
p15
atRp16
sVDCC1561
p17
g3
((lp18
VH01AC03
p19
aVH01AC05
p20
atRp21
sVDCC1560
p22
g3
((lp23
VA10BX04
p24
atRp25
sVDCC1450
p26
g3
((lp27
VL02BA03
p28
atRp29
sVDCC1455
p30
g3
((lp31
VC07CA03
p32
aVC07AA17
p33
aVC07AA03
p34
aVC07AA14
p35
atRp36
sVDCC1454
p37
g3
((lp38
VD10AA02
p39
aVD07AA01
p40
aVS01CA08
p41
aVH02BX01
p42
aVD07CA02
p43
aVD07AC14
p44
aVH02AB04
p45
atRp46
sVDCC1564
p47
g3
((lp48
VL04AA24
p49
atRp50
sVDCC0070
p51
g3
((lp52
VG03AB03
p53
aVG03FA11
p54
aVG03AA07
p55
aVG03AD01
p56
aVG03AC03
p57
aVG03FB09
p58
atRp59
sVDCC0071
p60
g3
((lp61
VN05CX01
p62
aVN05BC01
p63
aVN05BC51
p64
atRp65
sVDCC0072
p66
g3
((lp67
VC07DA06
p68
aVS01ED51
p69
aVC07BA06
p70
aVS01ED01
p71
aVC07AA06
p72
atRp73
sVDCC0073
p74
g3
((lp75
VC08CA01
p76
aVC09BX01
p77
aVC09DB05
p78
aVC10BX03
p79
aVC09XA53
p80
aVC09BB03
p81
aVC09BB04
p82
aVC09BB07
p83
aVC09XA54
p84
aVC09DB02
p85
aVC09DB01
p86
aVC09DB07
p87
aVC09DB06
p88
aVC08GA02
p89
aVC09DB04
p90
aVC09DX01
p91
aVC10BX09
p92
aVC09DX03
p93
aVC10BX07
p94
aVC10BX11
p95
atRp96
sVDCC0074
p97
g3
((lp98
VC03DB02
p99
atRp100
sVDCC0075
p101
g3
((lp102
VR01AA04
p103
aVR01BA03
p104
aVR01BA53
p105
aVR01AB01
p106
aVS01GA55
p107
aVC05AX03
p108
aVC01CA06
p109
aVS01GA05
p110
aVS01FB01
p111
atRp112
sVDCC0076
p113
g3
((lp114
VC08CA06
p115
atRp116
sVDCC0077
p117
g3
((lp118
VD07CC04
p119
aVA07EA07
p120
aVD07AC15
p121
aVR03BA01
p122
aVR03AK08
p123
aVR01AD01
p124
atRp125
sVDCC0078
p126
g3
((lp127
VM03BA72
p128
aVM03BA02
p129
aVM03BA52
p130
atRp131
sVDCC0079
p132
g3
((lp133
VL01XE05
p134
atRp135
sVDCC1857
p136
g3
((lp137
VJ01MA13
p138
atRp139
sVDCC1856
p140
g3
((lp141
VC03AB06
p142
aVG01AE10
p143
aVC03AA06
p144
aVC03EA02
p145
atRp146
sVDCC1850
p147
g3
((lp148
VC03BB02
p149
aVC03BA02
p150
atRp151
sVDCC1852
p152
g3
((lp153
VC02LA01
p154
aVC02AA02
p155
aVC02LA71
p156
aVC02AA52
p157
aVC02LA51
p158
atRp159
sVDCC1637
p160
g3
((lp161
VJ05AX09
p162
atRp163
sVDCC1639
p164
g3
((lp165
VL01DC04
p166
atRp167
sVDCC0218
p168
g3
((lp169
VL04AD02
p170
aVD11AH01
p171
atRp172
sVDCC0219
p173
g3
((lp174
VS01EC03
p175
atRp176
sVDCC1208
p177
g3
((lp178
VS01AE07
p179
aVJ01MA14
p180
atRp181
sVDCC0354
p182
g3
((lp183
VD04AA16
p184
aVR06AB05
p185
atRp186
sVDCC0210
p187
g3
((lp188
VR06AB51
p189
aVR06AB01
p190
aVR06AB06
p191
atRp192
sVDCC0211
p193
g3
((lp194
VA07DA53
p195
aVA07DA05
p196
aVA07DA03
p197
atRp198
sVDCC0213
p199
g3
((lp200
VN05AB03
p201
atRp202
sVDCC0214
p203
g3
((lp204
VR01BA52
p205
aVR01BA02
p206
atRp207
sVDCC0216
p208
g3
((lp209
VS03BA02
p210
aVS01BB02
p211
aVD07BA01
p212
aVD07XA02
p213
aVS03CA02
p214
aVS02CA01
p215
aVH02AB06
p216
aVA07EA01
p217
aVC05AA04
p218
aVR01AD02
p219
aVS01BA04
p220
aVS01CA02
p221
aVD07AA03
p222
aVD07AA01
p223
aVV03AB05
p224
aVD07AC14
p225
aVA01AC54
p226
aVS02BA03
p227
aVD10AA02
p228
aVD07CA03
p229
aVH02AB04
p230
aVR01AD52
p231
aVH02AB07
p232
aVS01CB02
p233
atRp234
sVDCC0217
p235
g3
((lp236
VA02BA07
p237
aVA02BA02
p238
atRp239
sVDCC0283
p240
g3
((lp241
VC08CA08
p242
aVC09BB06
p243
atRp244
sVDCC0282
p245
g3
((lp246
VM01AE01
p247
aVR02AX02
p248
aVM01AE14
p249
aVG02CC01
p250
aVM02AA13
p251
aVC01EB16
p252
aVM01AE51
p253
atRp254
sVDCC1682
p255
g3
((lp256
VL04AC04
p257
atRp258
sVDCC0280
p259
g3
((lp260
VJ04AM02
p261
aVJ04AM05
p262
aVJ04AB02
p263
aVJ04AM06
p264
atRp265
sVDCC0287
p266
g3
((lp267
VR06AD05
p268
aVD04AA10
p269
aVV03AB05
p270
aVR06AD02
p271
aVR06AD52
p272
atRp273
sVDCC0286
p274
g3
((lp275
VA10BB07
p276
atRp277
sVDCC1686
p278
g3
((lp279
VB01AF02
p280
atRp281
sVDCC1687
p282
g3
((lp283
VL01XE14
p284
atRp285
sVDCC1688
p286
g3
((lp287
VL01XE17
p288
atRp289
sVDCC1689
p290
g3
((lp291
VM05BX04
p292
atRp293
sVDCC0289
p294
g3
((lp295
VR06AA02
p296
aVR06AA52
p297
aVD04AA32
p298
aVD04AA33
p299
atRp300
sVDCC0288
p301
g3
((lp302
VL01BB05
p303
atRp304
sVDCC1722
p305
g3
((lp306
VC09CA09
p307
aVC09DA09
p308
atRp309
sVDCC1422
p310
g3
((lp311
VR03CC53
p312
aVR03AC03
p313
aVR03CC03
p314
atRp315
sVDCC1703
p316
g3
((lp317
VL02AE01
p318
atRp319
sVDCC1707
p320
g3
((lp321
VL01CD04
p322
atRp323
sVDCC1424
p324
g3
((lp325
VG03GB02
p326
atRp327
sVDCC1425
p328
g3
((lp329
VM05BB02
p330
aVM05BB04
p331
aVM05BB07
p332
aVM05BA07
p333
atRp334
sVDCC1338
p335
g3
((lp336
VC01EB10
p337
atRp338
sVDCC1339
p339
g3
((lp340
VP02CA01
p341
aVP02CA51
p342
atRp343
sVDCC1330
p344
g3
((lp345
VD11AX22
p346
aVP02CF01
p347
atRp348
sVDCC1333
p349
g3
((lp350
VP01BA01
p351
aVP01BA02
p352
atRp353
sVDCC0917
p354
g3
((lp355
VL04AA34
p356
atRp357
sVDCC1335
p358
g3
((lp359
VG03EA01
p360
aVG03EK01
p361
aVG03BA02
p362
atRp363
sVDCC1336
p364
g3
((lp365
VM05BB03
p366
aVM05BA04
p367
aVM05BB06
p368
aVM05BB05
p369
atRp370
sVDCC1813
p371
g3
((lp372
VS02AA01
p373
aVD10AF03
p374
aVD06AX02
p375
aVG01AA05
p376
aVS03AA08
p377
aVS01AA01
p378
aVJ01BA01
p379
atRp380
sVDCC1812
p381
g3
((lp382
VR06AA01
p383
atRp384
sVDCC0271
p385
g3
((lp386
VL01XX17
p387
atRp388
sVDCC0885
p389
g3
((lp390
VA10BD11
p391
aVA10BH05
p392
aVA10BD19
p393
atRp394
sVDCC0051
p395
g3
((lp396
VR05DA12
p397
aVN02AA08
p398
aVN02AA59
p399
aVN02AA79
p400
aVR05DA04
p401
atRp402
sVDCC1816
p403
g3
((lp404
VC02LA03
p405
aVC02AA05
p406
atRp407
sVDCC1149
p408
g3
((lp409
VL04AC02
p410
atRp411
sVDCC1143
p412
g3
((lp413
VL04AA12
p414
aVL04AB02
p415
atRp416
sVDCC1142
p417
g3
((lp418
VB01AC16
p419
atRp420
sVDCC1140
p421
g3
((lp422
VL04AA23
p423
aVL03AB07
p424
atRp425
sVDCC1145
p426
g3
((lp427
VH01BA06
p428
aVH01BA01
p429
aVH01BA03
p430
atRp431
sVDCC1144
p432
g3
((lp433
VG03GA06
p434
aVG03GA05
p435
atRp436
sVDCC0009
p437
g3
((lp438
VL01XC02
p439
atRp440
sVDCC0008
p441
g3
((lp442
VL01XC03
p443
atRp444
sVDCC1414
p445
g3
((lp446
VN06DA02
p447
aVN06DA53
p448
aVN06DA52
p449
atRp450
sVDCC1417
p451
g3
((lp452
VL01AX04
p453
atRp454
sVDCC0002
p455
g3
((lp456
VL03AB61
p457
aVL03AB11
p458
atRp459
sVDCC1411
p460
g3
((lp461
VG03XB01
p462
aVG03XB51
p463
atRp464
sVDCC0007
p465
g3
((lp466
VL04AB04
p467
atRp468
sVDCC1412
p469
g3
((lp470
VC01CA07
p471
atRp472
sVDCC0139
p473
g3
((lp474
VD07AC17
p475
aVR03BA05
p476
aVR01AD08
p477
atRp478
sVDCC1659
p479
g3
((lp480
VP01CB02
p481
atRp482
sVDCC0135
p483
g3
((lp484
VA03BB02
p485
aVA03CB03
p486
aVS01FA05
p487
aVS01FA01
p488
aVN04AC01
p489
aVA03BA03
p490
aVA03BA01
p491
aVN04AC30
p492
atRp493
sVDCC0134
p494
g3
((lp495
VC07BA05
p496
aVC07AA05
p497
aVC07FA05
p498
atRp499
sVDCC0137
p500
g3
((lp501
VC09BA02
p502
aVC09AA02
p503
aVC09BB02
p504
aVC09BB06
p505
atRp506
sVDCC0136
p507
g3
((lp508
VN02CX02
p509
aVC02LC01
p510
aVC02AC01
p511
aVC02LC51
p512
aVS01EA03
p513
aVS01EA04
p514
atRp515
sVDCC0132
p516
g3
((lp517
VN03AF01
p518
atRp519
sVDCC0315
p520
g3
((lp521
VC09AA01
p522
aVC09BA01
p523
atRp524
sVDCC0314
p525
g3
((lp526
VS01EC04
p527
aVS01EC54
p528
atRp529
sVDCC0317
p530
g3
((lp531
VC07AA12
p532
aVC07BA12
p533
atRp534
sVDCC0316
p535
g3
((lp536
VN03AX14
p537
atRp538
sVDCC0311
p539
g3
((lp540
VL01AA06
p541
atRp542
sVDCC0310
p543
g3
((lp544
VN04AB02
p545
aVM03BC51
p546
aVM03BC01
p547
atRp548
sVDCC1246
p549
g3
((lp550
VS01BB03
p551
aVD10AA01
p552
aVS01CA07
p553
aVD07AB06
p554
aVC05AA06
p555
aVD07CB03
p556
aVD07XB04
p557
aVS01BA07
p558
aVS01CB05
p559
atRp560
sVDCC0312
p561
g3
((lp562
VV03AB15
p563
atRp564
sVDCC1249
p565
g3
((lp566
VD11AH02
p567
atRp568
sVDCC0318
p569
g3
((lp570
VJ01FA09
p571
aVA02BD06
p572
aVA02BD07
p573
aVA02BD04
p574
aVA02BD05
p575
aVA02BD11
p576
aVA02BD09
p577
atRp578
sVDCC1482
p579
g3
((lp580
VA06AX03
p581
atRp582
sVDCC1481
p583
g3
((lp584
VN06DX01
p585
aVN06DA52
p586
aVN06DA53
p587
atRp588
sVDCC1486
p589
g3
((lp590
VR03AB02
p591
aVD08AX05
p592
aVR03CB51
p593
aVR03AK02
p594
aVC01CA02
p595
aVR03CB01
p596
atRp597
sVDCC0098
p598
g3
((lp599
VC09AA03
p600
aVR06AX13
p601
aVR06AX27
p602
atRp603
sVDCC0099
p604
g3
((lp605
VR03DC53
p606
aVR03DC03
p607
atRp608
sVDCC0096
p609
g3
((lp610
VL01DB03
p611
atRp612
sVDCC0097
p613
g3
((lp614
VA02BD02
p615
aVA02BD03
p616
aVA02BD10
p617
aVA02BC53
p618
aVA02BD09
p619
aVA02BC03
p620
aVA02BD07
p621
atRp622
sVDCC0094
p623
g3
((lp624
VL01BC05
p625
atRp626
sVDCC0095
p627
g3
((lp628
VS03CA06
p629
aVS03BA03
p630
aVS01CA05
p631
aVS01BB04
p632
aVR03BA04
p633
aVA07EA04
p634
aVH02AB01
p635
aVC05AA05
p636
aVD07CC01
p637
aVD07BC01
p638
aVD07AC01
p639
aVD07XC01
p640
aVS02BA07
p641
aVS01BA06
p642
aVR01AD06
p643
aVS01CB04
p644
atRp645
sVDCC0092
p646
g3
((lp647
VC10AA06
p648
atRp649
sVDCC0093
p650
g3
((lp651
VJ01EE07
p652
aVJ01EE04
p653
aVJ01EE05
p654
aVJ01EE02
p655
aVJ01EE03
p656
aVJ01EE01
p657
aVJ01EA01
p658
atRp659
sVDCC0090
p660
g3
((lp661
VG01AE10
p662
aVC03AA01
p663
aVC03EA13
p664
aVC03AB01
p665
atRp666
sVDCC0723
p667
g3
((lp668
VL01XE32
p669
atRp670
sVDCC1745
p671
g3
((lp672
VL04AX06
p673
atRp674
sVDCC1744
p675
g3
((lp676
VN07XX09
p677
atRp678
sVDCC1742
p679
g3
((lp680
VR01AD12
p681
aVR03BA09
p682
aVR03AK10
p683
atRp684
sVDCC1749
p685
g3
((lp686
VL03AC01
p687
aVL03AB60
p688
aVA10AB01
p689
aVL03AB10
p690
atRp691
sVDCC0261
p692
g3
((lp693
VR03AC02
p694
aVR03AK04
p695
aVR03CC02
p696
aVR03AL02
p697
atRp698
sVDCC0260
p699
g3
((lp700
VG01AE10
p701
aVC03AB03
p702
aVC09XA52
p703
aVC03AA03
p704
aVC09XA54
p705
aVC03EA01
p706
aVC09DX01
p707
aVC09DX03
p708
aVC03AX01
p709
atRp710
sVDCC0263
p711
g3
((lp712
VL01XX05
p713
atRp714
sVDCC0265
p715
g3
((lp716
VM01AE53
p717
aVM01AE17
p718
aVM01AE03
p719
aVM02AA10
p720
atRp721
sVDCC0267
p722
g3
((lp723
VA10BB01
p724
atRp725
sVDCC0266
p726
g3
((lp727
VG01AE10
p728
aVJ01EC01
p729
aVJ01EE01
p730
atRp731
sVDCC0269
p732
g3
((lp733
VC08CA02
p734
aVC09BB05
p735
atRp736
sVDCC0268
p737
g3
((lp738
VJ01AA20
p739
aVJ01AA08
p740
aVA01AB23
p741
atRp742
sVDCC1664
p743
g3
((lp744
VL04AC08
p745
atRp746
sVDCC1662
p747
g3
((lp748
VV03AB23
p749
aVS01XA08
p750
aVR05CB01
p751
atRp752
sVDCC0797
p753
g3
((lp754
VR03AK10
p755
aVR03AL03
p756
atRp757
sVDCC1188
p758
g3
((lp759
VA11HA02
p760
atRp761
sVDCC1183
p762
g3
((lp763
VB03BB51
p764
aVB03AE01
p765
aVB03AE02
p766
aVB03BB01
p767
atRp768
sVDCC1182
p769
g3
((lp770
VA11CC01
p771
atRp772
sVDCC1181
p773
g3
((lp774
VC01EB06
p775
atRp776
sVDCC1345
p777
g3
((lp778
VN07BB03
p779
atRp780
sVDCC1204
p781
g3
((lp782
VG04BD09
p783
aVA03DA06
p784
atRp785
sVDCC0358
p786
g3
((lp787
VD05AX52
p788
aVD05AX02
p789
atRp790
sVDCC1116
p791
g3
((lp792
VL02AE03
p793
atRp794
sVDCC1117
p795
g3
((lp796
VB01AD07
p797
atRp798
sVDCC1110
p799
g3
((lp800
VL04AB01
p801
atRp802
sVDCC1112
p803
g3
((lp804
VL02AE02
p805
atRp806
sVDCC0603
p807
g3
((lp808
VG03GA06
p809
aVG03GA05
p810
atRp811
sVDCC1118
p812
g3
((lp813
VB03XA02
p814
aVB03XA01
p815
atRp816
sVDCC1446
p817
g3
((lp818
VS01GA04
p819
aVR01AB07
p820
aVR01AA05
p821
atRp822
sVDCC1443
p823
g3
((lp824
VL01BC07
p825
atRp826
sVDCC1838
p827
g3
((lp828
VG01AE10
p829
aVC03AA08
p830
aVC03AB08
p831
atRp832
sVDCC0768
p833
g3
((lp834
VL01XX42
p835
atRp836
sVDCC1524
p837
g3
((lp838
VN06AB10
p839
atRp840
sVDCC1521
p841
g3
((lp842
VJ02AC02
p843
atRp844
sVDCC1520
p845
g3
((lp846
VB01AC23
p847
atRp848
sVDCC1522
p849
g3
((lp850
VL01XB01
p851
atRp852
sVDCC0199
p853
g3
((lp854
VS01AA11
p855
aVS03AA06
p856
aVJ01GB03
p857
aVD06AX07
p858
aVS02AA14
p859
atRp860
sVDCC0198
p861
g3
((lp862
VC09DB07
p863
aVC09DA06
p864
aVC09CA06
p865
atRp866
sVDCC0192
p867
g3
((lp868
VN03AF02
p869
atRp870
sVDCC0191
p871
g3
((lp872
VL01CB01
p873
atRp874
sVDCC0197
p875
g3
((lp876
VC09BX02
p877
aVC09BX01
p878
aVC09BA04
p879
aVC09AA04
p880
aVC09BB04
p881
aVC10BX11
p882
atRp883
sVDCC0196
p884
g3
((lp885
VM01AE56
p886
aVG02CC02
p887
aVM02AA12
p888
aVM01AE52
p889
aVM01AE02
p890
atRp891
sVDCC0194
p892
g3
((lp893
VG03FA08
p894
aVG03FA13
p895
aVG03FA12
p896
aVG03FA11
p897
aVG03FA10
p898
aVG03FA17
p899
aVG03FA16
p900
aVG03FA15
p901
aVG03FA14
p902
aVG03CA53
p903
aVL02AA03
p904
aVL02AA02
p905
aVG03AB08
p906
aVG03FB10
p907
aVG03FB11
p908
aVG03FB12
p909
aVG03CA03
p910
aVG03FA09
p911
aVG03CA01
p912
aVG03EA01
p913
aVG03EA03
p914
aVG03EA02
p915
aVG03FA01
p916
aVG03FA02
p917
aVG03FA03
p918
aVG03FA04
p919
aVG03FA05
p920
aVG03FA06
p921
aVG03FA07
p922
aVG03AA14
p923
aVG03HB01
p924
aVG02BB01
p925
aVG03FB03
p926
aVG03FB02
p927
aVG03FB01
p928
aVG03FB07
p929
aVG03FB06
p930
aVG03FB05
p931
aVG03FB04
p932
aVG03FB09
p933
aVG03FB08
p934
atRp935
sVDCC0081
p936
g3
((lp937
VR06AB06
p938
aVR06AB56
p939
atRp940
sVDCC1494
p941
g3
((lp942
VC10AA04
p943
atRp944
sVDCC0166
p945
g3
((lp946
VA01AD01
p947
aVR01AA14
p948
aVC01CA03
p949
aVB02BC09
p950
aVS01EA01
p951
aVS01EA51
p952
aVR03AK01
p953
aVR03AA01
p954
aVC01CA24
p955
atRp956
sVDCC0167
p957
g3
((lp958
VN02CC01
p959
aVG01AE10
p960
atRp961
sVDCC0165
p962
g3
((lp963
VC08DA01
p964
aVC08DA51
p965
aVC09BB10
p966
atRp967
sVDCC0049
p968
g3
((lp969
VN02BE71
p970
aVN02BE01
p971
aVN02BE51
p972
atRp973
sVDCC0163
p974
g3
((lp975
VN02AD01
p976
atRp977
sVDCC0160
p978
g3
((lp979
VN02AC54
p980
aVN02AC74
p981
aVN02AC04
p982
atRp983
sVDCC1842
p984
g3
((lp985
VC02KC01
p986
aVC02LL01
p987
atRp988
sVDCC0044
p989
g3
((lp990
VN01BB01
p991
aVN01BB10
p992
aVN01BB51
p993
atRp994
sVDCC0047
p995
g3
((lp996
VG01AE10
p997
aVC03EA06
p998
aVC03BA04
p999
aVC03BB04
p1000
atRp1001
sVDCC0041
p1002
g3
((lp1003
VR06AA54
p1004
aVR06AA04
p1005
aVD04AA14
p1006
atRp1007
sVDCC0040
p1008
g3
((lp1009
VA01AD11
p1010
aVS01HA07
p1011
aVN01BB52
p1012
aVD04AB01
p1013
aVC01BB01
p1014
aVN01BB02
p1015
aVR02AD02
p1016
aVC05AD01
p1017
aVS02DA01
p1018
atRp1019
sVDCC1844
p1020
g3
((lp1021
VG04BX06
p1022
atRp1023
sVDCC1845
p1024
g3
((lp1025
VR01BA51
p1026
aVR01BA01
p1027
atRp1028
sVDCC0227
p1029
g3
((lp1030
VC01DA08
p1031
aVC05AE02
p1032
aVD03AX08
p1033
aVC01DA58
p1034
atRp1035
sVDCC0226
p1036
g3
((lp1037
VC09BA06
p1038
aVC09AA06
p1039
atRp1040
sVDCC0220
p1041
g3
((lp1042
VS01BA14
p1043
atRp1044
sVDCC0223
p1045
g3
((lp1046
VL04AA10
p1047
aVS01XA23
p1048
atRp1049
sVDCC0222
p1050
g3
((lp1051
VC09DA02
p1052
aVC09CA02
p1053
atRp1054
sVDCC1628
p1055
g3
((lp1056
VL01AD05
p1057
atRp1058
sVDCC0738
p1059
g3
((lp1060
VR03AL04
p1061
aVR03AC18
p1062
atRp1063
sVDCC0229
p1064
g3
((lp1065
VR06AD04
p1066
atRp1067
sVDCC0228
p1068
g3
((lp1069
VJ05AF02
p1070
atRp1071
sVDCC0089
p1072
g3
((lp1073
VN05AB04
p1074
atRp1075
sVDCC0348
p1076
g3
((lp1077
VL04AA18
p1078
aVL01XE10
p1079
atRp1080
sVDCC0088
p1081
g3
((lp1082
VS01AD02
p1083
aVL01BC59
p1084
atRp1085
sVDCC1231
p1086
g3
((lp1087
VN06AX16
p1088
aVN06AX23
p1089
atRp1090
sVDCC0347
p1091
g3
((lp1092
VN06BA03
p1093
atRp1094
sVDCC0345
p1095
g3
((lp1096
VN01AX11
p1097
aVN07XX04
p1098
atRp1099
sVDCC0342
p1100
g3
((lp1101
VM04AC01
p1102
atRp1103
sVDCC0343
p1104
g3
((lp1105
VG03AC10
p1106
aVG03FA17
p1107
aVG03AA12
p1108
atRp1109
sVDCC0613
p1110
g3
((lp1111
VL02BX03
p1112
atRp1113
sVDCC1680
p1114
g3
((lp1115
VA10BD10
p1116
aVA10BD21
p1117
aVA10BH03
p1118
atRp1119
sVDCC1505
p1120
g3
((lp1121
VA10BB09
p1122
atRp1123
sVDCC1681
p1124
g3
((lp1125
VL01XC13
p1126
atRp1127
sVDCC0325
p1128
g3
((lp1129
VS01CA01
p1130
aVD10AA03
p1131
aVS02BA06
p1132
aVD07AB19
p1133
aVS03BA01
p1134
aVS01BA01
p1135
aVA01AC02
p1136
aVS01CB01
p1137
aVS02CA06
p1138
aVH02AB02
p1139
aVS03CA01
p1140
aVR01AD53
p1141
aVR01AD03
p1142
aVD07XB05
p1143
aVC05AA09
p1144
aVD07CB04
p1145
atRp1146
sVDCC0290
p1147
g3
((lp1148
VC10AA05
p1149
aVC10BX03
p1150
aVC10BA05
p1151
aVC10BX06
p1152
aVC10BX08
p1153
aVC10BX11
p1154
atRp1155
sVDCC0291
p1156
g3
((lp1157
VA07DA01
p1158
atRp1159
sVDCC0292
p1160
g3
((lp1161
VJ04AM01
p1162
aVA07AA04
p1163
aVA07AA54
p1164
aVJ01GA01
p1165
aVS01AA15
p1166
atRp1167
sVDCC0293
p1168
g3
((lp1169
VB01AC11
p1170
atRp1171
sVDCC0294
p1172
g3
((lp1173
VC10BA06
p1174
aVC10AA07
p1175
aVG01AE10
p1176
aVC10BX05
p1177
aVC10BX07
p1178
aVC10BX09
p1179
aVC10BX10
p1180
atRp1181
sVDCC0295
p1182
g3
((lp1183
VL01BC06
p1184
atRp1185
sVDCC0296
p1186
g3
((lp1187
VS01XA09
p1188
aVS01XA14
p1189
aVB01AB51
p1190
aVC05BA03
p1191
aVC05BA01
p1192
aVB01AB05
p1193
aVB01AB01
p1194
aVC05BA53
p1195
atRp1196
sVDCC0297
p1197
g3
((lp1198
VS02AA13
p1199
aVJ02AB01
p1200
aVG01AF04
p1201
aVD01AC02
p1202
aVA07AC01
p1203
aVD01AC52
p1204
aVA01AB09
p1205
atRp1206
sVDCC0298
p1207
g3
((lp1208
VR06AB02
p1209
aVR06AB54
p1210
aVR06AB04
p1211
atRp1212
sVDCC0299
p1213
g3
((lp1214
VP01AX06
p1215
atRp1216
sVDCC1657
p1217
g3
((lp1218
VL01XE12
p1219
atRp1220
sVDCC1710
p1221
g3
((lp1222
VL03AX16
p1223
atRp1224
sVDCC0908
p1225
g3
((lp1226
VG03AA08
p1227
aVG03FA12
p1228
aVG03FB06
p1229
aVG03DA02
p1230
aVG03AC06
p1231
aVL02AB02
p1232
atRp1233
sVDCC1679
p1234
g3
((lp1235
VN05AL05
p1236
atRp1237
sVDCC0452
p1238
g3
((lp1239
VV04CG05
p1240
aVV03AB17
p1241
atRp1242
sVDCC1436
p1243
g3
((lp1244
VN03AX15
p1245
atRp1246
sVDCC0834
p1247
g3
((lp1248
VL02AE04
p1249
atRp1250
sVDCC0450
p1251
g3
((lp1252
VL01XX09
p1253
atRp1254
sVDCC0158
p1255
g3
((lp1256
VL01BA04
p1257
atRp1258
sVDCC0157
p1259
g3
((lp1260
VA10BH51
p1261
aVC10AA01
p1262
aVC10BX01
p1263
aVC10BA02
p1264
aVC10BA04
p1265
aVC10BX04
p1266
atRp1267
sVDCC1820
p1268
g3
((lp1269
VN02CA01
p1270
aVN02CA51
p1271
atRp1272
sVDCC1400
p1273
g3
((lp1274
VD05AX05
p1275
atRp1276
sVDCC0154
p1277
g3
((lp1278
VN05CM18
p1279
atRp1280
sVDCC0153
p1281
g3
((lp1282
VL01BB06
p1283
atRp1284
sVDCC1407
p1285
g3
((lp1286
VG04BE08
p1287
atRp1288
sVDCC0151
p1289
g3
((lp1290
VR02AB04
p1291
aVJ01XX10
p1292
aVD06AX05
p1293
atRp1294
sVDCC1537
p1295
g3
((lp1296
VL01AD02
p1297
atRp1298
sVDCC0020
p1299
g3
((lp1300
VJ01FA01
p1301
aVS01AA17
p1302
aVD10AF52
p1303
aVD10AF02
p1304
atRp1305
sVDCC0129
p1306
g3
((lp1307
VN03AX09
p1308
atRp1309
sVDCC0122
p1310
g3
((lp1311
VL01XE03
p1312
atRp1313
sVDCC0123
p1314
g3
((lp1315
VL01DB07
p1316
aVL01AA01
p1317
atRp1318
sVDCC0121
p1319
g3
((lp1320
VC08CA13
p1321
aVC09BB02
p1322
aVC09DB08
p1323
atRp1324
sVDCC0126
p1325
g3
((lp1326
VL01CA02
p1327
atRp1328
sVDCC0127
p1329
g3
((lp1330
VC09AA07
p1331
aVC09BA07
p1332
atRp1333
sVDCC0124
p1334
g3
((lp1335
VS02AA15
p1336
aVJ01RA10
p1337
aVJ01RA11
p1338
aVJ01RA12
p1339
aVJ01MA02
p1340
aVS03AA07
p1341
aVS01AE03
p1342
atRp1343
sVDCC0125
p1344
g3
((lp1345
VL02BA02
p1346
atRp1347
sVDCC0302
p1348
g3
((lp1349
VP01BB51
p1350
aVP01BB01
p1351
atRp1352
sVDCC0303
p1353
g3
((lp1354
VA10BD12
p1355
aVA10BD09
p1356
aVA10BG03
p1357
aVA10BD06
p1358
aVA10BD05
p1359
atRp1360
sVDCC0300
p1361
g3
((lp1362
VG01AE10
p1363
aVC02DA01
p1364
aVV03AH01
p1365
atRp1366
sVDCC0301
p1367
g3
((lp1368
VA02BC04
p1369
aVA02BC54
p1370
aVM01AA05
p1371
aVM02AA03
p1372
atRp1373
sVDCC0306
p1374
g3
((lp1375
VA08AA62
p1376
aVN06AX12
p1377
atRp1378
sVDCC0307
p1379
g3
((lp1380
VP01AX07
p1381
atRp1382
sVDCC0304
p1383
g3
((lp1384
VJ01RA05
p1385
aVS01AE05
p1386
aVA02BD10
p1387
aVJ01MA12
p1388
atRp1389
sVDCC0308
p1390
g3
((lp1391
VL01XX27
p1392
atRp1393
sVDCC1273
p1394
g3
((lp1395
VN06BA04
p1396
atRp1397
sVDCC1579
p1398
g3
((lp1399
VD11AX05
p1400
aVA06AD19
p1401
aVG04BX01
p1402
aVC10AX07
p1403
aVB05XA05
p1404
aVA12CC10
p1405
aVA02AA04
p1406
aVA02AA05
p1407
aVA02AA02
p1408
aVA02AA03
p1409
aVA02AA01
p1410
aVA12CC30
p1411
aVA06AD04
p1412
aVA06AD03
p1413
aVA06AD02
p1414
aVA06AD01
p1415
aVV04CC02
p1416
aVB05XA10
p1417
aVB05XA11
p1418
aVA12CC09
p1419
aVA12CC08
p1420
aVB05CB03
p1421
aVA12CC01
p1422
aVA12CC03
p1423
aVA12CC02
p1424
aVA12CC05
p1425
aVA12CC04
p1426
aVA12CC07
p1427
aVA12CC06
p1428
atRp1429
sVDCC1479
p1430
g3
((lp1431
VG04BD07
p1432
atRp1433
sVDCC1478
p1434
g3
((lp1435
VG01AF11
p1436
aVJ02AB02
p1437
aVG01AF20
p1438
aVD01AC08
p1439
atRp1440
sVDCC1477
p1441
g3
((lp1442
VL04AA06
p1443
atRp1444
sVDCC1474
p1445
g3
((lp1446
VD07AD01
p1447
atRp1448
sVDCC1473
p1449
g3
((lp1450
VH05BX01
p1451
atRp1452
sVDCC0043
p1453
g3
((lp1454
VN02AA09
p1455
aVR05DA05
p1456
aVR05DA01
p1457
aVN02AA01
p1458
aVA07DA52
p1459
aVD10AX30
p1460
aVN02AA04
p1461
aVN02AA51
p1462
aVG04BE07
p1463
aVS01XA06
p1464
aVN02AG01
p1465
aVN04BC07
p1466
atRp1467
sVDCC0717
p1468
g3
((lp1469
VB02BX04
p1470
atRp1471
sVDCC1860
p1472
g3
((lp1473
VD02AE01
p1474
aVB05BC02
p1475
atRp1476
sVDCC0016
p1477
g3
((lp1478
VL01XX32
p1479
atRp1480
sVDCC0014
p1481
g3
((lp1482
VC09DB08
p1483
aVC09CA03
p1484
aVC09DA03
p1485
aVC09DB01
p1486
aVC09DX01
p1487
aVC09DX02
p1488
aVC09DX04
p1489
aVC10BX10
p1490
atRp1491
sVDCC0015
p1492
g3
((lp1493
VC09AA05
p1494
aVC09BA05
p1495
aVC09BB05
p1496
aVC09BB07
p1497
aVC10BX04
p1498
aVC10BX06
p1499
atRp1500
sVDCC0012
p1501
g3
((lp1502
VL01XC07
p1503
atRp1504
sVDCC0013
p1505
g3
((lp1506
VB03BA51
p1507
aVB03BA01
p1508
aVB03AE01
p1509
aVB03BB01
p1510
atRp1511
sVDCC0011
p1512
g3
((lp1513
VL04AD01
p1514
aVS01XA18
p1515
atRp1516
sVDCC0042
p1517
g3
((lp1518
VG03AC08
p1519
atRp1520
sVDCC0018
p1521
g3
((lp1522
VN02AX02
p1523
aVN02AX52
p1524
atRp1525
sVDCC0019
p1526
g3
((lp1527
VJ05AH02
p1528
atRp1529
sVDCC0152
p1530
g3
((lp1531
VC04AC01
p1532
aVC10AD02
p1533
aVC10AD52
p1534
aVC10BA01
p1535
atRp1536
sVDCC0377
p1537
g3
((lp1538
VR01AC04
p1539
aVR06AX05
p1540
atRp1541
sVDCC0376
p1542
g3
((lp1543
VD08AE04
p1544
aVD09AA06
p1545
atRp1546
sVDCC0375
p1547
g3
((lp1548
VS01GA51
p1549
aVS01GA01
p1550
aVR01AA08
p1551
aVR01AB02
p1552
atRp1553
sVDCC0371
p1554
g3
((lp1555
VA10BD13
p1556
aVA10BD09
p1557
aVA10BH04
p1558
atRp1559
sVDCC0370
p1560
g3
((lp1561
VL03AX13
p1562
atRp1563
sVDCC0276
p1564
g3
((lp1565
VC10BA03
p1566
aVC10AB05
p1567
aVC10BA04
p1568
atRp1569
sVDCC0277
p1570
g3
((lp1571
VL04AX02
p1572
atRp1573
sVDCC0275
p1574
g3
((lp1575
VC01BA02
p1576
atRp1577
sVDCC0272
p1578
g3
((lp1579
VG01AE10
p1580
aVM04AB01
p1581
atRp1582
sVDCC0273
p1583
g3
((lp1584
VL01BB02
p1585
atRp1586
sVDCC0270
p1587
g3
((lp1588
VC09DA04
p1589
aVC09CA04
p1590
aVC09DB05
p1591
atRp1592
sVDCC0378
p1593
g3
((lp1594
VL04AA27
p1595
atRp1596
sVDCC1589
p1597
g3
((lp1598
VA11CC03
p1599
aVM05BB06
p1600
atRp1601
sVDCC0920
p1602
g3
((lp1603
VM01AB15
p1604
aVS01BC05
p1605
atRp1606
sVDCC1584
p1607
g3
((lp1608
VR03BB54
p1609
aVR03BB04
p1610
aVR03AL06
p1611
atRp1612
sVDCC0080
p1613
g3
((lp1614
VM05BA08
p1615
aVM05BB08
p1616
atRp1617
sVDCC1677
p1618
g3
((lp1619
VH05AA02
p1620
atRp1621
sVDCC1676
p1622
g3
((lp1623
VL04AC07
p1624
atRp1625
sVDCC1727
p1626
g3
((lp1627
VJ05AG05
p1628
aVJ05AR19
p1629
aVJ05AR08
p1630
atRp1631
sVDCC1726
p1632
g3
((lp1633
VC10AA08
p1634
atRp1635
sVDCC1199
p1636
g3
((lp1637
VA08AA01
p1638
atRp1639
sVDCC1678
p1640
g3
((lp1641
VL01XE09
p1642
atRp1643
sVDCC1194
p1644
g3
((lp1645
VN06BA01
p1646
aVN06BA02
p1647
atRp1648
sVDCC1191
p1649
g3
((lp1650
VC10BA03
p1651
aVC10BX02
p1652
aVC10AA03
p1653
atRp1654
sVDCC1728
p1655
g3
((lp1656
VL01XC12
p1657
atRp1658
sVDCC1297
p1659
g3
((lp1660
VJ01DD51
p1661
aVJ01DD01
p1662
atRp1663
sVDCC1293
p1664
g3
((lp1665
VN06AX21
p1666
atRp1667
sVDCC1356
p1668
g3
((lp1669
VC04AB01
p1670
aVV03AB36
p1671
atRp1672
sVDCC1357
p1673
g3
((lp1674
VL01DB02
p1675
atRp1676
sVDCC1354
p1677
g3
((lp1678
VH02AA02
p1679
aVS03CA05
p1680
aVS02CA07
p1681
aVS01CA06
p1682
atRp1683
sVDCC1355
p1684
g3
((lp1685
VC09AA13
p1686
aVC09BA13
p1687
atRp1688
sVDCC1353
p1689
g3
((lp1690
VN05CD08
p1691
atRp1692
sVDCC1351
p1693
g3
((lp1694
VA04AD12
p1695
atRp1696
sVDCC0119
p1697
g3
((lp1698
VC09AA10
p1699
aVC09BB10
p1700
atRp1701
sVDCC1121
p1702
g3
((lp1703
VL03AA09
p1704
atRp1705
sVDCC1120
p1706
g3
((lp1707
VL03AA10
p1708
aVL03AA13
p1709
atRp1710
sVDCC1122
p1711
g3
((lp1712
VL04AC03
p1713
atRp1714
sVDCC1124
p1715
g3
((lp1716
VA10AD01
p1717
aVA10AD05
p1718
aVA10AC01
p1719
aVA10AC03
p1720
aVA10AB04
p1721
aVA10AB05
p1722
aVA10AB01
p1723
aVA10AB03
p1724
aVA10AE01
p1725
aVA10AF01
p1726
aVA10AE05
p1727
aVA10AE04
p1728
atRp1729
sVDCC1127
p1730
g3
((lp1731
VL03AB04
p1732
aVL03AB11
p1733
atRp1734
sVDCC1129
p1735
g3
((lp1736
VV03AF08
p1737
atRp1738
sVDCC1433
p1739
g3
((lp1740
VC03CC01
p1741
atRp1742
sVDCC1432
p1743
g3
((lp1744
VN01AH06
p1745
atRp1746
sVDCC1431
p1747
g3
((lp1748
VD08AX08
p1749
aVV03AB16
p1750
aVV03AZ01
p1751
aVD01AE06
p1752
atRp1753
sVDCC1828
p1754
g3
((lp1755
VD07CC03
p1756
aVD07AC07
p1757
atRp1758
sVDCC1829
p1759
g3
((lp1760
VC02LF01
p1761
aVC02CC02
p1762
aVS01EX01
p1763
atRp1764
sVDCC0029
p1765
g3
((lp1766
VC10BA01
p1767
aVC10AA02
p1768
atRp1769
sVDCC1434
p1770
g3
((lp1771
VA04AA01
p1772
atRp1773
sVDCC0027
p1774
g3
((lp1775
VA10BB12
p1776
aVA10BD06
p1777
aVA10BD04
p1778
atRp1779
sVDCC0026
p1780
g3
((lp1781
VA02BD11
p1782
aVA02BD04
p1783
aVA02BC02
p1784
atRp1785
sVDCC0025
p1786
g3
((lp1787
VD10AD53
p1788
aVD10AD03
p1789
atRp1790
sVDCC0024
p1791
g3
((lp1792
VJ01FA10
p1793
aVJ01RA07
p1794
aVS01AA26
p1795
atRp1796
sVDCC0023
p1797
g3
((lp1798
VP01BD01
p1799
aVP01BF04
p1800
aVP01BD51
p1801
atRp1802
sVDCC0022
p1803
g3
((lp1804
VG04BE03
p1805
aVG01AE10
p1806
atRp1807
sVDCC0021
p1808
g3
((lp1809
VN02BE01
p1810
aVN06BC01
p1811
aVR03DA20
p1812
aVV04CG30
p1813
atRp1814
sVDCC1535
p1815
g3
((lp1816
VL01DB07
p1817
atRp1818
sVDCC0189
p1819
g3
((lp1820
VL01XX19
p1821
atRp1822
sVDCC1601
p1823
g3
((lp1824
VP01BA02
p1825
atRp1826
sVDCC0180
p1827
g3
((lp1828
VG03AB04
p1829
aVG03FA01
p1830
aVG03AA05
p1831
aVG03DC02
p1832
aVG03FB05
p1833
aVG03AC01
p1834
atRp1835
sVDCC0181
p1836
g3
((lp1837
VC09AA03
p1838
aVC09BA03
p1839
aVC09BB03
p1840
aVC10BX07
p1841
atRp1842
sVDCC0182
p1843
g3
((lp1844
VA02BX03
p1845
aVA03CB04
p1846
atRp1847
sVDCC0183
p1848
g3
((lp1849
VV03AB04
p1850
atRp1851
sVDCC0184
p1852
g3
((lp1853
VS01BB01
p1854
aVR01AD60
p1855
aVD07BB04
p1856
aVD07BA04
p1857
aVD07AA02
p1858
aVD07CA01
p1859
aVA07EA02
p1860
aVD07AB11
p1861
aVA01AC03
p1862
aVS01CA03
p1863
aVD07AB02
p1864
aVS03CA04
p1865
aVD07AC16
p1866
aVS01CB03
p1867
aVS02CA03
p1868
aVC05AA01
p1869
aVH02AB09
p1870
aVS01BA02
p1871
aVD07XA01
p1872
aVS02BA01
p1873
atRp1874
sVDCC0185
p1875
g3
((lp1876
VN01BB54
p1877
aVN01BB04
p1878
atRp1879
sVDCC0186
p1880
g3
((lp1881
VD10AD51
p1882
aVD10BA01
p1883
aVL01XX14
p1884
aVL01XX22
p1885
aVD10AD04
p1886
aVD10AD01
p1887
atRp1888
sVDCC0187
p1889
g3
((lp1890
VG01AA07
p1891
aVJ01RA08
p1892
aVS01AA02
p1893
aVS02AA08
p1894
aVA01AB13
p1895
aVJ01AA09
p1896
aVA01AB21
p1897
aVA02BD02
p1898
aVD06AA03
p1899
aVD06AA02
p1900
aVS01AA09
p1901
aVJ01AA20
p1902
aVD06AA04
p1903
aVJ01AA06
p1904
aVJ01AA07
p1905
aVA02BD08
p1906
aVS03AA02
p1907
aVJ01AA03
p1908
aVS01AA04
p1909
atRp1910
sVDCC1221
p1911
g3
((lp1912
VJ01AA20
p1913
aVJ01AA02
p1914
aVA01AB22
p1915
atRp1916
sVDCC1493
p1917
g3
((lp1918
VP01BA03
p1919
atRp1920
sVDCC0112
p1921
g3
((lp1922
VN02AA05
p1923
aVN02AA55
p1924
atRp1925
sVDCC0111
p1926
g3
((lp1927
VJ05AR01
p1928
aVJ05AR05
p1929
aVJ05AF01
p1930
aVJ05AR04
p1931
atRp1932
sVDCC0059
p1933
g3
((lp1934
VN05AH03
p1935
atRp1936
sVDCC0117
p1937
g3
((lp1938
VL01XA01
p1939
atRp1940
sVDCC0116
p1941
g3
((lp1942
VN07XX59
p1943
aVR05DA09
p1944
atRp1945
sVDCC0114
p1946
g3
((lp1947
VJ05AX67
p1948
aVJ05AE03
p1949
aVJ05AR10
p1950
aVJ05AX66
p1951
atRp1952
sVDCC0053
p1953
g3
((lp1954
VN06AA09
p1955
aVN06CA01
p1956
atRp1957
sVDCC0050
p1958
g3
((lp1959
VL01XE02
p1960
atRp1961
sVDCC0118
p1962
g3
((lp1963
VP02CA03
p1964
atRp1965
sVDCC0057
p1966
g3
((lp1967
VA10BD10
p1968
aVA10BD16
p1969
aVA10BD02
p1970
aVA10BD03
p1971
aVA10BD11
p1972
aVA10BD13
p1973
aVA10BD07
p1974
aVA10BD15
p1975
aVA10BD05
p1976
aVA10BD17
p1977
aVA10BD18
p1978
aVA10BD14
p1979
aVA10BD08
p1980
aVA10BA02
p1981
aVA10BD20
p1982
atRp1983
sVDCC0054
p1984
g3
((lp1985
VC02DD01
p1986
atRp1987
sVDCC0055
p1988
g3
((lp1989
VM01AB51
p1990
aVS01BC01
p1991
aVM02AA23
p1992
aVS01CC02
p1993
aVM01AB01
p1994
aVC01EB03
p1995
atRp1996
sVDCC0232
p1997
g3
((lp1998
VC01BA51
p1999
aVC01BA01
p2000
aVC01BA71
p2001
atRp2002
sVDCC0233
p2003
g3
((lp2004
VA10BD14
p2005
aVA10BX02
p2006
atRp2007
sVDCC0230
p2008
g3
((lp2009
VS01EE03
p2010
atRp2011
sVDCC1386
p2012
g3
((lp2013
VM01AB08
p2014
atRp2015
sVDCC0236
p2016
g3
((lp2017
VN07BC51
p2018
aVN02AE01
p2019
aVN07BC01
p2020
atRp2021
sVDCC0234
p2022
g3
((lp2023
VN04BB01
p2024
atRp2025
sVDCC0235
p2026
g3
((lp2027
VG01AF20
p2028
aVA02BD03
p2029
aVG01AF01
p2030
aVJ01RA04
p2031
aVJ01RA03
p2032
aVP01AB01
p2033
aVA01AB17
p2034
aVP01AB51
p2035
aVA02BD02
p2036
aVJ01XD01
p2037
aVD06BX01
p2038
aVA02BD01
p2039
aVA02BD11
p2040
aVJ01RA10
p2041
aVA02BD08
p2042
atRp2043
sVDCC1384
p2044
g3
((lp2045
VV03AC01
p2046
atRp2047
sVDCC0238
p2048
g3
((lp2049
VM01AE56
p2050
aVA02BB01
p2051
aVG02AD06
p2052
atRp2053
sVDCC0239
p2054
g3
((lp2055
VR03AK12
p2056
aVR03AK06
p2057
aVR03AC12
p2058
atRp2059
sVDCC1380
p2060
g3
((lp2061
VN07XX02
p2062
atRp2063
sVDCC1548
p2064
g3
((lp2065
VN06AA04
p2066
atRp2067
sVDCC0333
p2068
g3
((lp2069
VA10BH51
p2070
aVA10BD12
p2071
aVA10BD07
p2072
aVA10BH01
p2073
atRp2074
sVDCC1546
p2075
g3
((lp2076
VN05AX12
p2077
atRp2078
sVDCC1545
p2079
g3
((lp2080
VA03FA01
p2081
atRp2082
sVDCC0330
p2083
g3
((lp2084
VL01XE06
p2085
atRp2086
sVDCC0337
p2087
g3
((lp2088
VC02DB01
p2089
aVC02DB02
p2090
aVC02LG02
p2091
atRp2092
sVDCC0336
p2093
g3
((lp2094
VL01XE04
p2095
atRp2096
sVDCC1541
p2097
g3
((lp2098
VN05AH04
p2099
atRp2100
sVDCC0334
p2101
g3
((lp2102
VL01BC08
p2103
atRp2104
sVDCC1551
p2105
g3
((lp2106
VN06BA12
p2107
atRp2108
sVDCC1577
p2109
g3
((lp2110
VA11AA02
p2111
aVA01AD11
p2112
aVA11HA31
p2113
aVV03AF03
p2114
aVA12AA06
p2115
aVD11AX03
p2116
aVV03AF04
p2117
aVA11GB01
p2118
aVA12AA30
p2119
aVA12AA12
p2120
aVA02AC01
p2121
aVA12AA10
p2122
aVA12AA11
p2123
aVN07BB02
p2124
aVB05XA07
p2125
aVD03AX04
p2126
aVB01AC08
p2127
aVM05BB01
p2128
aVM05BB02
p2129
aVV08AC10
p2130
aVA02AC02
p2131
aVM05BB05
p2132
aVM05BB04
p2133
aVM05BB08
p2134
aVG04BA03
p2135
aVR01AX01
p2136
aVA07XA03
p2137
aVA12AA01
p2138
aVA12AA03
p2139
aVA12AA02
p2140
aVA12AA05
p2141
aVA12AA04
p2142
aVA12AA07
p2143
aVA12AA20
p2144
aVA12AA09
p2145
aVA12AA08
p2146
aVV03AE01
p2147
aVA11GA01
p2148
aVB02BC08
p2149
aVA06AC08
p2150
aVC05BX01
p2151
aVJ04AA03
p2152
aVN02BA15
p2153
atRp2154
sVDCC1574
p2155
g3
((lp2156
VN05AN01
p2157
aVD11AX04
p2158
atRp2159
sVDCC1644
p2160
g3
((lp2161
VA10BF03
p2162
atRp2163
sVDCC1098
p2164
g3
((lp2165
VN03AX23
p2166
atRp2167
sVDCC0244
p2168
g3
((lp2169
VG03FA13
p2170
aVG03AA11
p2171
atRp2172
sVDCC0243
p2173
g3
((lp2174
VR05DA03
p2175
atRp2176
sVDCC1641
p2177
g3
((lp2178
VC07FB12
p2179
aVC07BB12
p2180
aVC07AB12
p2181
atRp2182
sVDCC0241
p2183
g3
((lp2184
VR06AX26
p2185
atRp2186
sVDCC0932
p2187
g3
((lp2188
VL01XX46
p2189
atRp2190
sVDCC0938
p2191
g3
((lp2192
VA12AA01
p2193
aVA11GB01
p2194
atRp2195
sVDCC1097
p2196
g3
((lp2197
VG03FA08
p2198
aVG03FA13
p2199
aVG03FA12
p2200
aVG03FA11
p2201
aVG03FA10
p2202
aVG03FA17
p2203
aVG03FA16
p2204
aVG03FA15
p2205
aVG03FA14
p2206
aVG03CA53
p2207
aVL02AA03
p2208
aVL02AA02
p2209
aVG03AB08
p2210
aVG03FB10
p2211
aVG03FB11
p2212
aVG03FB12
p2213
aVG03CA03
p2214
aVG03FA09
p2215
aVG03CA01
p2216
aVG03EA01
p2217
aVG03EA03
p2218
aVG03EA02
p2219
aVG03FA01
p2220
aVG03FA02
p2221
aVG03FA03
p2222
aVG03FA04
p2223
aVG03FA05
p2224
aVG03FA06
p2225
aVG03FA07
p2226
aVG03AA14
p2227
aVG03HB01
p2228
aVG02BB01
p2229
aVG03FB03
p2230
aVG03FB02
p2231
aVG03FB01
p2232
aVG03FB07
p2233
aVG03FB06
p2234
aVG03FB05
p2235
aVG03FB04
p2236
aVG03FB09
p2237
aVG03FB08
p2238
atRp2239
sVDCC0248
p2240
g3
((lp2241
VR06AX27
p2242
atRp2243
sVDCC1542
p2244
g3
((lp2245
VB01AB05
p2246
aVB01AB01
p2247
atRp2248
sVDCC1165
p2249
g3
((lp2250
VL03AB05
p2251
aVL03AB10
p2252
atRp2253
sVDCC1164
p2254
g3
((lp2255
VH01CB02
p2256
atRp2257
sVDCC1166
p2258
g3
((lp2259
VG02AC01
p2260
aVH01BB02
p2261
aVH01BB01
p2262
atRp2263
sVDCC1567
p2264
g3
((lp2265
VA10AB05
p2266
aVA10AD06
p2267
aVA10AD05
p2268
atRp2269
sVDCC1160
p2270
g3
((lp2271
VG03GA08
p2272
atRp2273
sVDCC1162
p2274
g3
((lp2275
VL03AA02
p2276
atRp2277
sVDCC1488
p2278
g3
((lp2279
VN03AE01
p2280
atRp2281
sVDCC1367
p2282
g3
((lp2283
VN06AB05
p2284
atRp2285
sVDCC1363
p2286
g3
((lp2287
VM05BA06
p2288
atRp2289
sVDCC1361
p2290
g3
((lp2291
VG04CA02
p2292
aVG04CA53
p2293
aVG04CA52
p2294
atRp2295
sVDCC0148
p2296
g3
((lp2297
VL01XE01
p2298
atRp2299
sVDCC0149
p2300
g3
((lp2301
VD07AB09
p2302
aVA01AC01
p2303
aVS02CA04
p2304
aVR03BA06
p2305
aVC05AA12
p2306
aVH02AB08
p2307
aVR01AD11
p2308
aVD07CB01
p2309
aVD07BB03
p2310
aVD07XB02
p2311
aVS01BA05
p2312
atRp2313
sVDCC0145
p2314
g3
((lp2315
VC07BB07
p2316
aVC09BX02
p2317
aVC07FB07
p2318
aVC07AB07
p2319
aVC07AB57
p2320
atRp2321
sVDCC0146
p2322
g3
((lp2323
VP01BF03
p2324
aVP01BA06
p2325
atRp2326
sVDCC0147
p2327
g3
((lp2328
VJ04AB04
p2329
atRp2330
sVDCC0140
p2331
g3
((lp2332
VD07CC02
p2333
aVS01CA10
p2334
aVD07AC04
p2335
aVS02CA05
p2336
aVC05AA10
p2337
aVS02BA08
p2338
aVD07BC02
p2339
aVS01BA15
p2340
atRp2341
sVDCC0141
p2342
g3
((lp2343
VN03AD01
p2344
aVN03AD51
p2345
atRp2346
sVDCC0142
p2347
g3
((lp2348
VC03DB01
p2349
atRp2350
sVDCC0156
p2351
g3
((lp2352
VA07EA03
p2353
aVH02AB15
p2354
aVH02AB07
p2355
atRp2356
sVDCC1525
p2357
g3
((lp2358
VL01DB06
p2359
atRp2360
sVDCC1502
p2361
g3
((lp2362
VC08CA55
p2363
aVC08CA05
p2364
aVC08GA01
p2365
atRp2366
sVDCC1501
p2367
g3
((lp2368
VG04BE02
p2369
aVG04BE52
p2370
aVA03AD01
p2371
atRp2372
sVDCC0700
p2373
g3
((lp2374
VC09CA10
p2375
atRp2376
sVDCC0665
p2377
g3
((lp2378
VG03XC02
p2379
aVG03CC07
p2380
atRp2381
sVDCC1509
p2382
g3
((lp2383
VC07AG02
p2384
atRp2385
sVDCC1508
p2386
g3
((lp2387
VL02BB03
p2388
atRp2389
sVDCC1267
p2390
g3
((lp2391
VG03FA04
p2392
aVG03DA03
p2393
aVG03DA04
p2394
aVG03DA02
p2395
aVG03AC06
p2396
aVL02AB02
p2397
atRp2398
sVDCC1468
p2399
g3
((lp2400
VL04AX01
p2401
atRp2402
sVDCC0467
p2403
g3
((lp2404
VC05AD02
p2405
aVD04AB06
p2406
aVS01HA03
p2407
aVN01BA03
p2408
atRp2409
sVDCC1465
p2410
g3
((lp2411
VN06DA03
p2412
atRp2413
sVDCC1830
p2414
g3
((lp2415
VG01AE10
p2416
aVC03AB02
p2417
aVC03AH02
p2418
aVC03AA02
p2419
atRp2420
sVDCC0463
p2421
g3
((lp2422
VR06AX18
p2423
atRp2424
sVDCC1461
p2425
g3
((lp2426
VD10BA01
p2427
aVD10AD04
p2428
aVD10AD54
p2429
atRp2430
sVDCC1372
p2431
g3
((lp2432
VC01DA02
p2433
aVC01DA52
p2434
aVC05AE01
p2435
atRp2436
sVDCC0063
p2437
g3
((lp2438
VR06AE07
p2439
aVR06AE09
p2440
atRp2441
sVDCC0061
p2442
g3
((lp2443
VA02BC05
p2444
aVA02BD01
p2445
aVA02BC01
p2446
aVA02BD05
p2447
atRp2448
sVDCC0060
p2449
g3
((lp2450
VC07AB03
p2451
aVC07DB01
p2452
aVC07BB03
p2453
aVC07FB03
p2454
aVC07CB53
p2455
aVC07AB11
p2456
aVC07CB03
p2457
atRp2458
sVDCC0067
p2459
g3
((lp2460
VL01CA04
p2461
atRp2462
sVDCC0066
p2463
g3
((lp2464
VP01BF02
p2465
aVP01BC02
p2466
atRp2467
sVDCC1205
p2468
g3
((lp2469
VC01CA17
p2470
atRp2471
sVDCC0064
p2472
g3
((lp2473
VC05AE03
p2474
aVC08DB01
p2475
atRp2476
sVDCC0069
p2477
g3
((lp2478
VN05AH02
p2479
atRp2480
sVDCC0209
p2481
g3
((lp2482
VN05BA17
p2483
aVN05BA01
p2484
atRp2485
sVDCC1649
p2486
g3
((lp2487
VB01AX01
p2488
atRp2489
sVDCC0361
p2490
g3
((lp2491
VL01XX38
p2492
atRp2493
sVDCC1218
p2494
g3
((lp2495
VN05AE04
p2496
atRp2497
sVDCC0203
p2498
g3
((lp2499
VJ05AB04
p2500
atRp2501
sVDCC0202
p2502
g3
((lp2503
VS01FA06
p2504
aVS01FA56
p2505
atRp2506
sVDCC0201
p2507
g3
((lp2508
VG01AE10
p2509
aVC03BA11
p2510
aVC09BX01
p2511
atRp2512
sVDCC0206
p2513
g3
((lp2514
VN01AX10
p2515
atRp2516
sVDCC1210
p2517
g3
((lp2518
VN03AX16
p2519
atRp2520
sVDCC1590
p2521
g3
((lp2522
VN02AA09
p2523
aVN07BC06
p2524
atRp2525
sVDCC1593
p2526
g3
((lp2527
VN06BA02
p2528
atRp2529
sVDCC1594
p2530
g3
((lp2531
VA05AA02
p2532
atRp2533
sVDCC1595
p2534
g3
((lp2535
VG04BD08
p2536
aVG04CA53
p2537
atRp2538
sVDCC1693
p2539
g3
((lp2540
VL04AA28
p2541
atRp2542
sVDCC1692
p2543
g3
((lp2544
VL04AB06
p2545
atRp2546
sVDCC1207
p2547
g3
((lp2548
VN06AB10
p2549
aVN06AB04
p2550
atRp2551
sVDCC1690
p2552
g3
((lp2553
VA10BX07
p2554
aVA10AE56
p2555
atRp2556
sVDCC1699
p2557
g3
((lp2558
VG03AA13
p2559
atRp2560
sVDCC1227
p2561
g3
((lp2562
VB01AE03
p2563
atRp2564
sVDCC0247
p2565
g3
((lp2566
VC09DB04
p2567
aVC09CA07
p2568
aVC09DA07
p2569
atRp2570
sVDCC1736
p2571
g3
((lp2572
VL01XX44
p2573
aVS01LA05
p2574
atRp2575
sVDCC1737
p2576
g3
((lp2577
VL01XX45
p2578
atRp2579
sVDCC1733
p2580
g3
((lp2581
VL04AA31
p2582
atRp2583
sVDCC0204
p2584
g3
((lp2585
VN02AB03
p2586
aVN01AH01
p2587
aVN01AH51
p2588
atRp2589
sVDCC0849
p2590
g3
((lp2591
VB01AD10
p2592
atRp2593
sVDCC1284
p2594
g3
((lp2595
VN02AB02
p2596
aVN02AB52
p2597
aVN02AG03
p2598
aVN02AB72
p2599
atRp2600
sVDCC1285
p2601
g3
((lp2602
VC02LE01
p2603
aVC02CA01
p2604
atRp2605
sVDCC1329
p2606
g3
((lp2607
VN05CA19
p2608
aVN05CB01
p2609
aVN01AF03
p2610
atRp2611
sVDCC1328
p2612
g3
((lp2613
VC07BG01
p2614
aVC07CG01
p2615
aVC07AG01
p2616
atRp2617
sVDCC1282
p2618
g3
((lp2619
VN05AD08
p2620
atRp2621
sVDCC0246
p2622
g3
((lp2623
VN01BB03
p2624
aVN01BB53
p2625
atRp2626
sVDCC1224
p2627
g3
((lp2628
VL01AD01
p2629
atRp2630
sVDCC1321
p2631
g3
((lp2632
VL01CA01
p2633
atRp2634
sVDCC0429
p2635
g3
((lp2636
VL01XE13
p2637
atRp2638
sVDCC0240
p2639
g3
((lp2640
VB01AC06
p2641
aVA01AD05
p2642
aVM01BA03
p2643
aVN02BA71
p2644
aVB01AC56
p2645
aVC10BX01
p2646
aVN02BA51
p2647
aVC10BX02
p2648
aVC10BX05
p2649
aVC10BX04
p2650
aVC10BX06
p2651
aVC10BX08
p2652
aVN02BA01
p2653
atRp2654
sVDCC0168
p2655
g3
((lp2656
VL02BA01
p2657
atRp2658
sVDCC1495
p2659
g3
((lp2660
VL04AA13
p2661
atRp2662
sVDCC1437
p2663
g3
((lp2664
VH05BX02
p2665
atRp2666
sVDCC1138
p2667
g3
((lp2668
VL01XC05
p2669
atRp2670
sVDCC1136
p2671
g3
((lp2672
VH01AC01
p2673
atRp2674
sVDCC1137
p2675
g3
((lp2676
VB01AC13
p2677
atRp2678
sVDCC1135
p2679
g3
((lp2680
VH01CC02
p2681
atRp2682
sVDCC1132
p2683
g3
((lp2684
VA10AB04
p2685
aVA10AC04
p2686
aVA10AD04
p2687
atRp2688
sVDCC1133
p2689
g3
((lp2690
VA10AE04
p2691
atRp2692
sVDCC1131
p2693
g3
((lp2694
VR03DX05
p2695
atRp2696
sVDCC1849
p2697
g3
((lp2698
VR06AC01
p2699
aVD04AA02
p2700
atRp2701
sVDCC1559
p2702
g3
((lp2703
VR03AC13
p2704
atRp2705
sVDCC0249
p2706
g3
((lp2707
VC02AB02
p2708
aVC02AB01
p2709
atRp2710
sVDCC0048
p2711
g3
((lp2712
VN03AG01
p2713
atRp2714
sVDCC0421
p2715
g3
((lp2716
VA10BD08
p2717
aVA10BH02
p2718
atRp2719
sVDCC1423
p2720
g3
((lp2721
VC03XA02
p2722
atRp2723
sVDCC0038
p2724
g3
((lp2725
VC09DA08
p2726
aVC09CA08
p2727
aVC09DX03
p2728
aVC09DB02
p2729
atRp2730
sVDCC0039
p2731
g3
((lp2732
VR03DA54
p2733
aVR03DB04
p2734
aVR03DA74
p2735
aVR03DA05
p2736
aVR03DA04
p2737
aVR03DA20
p2738
atRp2739
sVDCC1811
p2740
g3
((lp2741
VS01ED02
p2742
aVS01ED52
p2743
aVC07AB05
p2744
atRp2745
sVDCC1810
p2746
g3
((lp2747
VR06AX09
p2748
atRp2749
sVDCC0036
p2750
g3
((lp2751
VC07AB02
p2752
aVC07BB02
p2753
aVC07BB52
p2754
aVC07FB02
p2755
aVC07AB52
p2756
aVC07CB02
p2757
atRp2758
sVDCC0037
p2759
g3
((lp2760
VN03AX11
p2761
atRp2762
sVDCC1814
p2763
g3
((lp2764
VG01AE10
p2765
aVC03AA04
p2766
aVC03AB04
p2767
aVC03AH01
p2768
atRp2769
sVDCC0032
p2770
g3
((lp2771
VN03AB05
p2772
aVN03AB04
p2773
aVN03AB52
p2774
aVN03AB02
p2775
atRp2776
sVDCC0033
p2777
g3
((lp2778
VA01AB18
p2779
aVG01AF02
p2780
aVD01AC01
p2781
atRp2782
sVDCC1491
p2783
g3
((lp2784
VN07AX01
p2785
aVS01EB51
p2786
aVS01EB01
p2787
atRp2788
sVDCC0332
p2789
g3
((lp2790
VL01XE07
p2791
atRp2792
sVDCC1846
p2793
g3
((lp2794
VC03AA05
p2795
aVG01AE10
p2796
aVC03AB05
p2797
atRp2798
sVDCC0875
p2799
g3
((lp2800
VC01DX16
p2801
atRp2802
sVDCC0100
p2803
g3
((lp2804
VN06CA03
p2805
aVN06AB03
p2806
atRp2807
sVDCC0103
p2808
g3
((lp2809
VL04AX04
p2810
atRp2811
sVDCC0104
p2812
g3
((lp2813
VG03XC01
p2814
atRp2815
sVDCC0105
p2816
g3
((lp2817
VL01XX33
p2818
aVM01AH01
p2819
aVG01AE10
p2820
atRp2821
sVDCC0106
p2822
g3
((lp2823
VS01EA05
p2824
aVD11AX21
p2825
atRp2826
sVDCC0107
p2827
g3
((lp2828
VJ01MA03
p2829
atRp2830
sVDCC0331
p2831
g3
((lp2832
VC09XA53
p2833
aVC09XA52
p2834
aVC09DX02
p2835
aVC09XA02
p2836
aVC09XA54
p2837
atRp2838
sVDCC0109
p2839
g3
((lp2840
VC09AA09
p2841
aVC09BA09
p2842
atRp2843
sVDCC0169
p2844
g3
((lp2845
VC09CA01
p2846
aVC09DA01
p2847
aVC09DB06
p2848
atRp2849
sVDCC1399
p2850
g3
((lp2851
VA07EC01
p2852
aVG01AE10
p2853
atRp2854
sVDCC1393
p2855
g3
((lp2856
VD07XC03
p2857
aVR01AD09
p2858
aVR03AK09
p2859
aVD07AC13
p2860
aVR03BA07
p2861
atRp2862
sVDCC1259
p2863
g3
((lp2864
VC01CA03
p2865
atRp2866
sVDCC1258
p2867
g3
((lp2868
VR06AA09
p2869
aVR06AA59
p2870
atRp2871
sVDCC1396
p2872
g3
((lp2873
VB01AC17
p2874
atRp2875
sVDCC1395
p2876
g3
((lp2877
VG04BE01
p2878
aVC01EA01
p2879
atRp2880
sVDCC0328
p2881
g3
((lp2882
VC10AB04
p2883
atRp2884
sVDCC0329
p2885
g3
((lp2886
VL01CD02
p2887
atRp2888
sVDCC0083
p2889
g3
((lp2890
VJ01CR01
p2891
aVJ01CA51
p2892
aVJ01CA01
p2893
aVJ01CA02
p2894
aVJ01CA15
p2895
aVJ01CA14
p2896
aVS01AA19
p2897
aVJ01CA06
p2898
aVJ01CR50
p2899
atRp2900
sVDCC0082
p2901
g3
((lp2902
VA10BD03
p2903
aVA10BG02
p2904
aVA10BD04
p2905
atRp2906
sVDCC0085
p2907
g3
((lp2908
VC03DA01
p2909
atRp2910
sVDCC0084
p2911
g3
((lp2912
VJ01CR50
p2913
aVJ01CE02
p2914
aVJ01CE10
p2915
atRp2916
sVDCC0087
p2917
g3
((lp2918
VR06AX07
p2919
atRp2920
sVDCC0086
p2921
g3
((lp2922
VM03BA73
p2923
aVM03BA03
p2924
aVM03BA53
p2925
atRp2926
sVDCC0320
p2927
g3
((lp2928
VN01AX03
p2929
aVN01AX14
p2930
atRp2931
sVDCC0321
p2932
g3
((lp2933
VR03BA02
p2934
aVA07EA06
p2935
aVR03AK07
p2936
aVR03AK12
p2937
aVD07AC09
p2938
aVR01AD05
p2939
atRp2940
sVDCC0322
p2941
g3
((lp2942
VR03DA55
p2943
aVR03DA20
p2944
aVR03DA05
p2945
aVR03DB05
p2946
atRp2947
sVDCC0323
p2948
g3
((lp2949
VL01CD01
p2950
atRp2951
sVDCC1498
p2952
g3
((lp2953
VN06AB06
p2954
atRp2955
sVDCC0326
p2956
g3
((lp2957
VN04BA02
p2958
aVN04BA03
p2959
aVN04BA01
p2960
aVN04BA04
p2961
atRp2962
sVDCC0327
p2963
g3
((lp2964
VN01AB08
p2965
atRp2966
sVDCC1555
p2967
g3
((lp2968
VL01XC08
p2969
atRp2970
sVDCC1615
p2971
g3
((lp2972
VA11HA01
p2973
atRp2974
sVDCC1614
p2975
g3
((lp2976
VH01BA04
p2977
atRp2978
sVDCC0138
p2979
g3
((lp2980
VD11AX18
p2981
aVS01BC03
p2982
aVM01AB55
p2983
aVM02AA15
p2984
aVS01CC01
p2985
aVM01AB05
p2986
atRp2987
sVDCC1556
p2988
g3
((lp2989
VS01LA04
p2990
atRp2991
sVDCC0254
p2992
g3
((lp2993
VS01FA54
p2994
aVS01FA04
p2995
atRp2996
sVDCC0255
p2997
g3
((lp2998
VR03AC13
p2999
aVR03AK11
p3000
aVR03AK07
p3001
aVR03AL05
p3002
aVR03AK08
p3003
aVR03AK09
p3004
atRp3005
sVDCC0256
p3006
g3
((lp3007
VL01BC01
p3008
atRp3009
sVDCC0257
p3010
g3
((lp3011
VJ01GB05
p3012
aVB05CA09
p3013
aVA07AA01
p3014
aVS02AA07
p3015
aVS03AA01
p3016
aVD09AA01
p3017
aVR02AB01
p3018
aVD06AX04
p3019
aVA07AA51
p3020
aVS01AA03
p3021
aVR01AX08
p3022
aVS01AA07
p3023
aVA01AB08
p3024
atRp3025
sVDCC0250
p3026
g3
((lp3027
VC10BA02
p3028
aVC10AX09
p3029
aVC10BA06
p3030
aVC10BA05
p3031
atRp3032
sVDCC0251
p3033
g3
((lp3034
VB01AC07
p3035
aVC01DX20
p3036
atRp3037
sVDCC0252
p3038
g3
((lp3039
VG03AA09
p3040
aVG03AA08
p3041
aVG03AB01
p3042
aVG03AB06
p3043
aVG03AB07
p3044
aVG03AB04
p3045
aVG03AB05
p3046
aVG03AA01
p3047
aVG03AA03
p3048
aVG03AA02
p3049
aVG03AA05
p3050
aVG03AA04
p3051
aVG03AA07
p3052
aVG03AA06
p3053
aVG03AB02
p3054
aVG03CA01
p3055
aVG03AB03
p3056
aVG03AA16
p3057
aVG03AA15
p3058
aVG03AA12
p3059
aVG03AA13
p3060
aVG03AA10
p3061
aVG03AA11
p3062
aVL02AA03
p3063
atRp3064
sVDCC0253
p3065
g3
((lp3066
VS01AE04
p3067
aVJ01MA07
p3068
atRp3069
sVDCC0881
p3070
g3
((lp3071
VG03AA16
p3072
aVG03AB08
p3073
aVG03DB08
p3074
aVG03FA15
p3075
atRp3076
sVDCC0552
p3077
g3
((lp3078
VG03CA57
p3079
aVG03CC07
p3080
atRp3081
sVDCC0258
p3082
g3
((lp3083
VN03AX12
p3084
atRp3085
sVDCC0259
p3086
g3
((lp3087
VL01DB01
p3088
atRp3089
sVDCC0887
p3090
g3
((lp3091
VM05BX53
p3092
aVA11CC05
p3093
aVM05BB03
p3094
aVM05BB07
p3095
aVM05BB05
p3096
aVM05BB04
p3097
aVM05BB08
p3098
atRp3099
sVDCC0886
p3100
g3
((lp3101
VD08AX05
p3102
atRp3103
sVDCC1238
p3104
g3
((lp3105
VN01BB09
p3106
atRp3107
sVDCC0520
p3108
g3
((lp3109
VA16AA06
p3110
aVA09AB02
p3111
atRp3112
sVDCC1241
p3113
g3
((lp3114
VG03AA09
p3115
aVG03FB10
p3116
aVG03AC09
p3117
aVG03AB05
p3118
atRp3119
sVDCC1242
p3120
g3
((lp3121
VL01XX25
p3122
atRp3123
sVDCC1172
p3124
g3
((lp3125
VB05XB01
p3126
atRp3127
sVDCC0640
p3128
g3
((lp3129
VV10XX02
p3130
atRp3131
sVDCC1244
p3132
g3
((lp3133
VN05CA01
p3134
aVN05CB01
p3135
atRp3136
sVDCC1374
p3137
g3
((lp3138
VA10BX03
p3139
atRp3140
sVDCC1376
p3141
g3
((lp3142
VN05AX08
p3143
atRp3144
sVDCC1377
p3145
g3
((lp3146
VA02BC05
p3147
aVA02BD06
p3148
aVM01AE52
p3149
aVA02BC01
p3150
atRp3151
sVDCC1370
p3152
g3
((lp3153
VJ01CE09
p3154
aVC01BA02
p3155
aVD04AB03
p3156
aVN01BA52
p3157
aVS01HA05
p3158
aVN01BA02
p3159
aVC05AD05
p3160
aVS01HA02
p3161
aVN01BA04
p3162
atRp3163
sVDCC0818
p3164
g3
((lp3165
VN05AN01
p3166
aVD11AX04
p3167
atRp3168
sVDCC1247
p3169
g3
((lp3170
VN02AA03
p3171
aVN02AG04
p3172
atRp3173
sVDCC1234
p3174
g3
((lp3175
VL01DC01
p3176
atRp3177
sVDCC0058
p3178
g3
((lp3179
VR03AL01
p3180
aVR03AL02
p3181
aVR01AX03
p3182
aVR03BB01
p3183
atRp3184
sVDCC0171
p3185
g3
((lp3186
VB01AA03
p3187
atRp3188
sVDCC0173
p3189
g3
((lp3190
VL04AA06
p3191
atRp3192
sVDCC0175
p3193
g3
((lp3194
VN02CA02
p3195
aVN02CA01
p3196
aVN02CA72
p3197
aVN02CA52
p3198
atRp3199
sVDCC0174
p3200
g3
((lp3201
VG01AE10
p3202
aVC03EB01
p3203
aVC03CB01
p3204
aVC03CA01
p3205
atRp3206
sVDCC0177
p3207
g3
((lp3208
VN07BB04
p3209
aVA08AA62
p3210
atRp3211
sVDCC1569
p3212
g3
((lp3213
VA10AB06
p3214
atRp3215
sVDCC1161
p3216
g3
((lp3217
VL04AA04
p3218
atRp3219
s.