(dp1
VDCC0770
p2
c__builtin__
set
p3
((lp4
I6869
atRp5
sVDCC0777
p6
g3
((lp7
I54658
aI10019
aI5156
aI3702
aI2246
aI3815
aI1576
aI5159
aI3791
aI2321
aI2324
aI2261
aI1558
aI5243
aI9429
atRp8
sVDCC1515
p9
g3
((lp10
I6530
aI6532
aI5004
aI146
aI148
aI1813
aI3350
aI153
aI1562
aI3356
aI154
aI3358
aI1571
aI1576
aI6580
aI6581
aI6582
aI6583
aI6584
aI3269
aI6609
aI1128
aI1129
aI5243
atRp11
sVDCC0482
p12
g3
((lp13
I6532
aI6530
aI4988
aI4986
atRp14
sVDCC1459
p15
g3
((lp16
I1571
aI3269
aI1543
aI1576
aI1577
aI1558
aI1559
aI5243
atRp17
sVDCC1561
p18
g3
((lp19
I3480
aI3482
aI3643
aI3486
atRp20
sVDCC1560
p21
g3
((lp22
I2740
atRp23
sVDCC1450
p24
g3
((lp25
I1576
aI2099
atRp26
sVDCC1131
p27
g3
((lp28
I2205
aI2206
atRp29
sVDCC1455
p30
g3
((lp31
I153
aI154
aI3350
aI3351
atRp32
sVDCC1454
p33
g3
((lp34
I1576
aI5243
aI2908
atRp35
sVDCC0472
p36
g3
((lp37
I207
atRp38
sVDCC1489
p39
g3
((lp40
I1576
aI4363
aI5243
aI1559
atRp41
sVDCC0488
p42
g3
((lp43
I2220
atRp44
sVDCC0070
p45
g3
((lp46
I1576
aI5241
aI2099
aI367
atRp47
sVDCC0071
p48
g3
((lp49
I1571
aI2559
aI2554
aI5243
aI2556
aI2557
aI2555
atRp50
sVDCC0072
p51
g3
((lp52
I153
aI154
aI5243
atRp53
sVDCC0073
p54
g3
((lp55
I774
aI775
aI1576
aI1577
aI1543
aI779
aI759
aI781
aI783
aI776
aI6609
aI1558
aI1559
aI5243
atRp56
sVDCC0074
p57
g3
((lp58
I6337
aI6338
aI6339
aI6340
atRp59
sVDCC0075
p60
g3
((lp61
I146
aI147
aI148
atRp62
sVDCC0076
p63
g3
((lp64
I196
aI775
aI1576
aI1577
aI779
aI782
aI783
aI784
aI776
aI4306
aI785
atRp65
sVDCC0077
p66
g3
((lp67
I1577
aI2908
atRp68
sVDCC1855
p69
g3
((lp70
I213
atRp71
sVDCC0079
p72
g3
((lp73
I673
aI54658
aI5243
aI10257
aI5894
aI5159
aI1576
aI1577
aI3815
aI3791
aI10928
aI2321
aI2322
aI2324
aI9429
aI1558
aI1559
aI2260
aI5979
aI1244
atRp74
sVDCC1857
p75
g3
((lp76
I7153
atRp77
sVDCC0723
p78
g3
((lp79
I2321
aI2324
aI3791
atRp80
sVDCC1851
p81
g3
((lp82
I1576
atRp83
sVDCC1850
p84
g3
((lp85
I760
aI759
aI6557
aI6558
aI6559
atRp86
sVDCC1852
p87
g3
((lp88
I8647
aI1577
aI6571
aI6580
aI6582
aI5243
aI1244
atRp89
sVDCC1637
p90
g3
((lp91
I1576
aI1234
atRp92
sVDCC0420
p93
g3
((lp94
I1571
aI1436
atRp95
sVDCC0596
p96
g3
((lp97
I203068
atRp98
sVDCC1639
p99
g3
((lp100
I1576
aI10381
atRp101
sVDCC0218
p102
g3
((lp103
I23461
aI2280
aI1577
aI5004
aI1576
aI213
aI5243
atRp104
sVDCC0219
p105
g3
((lp106
I1576
aI760
aI762
aI759
aI1559
atRp107
sVDCC0355
p108
g3
((lp109
I10499
aI8648
aI2185
aI4363
aI7276
aI7153
aI2099
aI2100
aI9429
aI5243
atRp110
sVDCC0354
p111
g3
((lp112
I3269
atRp113
sVDCC0357
p114
g3
((lp115
I6257
atRp116
sVDCC0608
p117
g3
((lp118
I7298
atRp119
sVDCC0210
p120
g3
((lp121
I1571
aI3269
aI1128
aI1129
aI1576
aI1558
aI1559
atRp122
sVDCC0211
p123
g3
((lp124
I801
aI5443
aI773
aI1576
aI808
aI1558
aI4985
aI4986
aI5243
aI4988
aI805
atRp125
sVDCC0212
p126
g3
((lp127
I1576
aI5243
aI8647
atRp128
sVDCC0213
p129
g3
((lp130
I801
aI805
aI1576
aI808
aI1812
aI1813
aI1558
aI1559
aI1562
atRp131
sVDCC0214
p132
g3
((lp133
I6530
aI6531
aI6532
aI3558
aI3725
aI4772
aI148
aI150
aI153
aI154
aI7124
atRp134
sVDCC0215
p135
g3
((lp136
I1576
atRp137
sVDCC0216
p138
g3
((lp139
I1576
aI6579
aI2908
aI5243
atRp140
sVDCC0217
p141
g3
((lp142
I1576
aI1577
aI5243
aI6580
atRp143
sVDCC0283
p144
g3
((lp145
I9254
aI775
aI776
aI1577
aI779
aI781
aI783
aI1576
aI786
aI5243
atRp146
sVDCC0282
p147
g3
((lp148
I54658
aI7363
aI7364
aI5243
aI4363
aI9356
aI5743
aI5742
aI5327
aI7056
aI10257
aI6579
aI596
aI213
aI1558
aI1559
aI1080
aI2169
aI55867
aI5468
atRp149
sVDCC0281
p150
g3
((lp151
I54658
aI132
aI130
atRp152
sVDCC0280
p153
g3
((lp154
I1579
aI54658
aI1571
aI5243
aI8647
aI1576
aI1577
aI8714
aI4363
aI10057
aI10864
aI6579
aI213
aI1558
aI1559
aI8856
aI1595
aI1244
atRp155
sVDCC0287
p156
g3
((lp157
I801
aI3269
aI808
aI1129
aI1128
aI148
aI1813
aI1559
aI5243
aI3356
aI805
atRp158
sVDCC0286
p159
g3
((lp160
I1576
aI5468
aI1559
atRp161
sVDCC0285
p162
g3
((lp163
I6564
aI9356
aI6565
atRp164
sVDCC0284
p165
g3
((lp166
I1576
aI1577
atRp167
sVDCC1688
p168
g3
((lp169
I54658
aI1576
aI1577
aI3791
aI2321
aI2324
aI5243
atRp170
sVDCC1689
p171
g3
((lp172
I8600
atRp173
sVDCC0289
p174
g3
((lp175
I3269
aI1129
aI5742
aI6580
aI6582
aI1559
aI6584
aI1562
atRp176
sVDCC0288
p177
g3
((lp178
I6240
aI1633
aI2030
aI5422
atRp179
sVDCC1199
p180
g3
((lp181
I4129
aI6530
aI6531
aI6532
aI1559
atRp182
sVDCC0423
p183
g3
((lp184
I2185
atRp185
sVDCC0259
p186
g3
((lp187
I1545
aI8714
aI4363
aI374291
aI4720
aI1576
aI5447
aI10928
aI11194
aI1728
aI8644
aI8647
aI9429
aI10327
aI1244
aI873
aI874
aI4843
aI4846
aI368
aI7153
aI4722
aI89845
aI5243
aI4842
atRp188
sVDCC0421
p189
g3
((lp190
I1803
atRp191
sVDCC0853
p192
g3
((lp193
I2321
aI2322
aI5159
aI1436
aI3791
atRp194
sVDCC1703
p195
g3
((lp196
I3973
aI2798
atRp197
sVDCC1702
p198
g3
((lp199
I1576
atRp200
sVDCC1707
p201
g3
((lp202
I81027
aI1576
aI1577
aI7277
aI9429
aI1558
aI5243
atRp203
sVDCC1424
p204
g3
((lp205
I1571
aI1543
aI1576
aI1583
aI2099
aI5243
atRp206
sVDCC1425
p207
g3
((lp208
I2224
aI5743
atRp209
sVDCC1338
p210
g3
((lp211
I136
aI100
aI132
aI134
aI135
atRp212
sVDCC1339
p213
g3
((lp214
I1576
aI1543
aI5243
aI7846
aI10383
atRp215
sVDCC1666
p216
g3
((lp217
I1576
aI213
aI1559
atRp218
sVDCC1330
p219
g3
((lp220
I2562
aI1576
aI4363
aI9429
aI5243
aI1244
atRp221
sVDCC1332
p222
g3
((lp223
I1576
aI9356
atRp224
sVDCC1333
p225
g3
((lp226
I2939
aI1543
aI1576
aI1577
aI7124
aI1558
aI54106
aI5243
atRp227
sVDCC0917
p228
g3
((lp229
I2209
aI2212
aI2213
aI2214
aI2215
aI712
aI713
aI714
aI715
aI9103
atRp230
sVDCC1335
p231
g3
((lp232
I1576
aI6579
aI213
aI6462
aI367
atRp233
sVDCC1336
p234
g3
((lp235
I2224
aI5802
aI523
aI5775
aI5791
atRp236
sVDCC0034
p237
g3
((lp238
I1644
atRp239
sVDCC1659
p240
g3
((lp241
I7150
atRp242
sVDCC0035
p243
g3
((lp244
I1576
aI1559
atRp245
sVDCC0429
p246
g3
((lp247
I2064
aI2066
aI5243
aI1956
aI9429
atRp248
sVDCC0741
p249
g3
((lp250
I2740
atRp251
sVDCC0030
p252
g3
((lp253
I1576
aI1577
aI1559
atRp254
sVDCC0031
p255
g3
((lp256
I89832
aI2891
aI1137
aI2898
aI1139
aI2554
aI2555
aI2556
aI2557
aI2559
atRp257
sVDCC0033
p258
g3
((lp259
I1571
aI3783
aI1576
aI8714
aI1583
aI1584
aI1558
aI1559
aI5243
aI1244
atRp260
sVDCC1024
p261
g3
((lp262
I3480
atRp263
sVDCC1149
p264
g3
((lp265
I2209
aI2212
aI2213
aI2214
aI2215
aI712
aI713
aI714
aI715
aI716
aI9103
aI3560
aI3559
atRp266
sVDCC1020
p267
g3
((lp268
I284
aI285
atRp269
sVDCC1143
p270
g3
((lp271
I7124
atRp272
sVDCC1142
p273
g3
((lp274
I3690
atRp275
sVDCC1140
p276
g3
((lp277
I3454
aI3455
atRp278
sVDCC1145
p279
g3
((lp280
I552
aI554
aI1244
atRp281
sVDCC1144
p282
g3
((lp283
I2492
atRp284
sVDCC0009
p285
g3
((lp286
I2209
aI931
aI2212
aI2213
aI2214
aI2215
aI712
aI713
aI714
aI715
aI716
aI9103
atRp287
sVDCC0008
p288
g3
((lp289
I2209
aI1956
aI2213
aI2214
aI2215
aI712
aI713
aI714
aI715
aI716
aI9103
aI2064
aI2212
atRp290
sVDCC0001
p291
g3
((lp292
I2209
aI1956
aI2213
aI2214
aI2215
aI712
aI713
aI714
aI715
aI716
aI9103
aI2212
atRp293
sVDCC1414
p294
g3
((lp295
I1576
aI43
aI3356
aI1559
atRp296
sVDCC0003
p297
g3
((lp298
I3454
aI3455
atRp299
sVDCC0002
p300
g3
((lp301
I3454
aI3455
atRp302
sVDCC0005
p303
g3
((lp304
I5243
atRp305
sVDCC0007
p306
g3
((lp307
I2209
aI2212
aI2213
aI2214
aI2215
aI712
aI713
aI714
aI715
aI716
aI9103
aI7124
atRp308
sVDCC0006
p309
g3
((lp310
I3560
aI3561
aI3559
atRp311
sVDCC0149
p312
g3
((lp313
I1576
aI2908
aI590
aI5743
atRp314
sVDCC0379
p315
g3
((lp316
I706
aI2555
aI2556
atRp317
sVDCC0139
p318
g3
((lp319
I1576
aI5321
aI4306
aI1577
aI5241
aI2908
atRp320
sVDCC0138
p321
g3
((lp322
I54658
aI1543
aI4363
aI9356
aI10257
aI1558
aI1559
aI1562
aI53919
aI1571
aI1576
aI41
aI6329
aI55867
aI7364
aI5320
aI3785
aI3786
aI213
aI7276
aI5742
aI5743
aI240
aI5243
atRp323
sVDCC0135
p324
g3
((lp325
I1128
aI1129
atRp326
sVDCC0134
p327
g3
((lp328
I3350
aI1543
aI1576
aI1577
aI5004
aI6582
aI3351
aI153
aI154
aI5243
atRp329
sVDCC0137
p330
g3
((lp331
I1636
aI1576
aI9356
aI10864
aI6579
aI6564
aI5243
atRp332
sVDCC0136
p333
g3
((lp334
I1543
aI1576
aI1577
aI151
aI146
aI147
aI148
aI6581
aI150
aI6583
aI6584
aI6580
aI5243
atRp335
sVDCC0131
p336
g3
((lp337
I7298
aI8836
aI2348
aI8714
aI4363
aI9356
aI10257
aI53919
aI353189
aI6566
aI4524
aI6573
aI6579
aI1719
aI55867
aI316
aI28232
aI9429
aI471
aI1244
aI5226
aI10864
aI89845
aI5243
aI213
atRp338
sVDCC0410
p339
g3
((lp340
I6531
aI100529261
aI2342
atRp341
sVDCC0133
p342
g3
((lp343
I6564
aI6565
aI1576
aI9356
aI213
aI6584
atRp344
sVDCC0132
p345
g3
((lp346
I5243
aI7364
aI1576
aI1577
aI10928
aI1558
aI1559
aI6331
aI1244
atRp347
sVDCC0315
p348
g3
((lp349
I1636
aI9356
aI4048
aI213
aI4313
aI6564
aI5243
aI4318
atRp350
sVDCC0314
p351
g3
((lp352
I1576
aI760
aI762
aI759
atRp353
sVDCC0317
p354
g3
((lp355
I153
aI154
aI5243
atRp356
sVDCC0316
p357
g3
((lp358
I9900
aI5243
aI1244
aI774
atRp359
sVDCC0311
p360
g3
((lp361
I1576
aI1577
aI5742
aI1558
aI1559
aI1562
atRp362
sVDCC0310
p363
g3
((lp364
I6336
aI6530
aI1571
aI3269
aI1576
aI2902
aI2906
aI116443
aI116444
atRp365
sVDCC0313
p366
g3
((lp367
I1576
atRp368
sVDCC0312
p369
g3
((lp370
I2099
aI5243
aI1576
aI1385
aI6579
aI213
aI1558
aI4985
aI4986
aI7099
aI4988
atRp371
sVDCC0140
p372
g3
((lp373
I5321
aI2908
atRp374
sVDCC0319
p375
g3
((lp376
I2752
aI6564
aI6565
aI9356
aI213
aI55867
atRp377
sVDCC0318
p378
g3
((lp379
I1576
aI1577
aI5243
aI3757
aI10864
atRp380
sVDCC0141
p381
g3
((lp382
I1576
aI1577
aI1571
aI8913
atRp383
sVDCC1482
p384
g3
((lp385
I873
aI1181
atRp386
sVDCC1481
p387
g3
((lp388
I6582
aI1813
aI2902
aI2903
aI2904
aI116443
atRp389
sVDCC1486
p390
g3
((lp391
I1543
aI5295
aI5296
aI8503
aI153
aI154
aI5594
atRp392
sVDCC0142
p393
g3
((lp394
I6337
aI6338
aI6339
aI6340
aI40
aI41
aI5328
aI6580
aI6582
aI6583
aI6548
aI26
atRp395
sVDCC0098
p396
g3
((lp397
I1576
aI5243
aI3269
aI1558
aI1559
atRp398
sVDCC0099
p399
g3
((lp400
I240
aI1576
aI5742
aI10800
aI1558
aI1559
atRp401
sVDCC0096
p402
g3
((lp403
I7153
aI5321
aI4363
aI7364
aI1105
atRp404
sVDCC0097
p405
g3
((lp406
I1543
aI1576
aI1545
aI1579
aI495
aI9429
aI1558
aI1559
aI1562
aI5243
atRp407
sVDCC0094
p408
g3
((lp409
I6240
aI1633
aI7298
aI3177
aI2030
aI51727
aI978
aI89845
aI5243
atRp410
sVDCC0095
p411
g3
((lp412
I1576
aI5243
aI2908
atRp413
sVDCC0092
p414
g3
((lp415
I1576
aI1577
aI3156
aI9429
aI1558
aI1559
aI5243
aI1244
atRp416
sVDCC0093
p417
g3
((lp418
I7298
aI1576
aI1559
aI1558
aI1719
aI5243
atRp419
sVDCC0090
p420
g3
((lp421
I760
aI3778
aI6559
aI762
aI759
atRp422
sVDCC0091
p423
g3
((lp424
I6584
aI9356
aI6564
aI6565
atRp425
sVDCC1856
p426
g3
((lp427
I759
aI760
aI762
aI476
aI6557
aI6559
atRp428
sVDCC0038
p429
g3
((lp430
I185
aI1244
atRp431
sVDCC1745
p432
g3
((lp433
I1576
aI51185
aI5243
aI7124
aI5743
atRp434
sVDCC1744
p435
g3
((lp436
I9817
atRp437
sVDCC1740
p438
g3
((lp439
I1576
atRp440
sVDCC1743
p441
g3
((lp442
I7363
aI1576
aI5004
aI213
aI5243
aI1244
atRp443
sVDCC1742
p444
g3
((lp445
I1576
aI5243
aI2908
atRp446
sVDCC1749
p447
g3
((lp448
I1571
aI3559
aI1576
aI3561
aI5743
aI3560
aI5321
aI3643
aI3454
aI3455
atRp449
sVDCC0261
p450
g3
((lp451
I1576
aI153
aI154
atRp452
sVDCC0260
p453
g3
((lp454
I768
aI3778
aI771
aI9356
aI759
aI760
aI762
aI6559
atRp455
sVDCC0263
p456
g3
((lp457
I6240
atRp458
sVDCC0262
p459
g3
((lp460
I10864
aI6580
aI9356
atRp461
sVDCC0265
p462
g3
((lp463
I9356
aI5742
aI5743
aI10864
aI10257
aI6579
aI213
aI1558
aI1559
aI3577
aI55867
atRp464
sVDCC0264
p465
g3
((lp466
I1576
atRp467
sVDCC0267
p468
g3
((lp469
I6564
aI6565
aI8647
aI1576
aI10060
aI8714
aI4363
aI9356
aI6579
aI3758
aI10864
aI3762
aI19
aI9429
aI1559
aI1080
aI5243
aI1244
aI1374
aI213
atRp470
sVDCC0266
p471
g3
((lp472
I1576
aI9
aI10
aI5742
aI213
aI1558
aI1559
atRp473
sVDCC0269
p474
g3
((lp475
I5153
aI805
aI9254
aI775
aI776
aI1577
aI779
aI781
aI783
aI5136
aI808
aI4306
aI7125
aI1558
aI1559
aI1576
aI5243
aI801
aI7134
atRp476
sVDCC0268
p477
g3
((lp478
I3553
aI834
aI836
aI9356
aI240
aI7422
aI10864
aI55867
aI54205
aI4318
atRp479
sVDCC1664
p480
g3
((lp481
I3553
atRp482
sVDCC1662
p483
g3
((lp484
I116443
aI23657
aI95
aI9356
aI2902
aI2903
aI2904
aI2937
aI2906
aI1147
aI3551
atRp485
sVDCC0793
p486
g3
((lp487
I9194
aI9123
aI6566
aI117247
atRp488
sVDCC0797
p489
g3
((lp490
I154
atRp491
sVDCC0105
p492
g3
((lp493
I1576
aI5004
aI5743
aI10257
aI5170
aI213
aI1558
aI1559
atRp494
sVDCC1188
p495
g3
((lp496
I8566
aI1543
atRp497
sVDCC1183
p498
g3
((lp499
I1571
aI8836
aI4524
aI81034
aI9356
aI2352
aI10257
aI9429
aI8714
atRp500
sVDCC1182
p501
g3
((lp502
I1576
aI1593
aI7421
atRp503
sVDCC1181
p504
g3
((lp505
I1152
aI2593
aI1158
aI1159
aI1160
aI6535
aI548596
aI6584
atRp506
sVDCC0944
p507
g3
((lp508
I10203
atRp509
sVDCC0351
p510
g3
((lp511
I1576
aI5243
aI1558
aI1559
atRp512
sVDCC0868
p513
g3
((lp514
I931
atRp515
sVDCC1345
p516
g3
((lp517
I2912
aI2913
aI2915
aI206358
aI116443
aI116444
aI2911
atRp518
sVDCC1208
p519
g3
((lp520
I7153
atRp521
sVDCC1209
p522
g3
((lp523
I1576
aI1577
aI6579
aI6580
aI9429
aI1559
aI5243
atRp524
sVDCC1252
p525
g3
((lp526
I2560
aI2561
aI2562
aI2563
aI2565
aI2566
aI2567
aI1576
aI2569
aI2570
aI2557
aI2559
aI1562
aI5243
aI2556
aI2554
aI2555
atRp527
sVDCC1204
p528
g3
((lp529
I1128
atRp530
sVDCC0358
p531
g3
((lp532
I7421
atRp533
sVDCC1116
p534
g3
((lp535
I3973
aI2798
atRp536
sVDCC1117
p537
g3
((lp538
I5329
aI2243
aI5340
aI5054
atRp539
sVDCC1110
p540
g3
((lp541
I2209
aI2212
aI2213
aI2214
aI2215
aI712
aI713
aI714
aI715
aI716
aI9103
aI4049
aI7124
aI5743
aI7133
atRp542
sVDCC1112
p543
g3
((lp544
I2798
atRp545
sVDCC0036
p546
g3
((lp547
I153
aI154
aI5243
aI6582
atRp548
sVDCC0603
p549
g3
((lp550
I2492
atRp551
sVDCC1118
p552
g3
((lp553
I2057
atRp554
sVDCC0881
p555
g3
((lp556
I5241
atRp557
sVDCC0601
p558
g3
((lp559
I3454
aI3455
atRp560
sVDCC1203
p561
g3
((lp562
I1576
aI1559
aI1571
aI1558
aI1543
atRp563
sVDCC1259
p564
g3
((lp565
I6530
aI6582
aI5460
aI6571
aI146
aI147
aI148
aI6581
aI150
aI151
aI6584
aI153
aI154
aI5053
aI6580
atRp566
sVDCC1446
p567
g3
((lp568
I146
aI147
aI148
aI150
aI151
atRp569
sVDCC1445
p570
g3
((lp571
I1576
atRp572
sVDCC0764
p573
g3
((lp574
I1576
aI1577
aI5243
atRp575
sVDCC1443
p576
g3
((lp577
I978
aI1786
atRp578
sVDCC0037
p579
g3
((lp580
I1576
aI2897
aI6323
aI760
aI2554
aI762
atRp581
sVDCC1838
p582
g3
((lp583
I760
aI762
aI759
aI6557
aI6559
atRp584
sVDCC0768
p585
g3
((lp586
I1576
aI3065
aI5243
aI9734
atRp587
sVDCC1524
p588
g3
((lp589
I6530
aI6531
aI6532
aI3269
aI1576
aI1128
aI148
atRp590
sVDCC1521
p591
g3
((lp592
I1571
aI1543
aI1576
aI1577
aI5243
aI1595
atRp593
sVDCC1520
p594
g3
((lp595
I1576
aI1577
aI5139
atRp596
sVDCC1523
p597
g3
((lp598
I4129
aI1559
atRp599
sVDCC1522
p600
g3
((lp601
I4129
aI1545
atRp602
sVDCC0199
p603
g3
((lp604
I9356
aI4036
aI1719
atRp605
sVDCC0198
p606
g3
((lp607
I185
aI5243
aI1558
aI5742
aI1559
atRp608
sVDCC0192
p609
g3
((lp610
I1576
aI1577
aI6331
aI213
atRp611
sVDCC0191
p612
g3
((lp613
I54658
aI1571
aI2950
aI7153
aI1576
aI1577
aI8714
aI4363
aI5742
aI5743
aI368
aI2952
aI7155
aI89845
aI1558
aI5243
aI1244
aI9429
atRp614
sVDCC0442
p615
g3
((lp616
I1457
aI7150
atRp617
sVDCC0197
p618
g3
((lp619
I1636
aI5243
aI6564
aI6565
aI590
atRp620
sVDCC0196
p621
g3
((lp622
I54658
aI7364
aI9356
aI5742
aI5743
aI6579
aI213
aI1558
aI1559
atRp623
sVDCC0195
p624
g3
((lp625
I6580
aI9356
atRp626
sVDCC0194
p627
g3
((lp628
I54658
aI1543
aI1545
aI1558
aI1559
aI8856
aI53919
aI1576
aI1577
aI2099
aI2100
aI6581
aI6582
aI6580
aI55867
aI6462
aI28231
aI6579
aI9429
aI89845
aI2169
aI5243
aI213
atRp629
sVDCC1495
p630
g3
((lp631
I2185
aI1723
aI196
aI9429
aI1559
atRp632
sVDCC1494
p633
g3
((lp634
I54658
aI6564
aI1543
aI1576
aI1577
aI3156
aI1558
aI1559
aI7364
atRp635
sVDCC0166
p636
g3
((lp637
I6582
aI1576
aI151
aI146
aI147
aI148
aI150
aI1559
aI6584
aI6580
aI154
aI7124
aI5053
aI153
atRp638
sVDCC0167
p639
g3
((lp640
I3351
aI5243
aI6579
aI3350
aI9429
atRp641
sVDCC0164
p642
g3
((lp643
I6580
atRp644
sVDCC0165
p645
g3
((lp646
I6532
aI773
aI774
aI775
aI776
aI8714
aI779
aI782
aI783
aI784
aI785
aI1558
aI1559
aI1562
aI1576
aI1577
aI3757
aI6579
aI6580
aI6583
aI6584
aI6331
aI4363
aI8647
aI8911
aI8913
aI9429
aI1244
aI10257
aI89845
aI5243
atRp647
sVDCC0049
p648
g3
((lp649
I101929857
aI54658
aI1571
aI2166
aI6822
aI1543
aI1576
aI10
aI9356
aI6818
aI5742
aI5743
aI445329
aI7442
aI5243
aI1558
aI1559
aI6817
aI105369243
aI6783
atRp650
sVDCC0163
p651
g3
((lp652
I10280
aI4986
aI4988
atRp653
sVDCC0160
p654
g3
((lp655
I1576
aI1558
aI1559
aI4985
aI4986
aI4988
atRp656
sVDCC0161
p657
g3
((lp658
I9356
atRp659
sVDCC0045
p660
g3
((lp661
I9356
aI204
aI205
aI100507855
aI10257
aI1244
aI89845
aI654364
aI4830
aI4831
atRp662
sVDCC0044
p663
g3
((lp664
I6336
aI1576
aI5731
atRp665
sVDCC0047
p666
g3
((lp667
I6557
atRp668
sVDCC0046
p669
g3
((lp670
I5243
aI5447
atRp671
sVDCC0041
p672
g3
((lp673
I1576
aI3269
atRp674
sVDCC0040
p675
g3
((lp676
I6336
aI6331
aI1956
aI1576
aI1577
aI1558
aI1559
aI6584
aI1562
aI5243
atRp677
sVDCC0168
p678
g3
((lp679
I54657
aI1571
aI1577
aI8647
aI6817
aI1576
aI1545
aI1066
aI1543
aI5590
aI2099
aI2100
aI9429
aI1558
aI1559
aI10682
aI5243
aI1244
atRp680
sVDCC1845
p681
g3
((lp682
I1812
aI153
aI154
aI148
aI150
atRp683
sVDCC0225
p684
g3
((lp685
I1633
atRp686
sVDCC0224
p687
g3
((lp688
I3176
atRp689
sVDCC0227
p690
g3
((lp691
I1576
aI4881
aI1571
atRp692
sVDCC0990
p693
g3
((lp694
I153
aI154
atRp695
sVDCC0220
p696
g3
((lp697
I2908
atRp698
sVDCC0223
p699
g3
((lp700
I2247
aI2280
aI1577
aI2475
aI1576
aI5243
atRp701
sVDCC0222
p702
g3
((lp703
I185
aI1244
aI1559
atRp704
sVDCC1628
p705
g3
((lp706
I7296
atRp707
sVDCC0086
p708
g3
((lp709
I759
atRp710
sVDCC0229
p711
g3
((lp712
I3269
atRp713
sVDCC0228
p714
g3
((lp715
I9356
aI4860
aI2030
aI3177
atRp716
sVDCC1239
p717
g3
((lp718
I1576
atRp719
sVDCC0320
p720
g3
((lp721
I6530
aI116443
aI1576
aI5742
aI1813
aI1558
aI1559
aI4985
aI4986
aI5243
aI4988
aI3358
aI6869
atRp722
sVDCC0348
p723
g3
((lp724
I1576
aI2475
atRp725
sVDCC0321
p726
g3
((lp727
I1576
aI2908
atRp728
sVDCC0346
p729
g3
((lp730
I1576
atRp731
sVDCC0347
p732
g3
((lp733
I4129
aI6530
aI6531
aI6532
aI6571
aI6581
aI150
aI151
aI6584
atRp734
sVDCC0344
p735
g3
((lp736
I6584
aI6564
aI6565
atRp737
sVDCC0345
p738
g3
((lp739
I2560
aI9194
aI9123
aI79581
aI6566
atRp740
sVDCC0342
p741
g3
((lp742
I1571
aI1576
aI5244
aI4363
aI81027
aI6581
aI1558
aI1559
aI5243
aI203068
atRp743
sVDCC0343
p744
g3
((lp745
I1576
aI590
aI367
aI4306
aI5241
aI5743
atRp746
sVDCC0340
p747
g3
((lp748
I2099
aI1559
atRp749
sVDCC0341
p750
g3
((lp751
I9497
aI8671
atRp752
sVDCC1680
p753
g3
((lp754
I1576
aI1577
aI1803
aI4363
aI353189
atRp755
sVDCC0700
p756
g3
((lp757
I186
atRp758
sVDCC1681
p759
g3
((lp760
I2064
atRp761
sVDCC1682
p762
g3
((lp763
I3552
aI3553
aI3557
atRp764
sVDCC1551
p765
g3
((lp766
I6531
aI147
atRp767
sVDCC0290
p768
g3
((lp769
I54658
aI4363
aI7364
aI1576
aI1577
aI1803
aI10057
aI10257
aI6579
aI3156
aI1558
aI1559
aI196
aI5243
aI1244
atRp770
sVDCC0291
p771
g3
((lp772
I4985
aI4988
atRp773
sVDCC0292
p774
g3
((lp775
I23569
aI9356
atRp776
sVDCC0293
p777
g3
((lp778
I5731
aI28232
aI5739
aI5327
aI5141
aI5142
aI5143
aI5144
atRp779
sVDCC0294
p780
g3
((lp781
I8647
aI1576
aI1577
aI1559
aI4363
aI10257
aI6579
aI3156
aI213
aI23657
aI9429
atRp782
sVDCC0295
p783
g3
((lp784
I1890
aI1066
aI7298
aI1806
aI978
aI1559
atRp785
sVDCC0296
p786
g3
((lp787
I6403
aI462
aI2159
atRp788
sVDCC0297
p789
g3
((lp790
I3778
aI1571
aI3781
aI3783
aI1576
aI4843
aI3757
aI4846
aI1584
aI3779
aI90134
aI1559
aI5243
atRp791
sVDCC0298
p792
g3
((lp793
I6530
aI6531
aI6532
aI3269
aI1576
aI1577
aI6580
aI6582
atRp794
sVDCC0299
p795
g3
((lp796
I1723
aI1559
atRp797
sVDCC1011
p798
g3
((lp799
I4803
atRp800
sVDCC0666
p801
g3
((lp802
I4255
atRp803
sVDCC1686
p804
g3
((lp805
I1573
aI1576
aI1577
aI2159
aI9429
aI1558
aI1559
aI5243
atRp806
sVDCC1687
p807
g3
((lp808
I4067
aI5604
aI5605
aI1576
aI3055
aI818
aI25
aI1017
aI6714
aI5243
aI10746
aI613
atRp809
sVDCC1657
p810
g3
((lp811
I7010
aI1956
aI1576
aI4363
aI5004
aI9429
aI5753
aI5979
aI7422
aI213
atRp812
sVDCC1719
p813
g3
((lp814
I1576
aI5243
aI1559
atRp815
sVDCC1710
p816
g3
((lp817
I7852
atRp818
sVDCC1658
p819
g3
((lp820
I1576
aI5243
aI5004
aI213
atRp821
sVDCC0908
p822
g3
((lp823
I1576
aI2099
aI3284
aI1558
aI1559
aI5241
atRp824
sVDCC0329
p825
g3
((lp826
I81027
aI1545
aI4133
aI4134
aI1576
aI4137
aI4363
aI10864
aI596
aI89845
aI1577
aI8856
aI5243
aI1244
aI9429
atRp827
sVDCC0904
p828
g3
((lp829
I2064
atRp830
sVDCC0907
p831
g3
((lp832
I9497
aI8671
atRp833
sVDCC0455
p834
g3
((lp835
I2064
atRp836
sVDCC0452
p837
g3
((lp838
I2977
aI4842
aI1803
atRp839
sVDCC0465
p840
g3
((lp841
I6241
atRp842
sVDCC0453
p843
g3
((lp844
I4843
aI4846
atRp845
sVDCC0834
p846
g3
((lp847
I2798
atRp848
sVDCC0836
p849
g3
((lp850
I367
atRp851
sVDCC0029
p852
g3
((lp853
I54658
aI3683
aI7364
aI1576
aI1577
aI6579
aI3156
aI1558
aI1559
aI3066
aI5243
aI1244
atRp854
sVDCC1017
p855
g3
((lp856
I1111
atRp857
sVDCC0028
p858
g3
((lp859
I1576
aI1577
aI4363
aI6579
aI6580
aI1559
aI5243
aI1244
atRp860
sVDCC0027
p861
g3
((lp862
I3758
aI1559
atRp863
sVDCC1858
p864
g3
((lp865
I6898
aI51067
aI8565
aI7054
aI117247
atRp866
sVDCC0024
p867
g3
((lp868
I1576
aI23569
aI5243
atRp869
sVDCC0158
p870
g3
((lp871
I1633
aI7298
aI471
aI2030
aI1719
aI2618
atRp872
sVDCC0157
p873
g3
((lp874
I54658
aI7364
aI1577
aI1576
aI3689
aI6579
aI3156
aI1558
aI1559
aI5243
aI1244
atRp875
sVDCC0156
p876
g3
((lp877
I1576
aI6579
aI213
aI3290
aI5243
aI2908
atRp878
sVDCC1400
p879
g3
((lp880
I6257
aI5914
aI5915
aI5916
aI1558
atRp881
sVDCC0154
p882
g3
((lp883
I1571
aI150
aI1543
atRp884
sVDCC0153
p885
g3
((lp886
I6240
aI1633
aI9429
aI5422
atRp887
sVDCC1407
p888
g3
((lp889
I1576
aI8654
atRp890
sVDCC0403
p891
g3
((lp892
I2939
atRp893
sVDCC0150
p894
g3
((lp895
I1576
aI1558
aI1559
atRp896
sVDCC0021
p897
g3
((lp898
I1571
aI5591
aI5142
aI134
aI1543
aI1576
aI1545
aI5290
aI5291
aI5293
aI5243
aI6261
aI1558
aI1559
aI472
aI1577
aI135
aI3710
atRp899
sVDCC1823
p900
g3
((lp901
I2099
aI2100
atRp902
sVDCC0328
p903
g3
((lp904
I1576
aI5465
aI1558
aI1559
atRp905
sVDCC0128
p906
g3
((lp907
I1890
aI10057
aI8714
aI151531
aI4524
aI7298
aI2030
aI10864
aI10257
aI7378
aI7372
aI213
aI1558
aI1559
aI5471
aI1806
aI9429
atRp908
sVDCC0129
p909
g3
((lp910
I54657
aI5243
aI6325
aI6326
atRp911
sVDCC0122
p912
g3
((lp913
I54658
aI1956
aI1543
aI1576
aI1545
aI5004
aI9429
aI1558
aI1577
aI8856
aI5243
aI213
atRp914
sVDCC0123
p915
g3
((lp916
I1576
aI1577
aI1558
aI1559
aI1562
aI5243
atRp917
sVDCC0120
p918
g3
((lp919
I1728
aI2944
aI1571
aI1545
aI6582
aI2950
aI1543
aI2952
aI4489
aI6580
aI9429
aI4502
aI6647
aI538
aI1244
aI540
aI6581
atRp920
sVDCC0121
p921
g3
((lp922
I1576
aI1577
aI786
atRp923
sVDCC0126
p924
g3
((lp925
I8647
aI1576
aI1577
aI8714
aI4363
aI7277
aI10928
aI89845
aI1244
aI6581
aI5243
aI203068
aI9429
atRp926
sVDCC0127
p927
g3
((lp928
I4524
aI6564
aI1636
aI6565
atRp929
sVDCC0124
p930
g3
((lp931
I1576
aI1577
aI3757
aI7153
aI7155
aI5243
atRp932
sVDCC0125
p933
g3
((lp934
I1576
aI2099
aI5243
aI1543
atRp935
sVDCC0302
p936
g3
((lp937
I1576
aI1559
aI1571
aI1719
atRp938
sVDCC0303
p939
g3
((lp940
I1576
aI5468
aI1558
aI5742
aI1559
atRp941
sVDCC0300
p942
g3
((lp943
I2752
aI3778
aI759
aI760
aI476
aI6559
atRp944
sVDCC0301
p945
g3
((lp946
I1543
aI1576
aI495
aI9429
aI1558
aI1559
atRp947
sVDCC0306
p948
g3
((lp949
I6530
aI6531
aI1576
aI5004
aI1136
aI1571
aI1558
aI1559
atRp950
sVDCC0307
p951
g3
((lp952
I1719
atRp953
sVDCC0304
p954
g3
((lp955
I1576
aI9356
aI7153
aI6582
aI6583
aI5243
atRp956
sVDCC0308
p957
g3
((lp958
I7296
aI5595
aI1543
aI1576
aI1545
aI3725
aI207
aI595
aI5594
aI5243
aI1244
aI3551
atRp959
sVDCC1273
p960
g3
((lp961
I6530
aI6531
aI6532
atRp962
sVDCC1579
p963
g3
((lp964
I476
atRp965
sVDCC0494
p966
g3
((lp967
I1576
aI5243
aI9429
atRp968
sVDCC1478
p969
g3
((lp970
I367
aI5243
aI1577
aI1543
aI1576
aI1545
aI8647
aI1583
aI1584
aI6579
aI1558
aI1559
aI1595
atRp971
sVDCC1477
p972
g3
((lp973
I54577
aI54658
aI7364
aI3614
aI3615
atRp974
sVDCC1474
p975
g3
((lp976
I2908
aI1543
atRp977
sVDCC1473
p978
g3
((lp979
I1576
aI846
atRp980
sVDCC0043
p981
g3
((lp982
I54658
aI7363
aI7364
aI1576
aI1558
aI4985
aI4986
aI5243
aI4988
atRp983
sVDCC0717
p984
g3
((lp985
I4352
atRp986
sVDCC0063
p987
g3
((lp988
I3269
atRp989
sVDCC0061
p990
g3
((lp991
I1543
aI1576
aI1545
aI8714
aI1583
aI495
aI9429
aI1558
aI1559
aI1562
aI5243
atRp992
sVDCC0016
p993
g3
((lp994
I1576
aI5707
aI5708
aI1559
aI5689
aI5690
aI5693
atRp995
sVDCC0017
p996
g3
((lp997
I1644
atRp998
sVDCC0014
p999
g3
((lp1000
I185
aI213
aI1559
atRp1001
sVDCC0015
p1002
g3
((lp1003
I6564
aI1636
aI6565
aI590
atRp1004
sVDCC0012
p1005
g3
((lp1006
I2209
aI2212
aI2213
aI2214
aI2215
aI712
aI713
aI714
aI715
aI9103
aI7422
atRp1007
sVDCC0013
p1008
g3
((lp1009
I166785
aI4548
aI2694
aI326625
aI4552
aI4524
aI8029
aI25974
aI6948
aI81693
atRp1010
sVDCC0404
p1011
g3
((lp1012
I100
aI5422
atRp1013
sVDCC0394
p1014
g3
((lp1015
I1576
aI1571
aI1579
atRp1016
sVDCC0397
p1017
g3
((lp1018
I3553
aI834
aI836
aI54205
aI4318
atRp1019
sVDCC0396
p1020
g3
((lp1021
I5292
aI5294
atRp1022
sVDCC0018
p1023
g3
((lp1024
I6530
aI6532
aI1576
aI4985
aI4986
aI116443
aI4988
aI3358
atRp1025
sVDCC0019
p1026
g3
((lp1027
I10257
aI1066
aI6564
aI4758
aI4759
atRp1028
sVDCC1822
p1029
g3
((lp1030
I43
aI590
atRp1031
sVDCC0152
p1032
g3
((lp1033
I6584
aI23475
aI9123
aI4837
aI6566
atRp1034
sVDCC0377
p1035
g3
((lp1036
I3269
atRp1037
sVDCC0376
p1038
g3
((lp1039
I1666
atRp1040
sVDCC0375
p1041
g3
((lp1042
I148
aI150
atRp1043
sVDCC0374
p1044
g3
((lp1045
I1576
atRp1046
sVDCC0373
p1047
g3
((lp1048
I6530
aI148
atRp1049
sVDCC0151
p1050
g3
((lp1051
I3416
aI2
atRp1052
sVDCC0278
p1053
g3
((lp1054
I8140
aI6581
atRp1055
sVDCC0279
p1056
g3
((lp1057
I213
atRp1058
sVDCC0276
p1059
g3
((lp1060
I1576
aI5465
aI1558
aI1559
atRp1061
sVDCC0277
p1062
g3
((lp1063
I1571
aI1543
aI1577
aI2263
aI5005
aI5742
aI5743
aI51185
aI7124
aI4790
aI1559
atRp1064
sVDCC0274
p1065
g3
((lp1066
I2194
atRp1067
sVDCC0275
p1068
g3
((lp1069
I590
aI6580
aI6581
aI6582
aI6583
aI6584
aI1786
aI6331
atRp1070
sVDCC0272
p1071
g3
((lp1072
I8714
aI4363
aI9356
aI10257
aI1558
aI1559
aI6554
aI56606
aI53919
aI10864
aI6566
aI1576
aI6579
aI6580
aI6582
aI6584
aI55867
aI10057
aI24145
aI213
aI1244
aI9194
aI368
aI116085
aI5243
atRp1073
sVDCC0273
p1074
g3
((lp1075
I10057
aI2030
aI10257
aI3251
aI3177
aI5471
aI316
aI3615
atRp1076
sVDCC0270
p1077
g3
((lp1078
I1576
aI3725
aI5742
aI1558
aI1559
aI185
atRp1079
sVDCC0271
p1080
g3
((lp1081
I1576
aI5243
aI9429
aI7150
aI116447
atRp1082
sVDCC1589
p1083
g3
((lp1084
I7421
aI2638
atRp1085
sVDCC0787
p1086
g3
((lp1087
I1493
atRp1088
sVDCC0256
p1089
g3
((lp1090
I1633
aI1635
aI1576
aI4907
aI2030
aI5423
aI978
aI6580
aI89845
aI6582
atRp1091
sVDCC1584
p1092
g3
((lp1093
I1576
aI1129
aI6583
aI6584
aI1128
atRp1094
sVDCC0239
p1095
g3
((lp1096
I1576
aI1577
aI154
aI1558
atRp1097
sVDCC1828
p1098
g3
((lp1099
I2908
atRp1100
sVDCC0252
p1101
g3
((lp1102
I8647
aI1576
aI2099
aI1558
aI8856
aI6554
aI5243
aI1244
atRp1103
sVDCC1334
p1104
g3
((lp1105
I4129
atRp1106
sVDCC0253
p1107
g3
((lp1108
I6584
aI7153
aI1244
atRp1109
sVDCC1727
p1110
g3
((lp1111
I1576
aI8856
aI5243
aI9429
atRp1112
sVDCC1726
p1113
g3
((lp1114
I7364
aI5004
aI3156
aI9429
aI1558
aI1559
aI6554
aI5243
aI1244
aI213
atRp1115
sVDCC1722
p1116
g3
((lp1117
I185
atRp1118
sVDCC0552
p1119
g3
((lp1120
I1312
aI2099
aI200931
aI28232
aI5243
aI28231
aI1576
aI8714
aI4363
aI9356
aI10257
aI6579
aI9429
aI6554
aI55867
aI1244
aI53919
atRp1121
sVDCC1194
p1122
g3
((lp1123
I4129
aI6530
aI6531
aI6532
aI9607
aI6571
aI6581
aI6584
aI1813
atRp1124
sVDCC1197
p1125
g3
((lp1126
I2560
aI2561
aI2562
aI2563
aI2565
aI2566
aI2567
aI2569
aI2570
aI706
aI2554
aI2555
aI2556
aI2557
aI2559
atRp1127
sVDCC1191
p1128
g3
((lp1129
I55867
aI6566
aI8647
aI1576
aI1577
aI9356
aI10864
aI6579
aI3156
aI9429
aI1558
aI1559
aI5243
aI1244
atRp1130
sVDCC1728
p1131
g3
((lp1132
I1576
aI1577
aI5243
aI943
atRp1133
sVDCC1297
p1134
g3
((lp1135
I6564
aI6565
aI9356
aI10864
aI213
aI55867
atRp1136
sVDCC1293
p1137
g3
((lp1138
I6530
aI6531
aI6532
atRp1139
sVDCC1356
p1140
g3
((lp1141
I148
aI150
atRp1142
sVDCC1357
p1143
g3
((lp1144
I8647
aI5447
aI1576
aI1545
aI1543
aI4363
aI368
aI7153
aI7155
aI9429
aI6582
aI1577
aI5243
aI1244
aI89845
atRp1145
sVDCC1354
p1146
g3
((lp1147
I4306
aI2908
aI367
atRp1148
sVDCC1355
p1149
g3
((lp1150
I59272
aI6564
aI1636
aI6565
atRp1151
sVDCC0111
p1152
g3
((lp1153
I55867
aI7364
aI6582
aI7015
aI1576
aI10057
aI1559
aI7083
aI9356
aI10864
aI10257
aI9429
aI1558
aI3177
aI5243
aI213
atRp1154
sVDCC1351
p1155
g3
((lp1156
I1576
aI1577
aI6869
aI1559
atRp1157
sVDCC0110
p1158
g3
((lp1159
I1312
atRp1160
sVDCC0082
p1161
g3
((lp1162
I2182
aI5742
aI213
aI1558
aI1559
aI5468
atRp1163
sVDCC0169
p1164
g3
((lp1165
I54658
aI7364
aI1576
aI1577
aI9356
aI116085
aI1558
aI1559
aI185
aI5243
aI56606
aI213
atRp1166
sVDCC0085
p1167
g3
((lp1168
I5243
aI2908
aI1244
aI8911
aI1584
aI4306
aI6579
aI1558
aI5241
aI367
aI79644
aI6462
atRp1169
sVDCC0119
p1170
g3
((lp1171
I1636
aI1066
aI6564
aI6565
atRp1172
sVDCC1121
p1173
g3
((lp1174
I5553
aI6383
aI3563
aI1438
aI1439
atRp1175
sVDCC1120
p1176
g3
((lp1177
I1441
aI1991
atRp1178
sVDCC0118
p1179
g3
((lp1180
I1576
aI10383
aI5243
aI7846
aI1543
atRp1181
sVDCC1124
p1182
g3
((lp1183
I3490
aI4036
aI5925
aI94121
aI4856
aI3480
aI1363
aI3416
aI3643
aI1509
atRp1184
sVDCC1127
p1185
g3
((lp1186
I3454
aI3455
atRp1187
sVDCC1126
p1188
g3
((lp1189
I3459
aI3460
atRp1190
sVDCC1129
p1191
g3
((lp1192
I3339
aI2260
aI2261
aI2263
aI2264
aI8829
atRp1193
sVDCC0084
p1194
g3
((lp1195
I6564
atRp1196
sVDCC0370
p1197
g3
((lp1198
I3123
atRp1199
sVDCC1433
p1200
g3
((lp1201
I476
aI2939
aI9356
aI213
aI6557
atRp1202
sVDCC1432
p1203
g3
((lp1204
I4985
aI4986
aI4988
atRp1205
sVDCC1431
p1206
g3
((lp1207
I2560
aI10369
aI130
aI2563
aI2565
aI1543
aI776
aI128
aI779
aI2562
aI782
aI124
aI786
aI1559
aI1136
aI1571
aI1576
aI1579
aI3760
aI3762
aI3763
aI2742
aI7412
aI2890
aI2891
aI2892
aI2893
aI10327
aI116443
aI89832
aI3177
aI127
aI2030
aI2557
aI775
aI1137
aI1138
aI1139
aI2561
aI1141
aI2567
aI2554
aI2555
aI2556
aI125
aI2559
atRp1208
sVDCC1539
p1209
g3
((lp1210
I1576
aI1559
atRp1211
sVDCC1437
p1212
g3
((lp1213
I1576
aI54657
aI7421
atRp1214
sVDCC1436
p1215
g3
((lp1216
I768
aI4129
aI771
aI8913
aI1576
aI761
aI8911
aI23632
aI6328
aI6323
aI6325
aI6326
aI759
aI760
aI6329
aI762
aI6331
aI316
aI765
aI767
atRp1217
sVDCC0450
p1218
g3
((lp1219
I5337
atRp1220
sVDCC0451
p1221
g3
((lp1222
I51564
aI55869
atRp1223
sVDCC1824
p1224
g3
((lp1225
I2099
aI2100
atRp1226
sVDCC0026
p1227
g3
((lp1228
I1576
aI5243
aI1559
aI9429
aI495
atRp1229
sVDCC1530
p1230
g3
((lp1231
I1576
aI4985
aI4988
atRp1232
sVDCC1827
p1233
g3
((lp1234
I2162
atRp1235
sVDCC1820
p1236
g3
((lp1237
I1576
aI5243
aI3357
aI150
aI3351
atRp1238
sVDCC0022
p1239
g3
((lp1240
I1571
aI1577
aI1543
aI1576
aI10057
aI8654
aI10257
aI89845
aI1559
aI5148
aI5149
atRp1241
sVDCC0458
p1242
g3
((lp1243
I10495
atRp1244
sVDCC0459
p1245
g3
((lp1246
I2902
atRp1247
sVDCC0189
p1248
g3
((lp1249
I54658
aI1576
aI1577
aI1066
aI4363
aI590
aI9429
aI7150
aI213
aI5243
aI1244
aI116447
aI6581
atRp1250
sVDCC0087
p1251
g3
((lp1252
I3269
atRp1253
sVDCC0025
p1254
g3
((lp1255
I6256
aI6257
aI6258
aI5914
aI5915
aI5916
atRp1256
sVDCC0202
p1257
g3
((lp1258
I1128
aI1129
atRp1259
sVDCC0180
p1260
g3
((lp1261
I1576
aI1577
aI213
aI5241
aI5243
aI6462
atRp1262
sVDCC0181
p1263
g3
((lp1264
I59272
aI1636
aI5243
aI6564
atRp1265
sVDCC0182
p1266
g3
((lp1267
I1128
aI1129
atRp1268
sVDCC0183
p1269
g3
((lp1270
I43
aI590
atRp1271
sVDCC0184
p1272
g3
((lp1273
I1576
aI1577
aI301
aI1584
aI6579
aI9429
aI1558
aI5243
aI2908
aI6462
atRp1274
sVDCC0185
p1275
g3
((lp1276
I6331
atRp1277
sVDCC0186
p1278
g3
((lp1279
I1381
aI1382
aI1543
aI1576
aI1577
aI1579
aI8854
aI9052
aI6257
aI6258
aI1558
aI1559
aI216
aI1562
aI5916
aI190
atRp1280
sVDCC0187
p1281
g3
((lp1282
I1576
aI9356
aI10864
aI23569
aI213
aI55867
aI5621
atRp1283
sVDCC0235
p1284
g3
((lp1285
I1576
aI1595
aI1558
aI1559
atRp1286
sVDCC0206
p1287
g3
((lp1288
I2561
aI54658
aI1571
aI6326
aI1543
aI1576
aI1545
aI2562
aI6325
aI1558
aI1559
aI6329
aI1562
aI2166
aI213
atRp1289
sVDCC0113
p1290
g3
((lp1291
I10864
aI1571
aI6582
aI8647
aI1576
aI1577
aI6583
aI9356
aI1584
aI5243
aI6580
aI6581
aI1558
aI1559
aI6584
aI55867
atRp1292
sVDCC0112
p1293
g3
((lp1294
I1576
aI1577
aI5005
aI4985
aI4986
aI4988
atRp1295
sVDCC0058
p1296
g3
((lp1297
I1576
aI1129
aI6583
aI6584
aI1128
atRp1298
sVDCC0059
p1299
g3
((lp1300
I1814
aI1559
aI5004
aI147
aI148
aI1813
aI3350
aI3351
aI1816
aI3354
aI3356
aI3357
aI3358
aI3362
aI1576
aI151
aI3269
aI213
aI1128
aI1129
aI1815
aI150
aI1812
aI5243
atRp1301
sVDCC0117
p1302
g3
((lp1303
I2944
aI1728
aI1318
aI2950
aI6582
aI2952
aI4489
aI8714
aI1579
aI10057
aI5743
aI368
aI6647
aI1244
aI590
aI4502
aI1559
aI538
aI5243
aI540
aI9429
atRp1304
sVDCC0116
p1305
g3
((lp1306
I6530
aI1571
aI6532
aI5243
aI10857
aI1576
aI1577
aI89832
aI1136
aI1137
aI1139
aI1141
aI1558
aI1559
aI5880
aI4985
aI4986
aI116443
aI4988
aI10280
atRp1307
sVDCC0115
p1308
g3
((lp1309
I9356
aI213
atRp1310
sVDCC0114
p1311
g3
((lp1312
I1571
aI1576
aI1577
aI4363
aI6579
aI9429
aI1558
aI1559
aI5243
aI1244
atRp1313
sVDCC0052
p1314
g3
((lp1315
I9356
atRp1316
sVDCC0053
p1317
g3
((lp1318
I6530
aI6532
aI3350
aI3351
aI5004
aI146
aI147
aI148
aI1558
aI1559
aI3736
aI3356
aI3358
aI3362
aI1571
aI3751
aI1576
aI1577
aI4914
aI4915
aI3269
aI3785
aI3786
aI213
aI1128
aI1129
aI3752
aI150
aI10280
aI4985
aI4986
aI5243
aI4988
atRp1319
sVDCC0050
p1320
g3
((lp1321
I1956
aI1543
aI1576
aI1577
aI5004
aI213
aI1559
aI5243
aI9429
atRp1322
sVDCC0051
p1323
g3
((lp1324
I7363
aI7364
aI1576
aI1577
aI6580
aI4985
aI4986
aI4988
atRp1325
sVDCC0057
p1326
g3
((lp1327
I5564
aI6580
aI6581
aI6582
atRp1328
sVDCC0054
p1329
g3
((lp1330
I4881
aI1543
atRp1331
sVDCC0055
p1332
g3
((lp1333
I54658
aI8714
aI4363
aI9356
aI10257
aI1559
aI6554
aI368
aI1244
aI1066
aI6579
aI55867
aI7364
aI5320
aI2739
aI5465
aI5468
aI5742
aI5743
aI10864
aI5243
aI213
atRp1334
sVDCC0232
p1335
g3
((lp1336
I1571
aI6582
aI8647
aI1543
aI1576
aI6583
aI5004
aI3757
aI6579
aI6580
aI1558
aI1559
aI6584
aI5243
aI6331
aI1244
aI3775
atRp1337
sVDCC0233
p1338
g3
((lp1339
I1576
aI5468
aI213
aI1558
atRp1340
sVDCC0230
p1341
g3
((lp1342
I5731
aI8644
aI5733
atRp1343
sVDCC0231
p1344
g3
((lp1345
I1576
atRp1346
sVDCC0236
p1347
g3
((lp1348
I1576
aI1577
aI9429
aI1558
aI1559
aI4985
aI4986
aI5243
aI4988
aI1562
atRp1349
sVDCC0237
p1350
g3
((lp1351
I6582
atRp1352
sVDCC0234
p1353
g3
((lp1354
I4129
aI5243
aI1644
aI6580
aI1813
aI6582
aI116443
atRp1355
sVDCC1221
p1356
g3
((lp1357
I1576
aI23569
aI55867
aI9356
aI567
atRp1358
sVDCC0238
p1359
g3
((lp1360
I5733
aI5734
atRp1361
sVDCC1386
p1362
g3
((lp1363
I7364
aI9356
aI5742
aI5743
aI6256
aI213
aI1559
atRp1364
sVDCC1381
p1365
g3
((lp1366
I5243
atRp1367
sVDCC1380
p1368
g3
((lp1369
I23657
aI6331
aI9429
aI1543
atRp1370
sVDCC0629
p1371
g3
((lp1372
I945
atRp1373
sVDCC0023
p1374
g3
((lp1375
I1559
aI1558
aI1719
atRp1376
sVDCC0338
p1377
g3
((lp1378
I7018
aI213
atRp1379
sVDCC1548
p1380
g3
((lp1381
I6530
aI6532
aI2950
aI1576
aI213
aI5243
aI3356
aI3357
aI3358
atRp1382
sVDCC0333
p1383
g3
((lp1384
I1576
aI1803
aI5243
aI1558
atRp1385
sVDCC0620
p1386
g3
((lp1387
I2950
atRp1388
sVDCC1545
p1389
g3
((lp1390
I3360
aI1128
aI1586
aI1813
aI1584
atRp1391
sVDCC0330
p1392
g3
((lp1393
I27
aI7525
aI2534
aI1543
aI1576
aI1577
aI5159
aI3815
aI1969
aI25
aI9429
aI1545
aI6777
aI6714
aI5243
aI3932
atRp1394
sVDCC0337
p1395
g3
((lp1396
I1576
aI5033
aI8639
atRp1397
sVDCC0336
p1398
g3
((lp1399
I5156
aI5159
aI1576
aI1577
aI3815
aI3791
aI2321
aI2322
aI2324
aI9429
aI1436
aI5243
aI1244
aI10257
atRp1400
sVDCC0335
p1401
g3
((lp1402
I1576
aI5243
atRp1403
sVDCC0334
p1404
g3
((lp1405
I1633
aI1786
atRp1406
sVDCC0325
p1407
g3
((lp1408
I1571
aI1577
aI8647
aI1543
aI1576
aI1545
aI1579
aI301
aI4843
aI1583
aI1586
aI6579
aI1244
aI9429
aI1558
aI1559
aI5243
aI2908
aI190
atRp1409
sVDCC1577
p1410
g3
((lp1411
I801
aI805
aI775
aI808
aI6285
aI7125
aI6711
aI27032
aI831
aI7134
aI1311
atRp1412
sVDCC0652
p1413
g3
((lp1414
I1909
aI1910
atRp1415
sVDCC1644
p1416
g3
((lp1417
I8972
atRp1418
sVDCC1098
p1419
g3
((lp1420
I9900
atRp1421
sVDCC0245
p1422
g3
((lp1423
I1728
aI2944
aI1318
aI2950
aI2952
aI4489
aI9429
aI4502
aI6647
aI538
aI1244
aI540
atRp1424
sVDCC0244
p1425
g3
((lp1426
I1576
aI5241
aI2099
aI1244
atRp1427
sVDCC0243
p1428
g3
((lp1429
I1576
aI4985
aI4988
atRp1430
sVDCC0242
p1431
g3
((lp1432
I1576
aI10
aI1571
aI1558
aI1559
atRp1433
sVDCC0241
p1434
g3
((lp1435
I5243
aI6579
aI3269
atRp1436
sVDCC1546
p1437
g3
((lp1438
I3362
aI3350
aI1576
aI1577
aI1129
aI3351
aI151
aI1128
aI3358
aI147
aI1812
aI1813
aI1814
aI1815
aI1816
aI148
aI3354
aI3356
aI150
aI3269
atRp1439
sVDCC0331
p1440
g3
((lp1441
I1576
aI5972
atRp1442
sVDCC1097
p1443
g3
((lp1444
I54658
aI1543
aI1545
aI1558
aI1559
aI8856
aI53919
aI1576
aI1577
aI2099
aI2100
aI6581
aI6582
aI6580
aI55867
aI6462
aI28231
aI6579
aI9429
aI89845
aI2169
aI5243
aI213
atRp1445
sVDCC0248
p1446
g3
((lp1447
I5243
aI3269
aI1559
atRp1448
sVDCC0622
p1449
g3
((lp1450
I142
atRp1451
sVDCC0020
p1452
g3
((lp1453
I1576
aI5243
aI6579
aI3757
aI213
atRp1454
sVDCC1542
p1455
g3
((lp1456
I462
aI2159
atRp1457
sVDCC1541
p1458
g3
((lp1459
I1814
aI151
aI146
aI147
aI1812
aI1813
aI3350
aI3351
aI1816
aI3354
aI3356
aI3358
aI3362
aI1576
aI1577
aI3269
aI1128
aI1129
aI1815
aI150
aI148
aI5243
atRp1460
sVDCC1564
p1461
g3
((lp1462
I941
aI942
atRp1463
sVDCC0945
p1464
g3
((lp1465
I3609
atRp1466
sVDCC0440
p1467
g3
((lp1468
I81027
atRp1469
sVDCC0258
p1470
g3
((lp1471
I9254
aI134
aI586
aI781
aI774
aI116444
atRp1472
sVDCC0039
p1473
g3
((lp1474
I1571
aI100
aI5142
aI134
aI135
aI1576
aI1545
aI1543
aI8654
aI10864
aI136
aI5139
aI5141
aI1558
aI1559
aI3066
atRp1475
sVDCC1165
p1476
g3
((lp1477
I3454
aI3455
atRp1478
sVDCC1164
p1479
g3
((lp1480
I6752
aI6755
aI6751
atRp1481
sVDCC1166
p1482
g3
((lp1483
I5020
aI5550
atRp1484
sVDCC1567
p1485
g3
((lp1486
I3643
atRp1487
sVDCC1160
p1488
g3
((lp1489
I2492
aI3973
atRp1490
sVDCC1162
p1491
g3
((lp1492
I1441
aI1991
atRp1493
sVDCC1488
p1494
g3
((lp1495
I2560
aI2561
aI2562
aI2563
aI2565
aI2566
aI2567
aI1576
aI2569
aI10
aI706
aI2557
aI1571
aI213
aI2554
aI2555
aI2556
aI2570
atRp1496
sVDCC1367
p1497
g3
((lp1498
I6530
aI6532
aI1128
aI1129
aI1558
aI1559
aI5243
aI3356
atRp1499
sVDCC1365
p1500
g3
((lp1501
I6564
aI6565
atRp1502
sVDCC0802
p1503
g3
((lp1504
I54658
atRp1505
sVDCC1363
p1506
g3
((lp1507
I2224
atRp1508
sVDCC1361
p1509
g3
((lp1510
I1576
aI148
aI146
aI147
aI5004
atRp1511
sVDCC1368
p1512
g3
((lp1513
I10057
aI9356
aI205
aI100507855
aI10257
aI204
aI6581
aI654364
aI4830
aI4831
atRp1514
sVDCC0400
p1515
g3
((lp1516
I4790
atRp1517
sVDCC0148
p1518
g3
((lp1519
I9429
aI5156
aI780
aI5159
aI1576
aI1577
aI3815
aI5004
aI5742
aI4914
aI6580
aI213
aI6582
aI1559
aI25
aI5243
aI1436
aI21
atRp1520
sVDCC1479
p1521
g3
((lp1522
I1576
aI1129
aI1559
aI1128
atRp1523
sVDCC0144
p1524
g3
((lp1525
I4129
atRp1526
sVDCC0145
p1527
g3
((lp1528
I1576
aI153
aI154
atRp1529
sVDCC0146
p1530
g3
((lp1531
I3176
aI1545
aI1559
aI1558
aI1543
atRp1532
sVDCC0147
p1533
g3
((lp1534
I7184
aI1576
aI3320
atRp1535
sVDCC0416
p1536
g3
((lp1537
I116443
aI6869
atRp1538
sVDCC0417
p1539
g3
((lp1540
I596
atRp1541
sVDCC0414
p1542
g3
((lp1543
I2936
aI8913
aI9900
aI759
atRp1544
sVDCC0143
p1545
g3
((lp1546
I10864
aI55867
aI9356
atRp1547
sVDCC1353
p1548
g3
((lp1549
I2560
aI54657
aI2562
aI2563
aI2561
aI2565
aI2566
aI2567
aI1576
aI2569
aI2570
aI5243
aI1571
aI6580
aI1577
aI2554
aI2555
aI2556
aI2557
aI2559
atRp1550
sVDCC1525
p1551
g3
((lp1552
I7153
aI4363
aI1559
atRp1553
sVDCC0932
p1554
g3
((lp1555
I142
aI10038
atRp1556
sVDCC1471
p1557
g3
((lp1558
I2944
aI4258
aI2950
aI1576
aI2938
aI2939
atRp1559
sVDCC1503
p1560
g3
((lp1561
I590
atRp1562
sVDCC1502
p1563
g3
((lp1564
I801
aI1571
aI805
aI1543
aI1576
aI1577
aI8714
aI779
aI808
aI781
aI783
aI775
aI776
aI1558
aI1559
aI3736
aI5243
aI1244
atRp1565
sVDCC1501
p1566
g3
((lp1567
I10846
aI5142
atRp1568
sVDCC1500
p1569
g3
((lp1570
I6564
aI6565
atRp1571
sVDCC1507
p1572
g3
((lp1573
I1576
aI1577
atRp1574
sVDCC1505
p1575
g3
((lp1576
I213
aI7422
aI1559
atRp1577
sVDCC1262
p1578
g3
((lp1579
I1576
atRp1580
sVDCC1509
p1581
g3
((lp1582
I3091
aI1571
aI7412
aI1543
aI1576
aI2697
aI1559
aI3757
aI5742
aI4879
aI146
aI147
aI148
aI150
aI151
aI153
aI154
aI5243
aI7422
atRp1583
sVDCC1508
p1584
g3
((lp1585
I1576
aI1559
aI367
atRp1586
sVDCC1267
p1587
g3
((lp1588
I1577
aI8647
aI1543
aI1576
aI1545
aI6582
aI4363
aI4306
aI1586
aI2099
aI6580
aI6581
aI1558
aI1559
aI5241
aI6554
aI5243
aI4986
atRp1589
sVDCC1468
p1590
g3
((lp1591
I2944
aI2939
aI2938
aI3251
atRp1592
sVDCC1831
p1593
g3
((lp1594
I153
aI148
aI1812
aI150
atRp1595
sVDCC0469
p1596
g3
((lp1597
I5321
atRp1598
sVDCC0467
p1599
g3
((lp1600
I6261
aI6262
atRp1601
sVDCC1465
p1602
g3
((lp1603
I1576
aI43
aI590
atRp1604
sVDCC1466
p1605
g3
((lp1606
I1576
atRp1607
sVDCC1830
p1608
g3
((lp1609
I768
aI3778
aI771
aI759
aI760
aI762
aI476
aI6557
aI6559
atRp1610
sVDCC0463
p1611
g3
((lp1612
I3269
atRp1613
sVDCC1461
p1614
g3
((lp1615
I5914
atRp1616
sVDCC0460
p1617
g3
((lp1618
I1025
aI1020
aI1022
atRp1619
sVDCC0818
p1620
g3
((lp1621
I2932
aI2892
aI3613
aI3612
atRp1622
sVDCC0363
p1623
g3
((lp1624
I3320
atRp1625
sVDCC1040
p1626
g3
((lp1627
I3480
atRp1628
sVDCC1860
p1629
g3
((lp1630
I760
aI8170
aI1499
aI383
atRp1631
sVDCC0062
p1632
g3
((lp1633
I1576
aI316
atRp1634
sVDCC0388
p1635
g3
((lp1636
I18
atRp1637
sVDCC0060
p1638
g3
((lp1639
I153
aI154
aI5243
atRp1640
sVDCC0067
p1641
g3
((lp1642
I1576
aI5243
aI203068
atRp1643
sVDCC0066
p1644
g3
((lp1645
I3040
aI135
aI1576
aI43
aI590
aI5243
aI3039
atRp1646
sVDCC1205
p1647
g3
((lp1648
I148
aI146
aI147
aI6564
atRp1649
sVDCC0064
p1650
g3
((lp1651
I1576
aI1577
aI786
aI1558
aI1559
aI5243
atRp1652
sVDCC0383
p1653
g3
((lp1654
I2280
atRp1655
sVDCC0069
p1656
g3
((lp1657
I54657
aI1558
aI1543
aI1545
aI1559
aI147
aI1812
aI1813
aI3350
aI3351
aI3354
aI3356
aI3358
aI3362
aI1571
aI1576
aI151
aI3269
aI50632
aI1814
aI1128
aI1129
aI1815
aI150
aI148
aI5243
atRp1658
sVDCC0387
p1659
g3
((lp1660
I5731
atRp1661
sVDCC0565
p1662
g3
((lp1663
I775
atRp1664
sVDCC0364
p1665
g3
((lp1666
I1024
aI1025
aI1956
aI5837
aI9429
aI983
aI1017
aI1019
aI1020
aI1021
aI1022
atRp1667
sVDCC0209
p1668
g3
((lp1669
I2560
aI2561
aI2562
aI2563
aI2565
aI2566
aI2567
aI2569
aI2570
aI1558
aI1559
aI1562
aI1571
aI1576
aI1577
aI706
aI213
aI2555
aI5742
aI2554
aI5243
aI2556
atRp1670
sVDCC0361
p1671
g3
((lp1672
I55869
aI8841
aI3066
aI10013
aI3065
atRp1673
sVDCC0362
p1674
g3
((lp1675
I1244
aI8647
atRp1676
sVDCC1218
p1677
g3
((lp1678
I3351
aI3362
aI3350
aI1576
aI1577
aI1129
aI151
aI1128
aI3358
aI147
aI1812
aI1813
aI1814
aI1815
aI1816
aI148
aI3354
aI3356
aI150
aI3269
atRp1679
sVDCC0203
p1680
g3
((lp1681
I22978
aI132
aI3614
aI2030
aI3615
atRp1682
sVDCC1601
p1683
g3
((lp1684
I54106
aI51284
atRp1685
sVDCC0201
p1686
g3
((lp1687
I1576
aI3784
aI3753
atRp1688
sVDCC0811
p1689
g3
((lp1690
I10060
atRp1691
sVDCC0207
p1692
g3
((lp1693
I5241
aI2099
atRp1694
sVDCC0369
p1695
g3
((lp1696
I1576
aI1571
aI5742
aI1559
atRp1697
sVDCC0205
p1698
g3
((lp1699
I213
atRp1700
sVDCC1210
p1701
g3
((lp1702
I6505
aI773
atRp1703
sVDCC1599
p1704
g3
((lp1705
I1576
atRp1706
sVDCC1590
p1707
g3
((lp1708
I4985
aI4986
aI4988
atRp1709
sVDCC1593
p1710
g3
((lp1711
I148
aI6530
aI6531
aI147
aI6571
atRp1712
sVDCC1594
p1713
g3
((lp1714
I101930400
aI1571
aI8647
aI1646
aI10257
aI6579
aI6554
aI1244
atRp1715
sVDCC1595
p1716
g3
((lp1717
I1576
aI1129
aI1128
atRp1718
sVDCC1693
p1719
g3
((lp1720
I941
aI942
atRp1721
sVDCC1692
p1722
g3
((lp1723
I7124
atRp1724
sVDCC1207
p1725
g3
((lp1726
I6530
aI6531
aI6532
aI3269
aI1576
aI1128
aI1571
aI148
aI5243
atRp1727
sVDCC1690
p1728
g3
((lp1729
I1803
aI2740
aI4311
atRp1730
sVDCC0399
p1731
g3
((lp1732
I5465
atRp1733
sVDCC1699
p1734
g3
((lp1735
I5241
atRp1736
sVDCC0446
p1737
g3
((lp1738
I3454
aI3455
atRp1739
sVDCC1417
p1740
g3
((lp1741
I23649
aI5226
aI1571
aI1543
atRp1742
sVDCC0398
p1743
g3
((lp1744
I3251
aI3614
atRp1745
sVDCC1285
p1746
g3
((lp1747
I6582
aI1543
aI5004
aI3757
aI146
aI147
aI148
aI9429
aI90134
aI151
aI6580
aI5243
aI150
aI6581
atRp1748
sVDCC1411
p1749
g3
((lp1750
I1576
aI1577
aI4363
aI5241
aI5243
aI2908
atRp1751
sVDCC1227
p1752
g3
((lp1753
I1576
aI1577
aI2147
atRp1754
sVDCC0011
p1755
g3
((lp1756
I5478
aI8647
aI1576
aI1577
aI8714
aI4363
aI9356
aI6579
aI89845
aI819
aI9429
aI1558
aI1559
aI10105
aI6554
aI5243
aI1244
aI5535
atRp1757
sVDCC0424
p1758
g3
((lp1759
I3615
atRp1760
sVDCC1200
p1761
g3
((lp1762
I1576
aI1577
aI1559
aI5243
aI1584
atRp1763
sVDCC1736
p1764
g3
((lp1765
I5228
aI7422
aI7423
atRp1766
sVDCC0684
p1767
g3
((lp1768
I2280
atRp1769
sVDCC1046
p1770
g3
((lp1771
I5243
aI2159
atRp1772
sVDCC1733
p1773
g3
((lp1774
I1723
aI9429
aI1558
atRp1775
sVDCC0204
p1776
g3
((lp1777
I1576
aI1577
aI4985
aI4986
aI5243
aI4988
atRp1778
sVDCC1412
p1779
g3
((lp1780
I1312
aI153
aI154
atRp1781
sVDCC0849
p1782
g3
((lp1783
I5104
aI2147
aI2153
aI1356
aI2157
aI10544
aI7056
aI5269
aI5627
aI5054
aI2677
atRp1784
sVDCC1284
p1785
g3
((lp1786
I6530
aI6531
aI6532
aI1576
aI5004
aI213
aI2902
aI2903
aI2904
aI2905
aI4986
aI4988
aI2906
atRp1787
sVDCC0247
p1788
g3
((lp1789
I5468
aI185
aI5243
aI1244
aI9429
atRp1790
sVDCC1329
p1791
g3
((lp1792
I1571
aI1137
aI1576
aI2891
aI89832
aI2898
aI1139
aI2166
aI2554
aI2555
aI2556
aI2557
aI2559
atRp1793
sVDCC1328
p1794
g3
((lp1795
I153
aI146
aI147
aI148
aI154
atRp1796
sVDCC1282
p1797
g3
((lp1798
I148
aI1813
atRp1799
sVDCC0246
p1800
g3
((lp1801
I6336
atRp1802
sVDCC1224
p1803
g3
((lp1804
I2936
atRp1805
sVDCC1321
p1806
g3
((lp1807
I51174
aI7846
aI8647
aI1576
aI1244
aI4363
aI3725
aI368
aI7283
aI6582
aI5243
aI203068
atRp1808
sVDCC0969
p1809
g3
((lp1810
I241
atRp1811
sVDCC0393
p1812
g3
((lp1813
I586
aI781
aI774
aI134
atRp1814
sVDCC1641
p1815
g3
((lp1816
I153
aI154
atRp1817
sVDCC1314
p1818
g3
((lp1819
I1576
aI1543
atRp1820
sVDCC0240
p1821
g3
((lp1822
I53632
aI5243
aI1558
aI7157
aI9356
aI1645
aI5742
aI5743
aI10864
aI3309
aI213
aI4790
aI1559
aI4792
aI3551
aI6197
aI1909
atRp1823
sVDCC1138
p1824
g3
((lp1825
I2209
aI2212
aI2213
aI2214
aI2215
aI712
aI713
aI714
aI715
aI716
aI9103
aI945
atRp1826
sVDCC1136
p1827
g3
((lp1828
I2690
aI5618
atRp1829
sVDCC1137
p1830
g3
((lp1831
I2209
aI2212
aI2213
aI2214
aI2215
aI712
aI713
aI714
aI715
aI716
aI9103
aI7448
aI3674
aI3690
atRp1832
sVDCC1135
p1833
g3
((lp1834
I3973
aI2798
atRp1835
sVDCC1132
p1836
g3
((lp1837
I3480
aI3643
atRp1838
sVDCC1133
p1839
g3
((lp1840
I3480
aI3643
atRp1841
sVDCC1649
p1842
g3
((lp1843
I136
aI134
aI135
atRp1844
sVDCC1849
p1845
g3
((lp1846
I6584
aI3269
aI6583
atRp1847
sVDCC0249
p1848
g3
((lp1849
I1312
aI6564
aI1644
aI150
atRp1850
sVDCC0162
p1851
g3
((lp1852
I7298
atRp1853
sVDCC0048
p1854
g3
((lp1855
I54657
aI36
aI6566
aI9734
aI4967
aI1576
aI1577
aI7915
aI9356
aI5742
aI10864
aI18
aI1558
aI1559
aI6584
aI7364
aI1562
aI3066
atRp1856
sVDCC1819
p1857
g3
((lp1858
I4988
atRp1859
sVDCC1422
p1860
g3
((lp1861
I154
aI590
atRp1862
sVDCC1423
p1863
g3
((lp1864
I1576
aI552
aI554
atRp1865
sVDCC0427
p1866
g3
((lp1867
I1024
aI1017
aI1019
aI1021
aI983
atRp1868
sVDCC0426
p1869
g3
((lp1870
I1312
aI1545
aI3091
aI6462
aI1543
atRp1871
sVDCC1427
p1872
g3
((lp1873
I1576
aI1577
aI1543
atRp1874
sVDCC1811
p1875
g3
((lp1876
I153
aI154
atRp1877
sVDCC1810
p1878
g3
((lp1879
I1576
aI3269
atRp1880
sVDCC1813
p1881
g3
((lp1882
I1604
aI1576
aI1577
aI9356
aI1558
aI1559
aI3678
atRp1883
sVDCC1812
p1884
g3
((lp1885
I9356
aI3269
atRp1886
sVDCC1815
p1887
g3
((lp1888
I1576
atRp1889
sVDCC1814
p1890
g3
((lp1891
I760
aI762
aI6559
aI9356
aI759
atRp1892
sVDCC0032
p1893
g3
((lp1894
I6331
aI1576
aI1577
aI1584
aI6323
aI213
aI1558
aI1559
aI1562
aI5243
aI1244
aI53919
atRp1895
sVDCC1816
p1896
g3
((lp1897
I6571
atRp1898
sVDCC1842
p1899
g3
((lp1900
I4129
atRp1901
sVDCC0332
p1902
g3
((lp1903
I1956
aI1576
aI1577
aI6890
aI2064
aI1558
aI5243
atRp1904
sVDCC1846
p1905
g3
((lp1906
I6559
atRp1907
sVDCC0875
p1908
g3
((lp1909
I2984
atRp1910
sVDCC0100
p1911
g3
((lp1912
I6532
aI1576
aI1577
aI5004
aI213
aI1559
aI5243
atRp1913
sVDCC0101
p1914
g3
((lp1915
I2560
aI2561
aI2562
aI2563
aI2565
aI2566
aI2567
aI1576
aI2569
aI2570
aI2554
aI2555
aI2556
aI2557
aI2559
atRp1916
sVDCC1854
p1917
g3
((lp1918
I213
atRp1919
sVDCC0103
p1920
g3
((lp1921
I1003
aI5743
aI51185
aI8600
aI5243
aI7422
atRp1922
sVDCC0104
p1923
g3
((lp1924
I1576
aI316
aI2099
aI2100
aI1558
atRp1925
sVDCC1844
p1926
g3
((lp1927
I6323
atRp1928
sVDCC0106
p1929
g3
((lp1930
I316
aI150
aI151
atRp1931
sVDCC0107
p1932
g3
((lp1933
I7153
atRp1934
sVDCC0109
p1935
g3
((lp1936
I6564
aI1636
aI6565
atRp1937
sVDCC0042
p1938
g3
((lp1939
I1576
aI5241
aI2099
atRp1940
sVDCC1434
p1941
g3
((lp1942
I3360
aI1571
aI1576
aI1577
aI3351
aI3350
aI1559
aI4988
atRp1943
sVDCC0372
p1944
g3
((lp1945
I1576
aI1577
aI1559
atRp1946
sVDCC1622
p1947
g3
((lp1948
I4069
atRp1949
sVDCC0634
p1950
g3
((lp1951
I5579
atRp1952
sVDCC1399
p1953
g3
((lp1954
I38
aI5319
aI23657
aI5742
aI5743
aI240
aI9429
aI1577
aI5468
aI1147
aI1244
aI3551
atRp1955
sVDCC1256
p1956
g3
((lp1957
I1576
aI1571
aI1558
aI1559
atRp1958
sVDCC0630
p1959
g3
((lp1960
I5243
atRp1961
sVDCC1393
p1962
g3
((lp1963
I2908
aI1558
atRp1964
sVDCC1390
p1965
g3
((lp1966
I1576
aI1577
aI1066
aI1558
aI1559
aI5243
atRp1967
sVDCC1258
p1968
g3
((lp1969
I1128
aI3269
atRp1970
sVDCC1396
p1971
g3
((lp1972
I3690
aI3674
atRp1973
sVDCC1395
p1974
g3
((lp1975
I28232
aI10057
aI5731
aI10257
atRp1976
sVDCC0081
p1977
g3
((lp1978
I3269
atRp1979
sVDCC0080
p1980
g3
((lp1981
I2224
aI4363
aI9453
atRp1982
sVDCC0083
p1983
g3
((lp1984
I7010
aI6564
aI6565
aI6566
aI213
aI6584
atRp1985
sVDCC0226
p1986
g3
((lp1987
I6564
aI1636
aI6565
atRp1988
sVDCC1491
p1989
g3
((lp1990
I1576
aI1129
aI1571
aI1128
atRp1991
sVDCC1559
p1992
g3
((lp1993
I154
aI1559
atRp1994
sVDCC1493
p1995
g3
((lp1996
I1576
aI1545
aI4835
aI3855
aI1543
atRp1997
sVDCC0738
p1998
g3
((lp1999
I1576
aI154
aI5243
aI54658
atRp2000
sVDCC0089
p2001
g3
((lp2002
I1576
aI1813
atRp2003
sVDCC0088
p2004
g3
((lp2005
I7298
aI7083
aI9356
aI1890
atRp2006
sVDCC0322
p2007
g3
((lp2008
I1576
aI3066
aI1571
aI134
aI5139
atRp2009
sVDCC0323
p2010
g3
((lp2011
I81027
aI1545
aI4133
aI4134
aI8647
aI1576
aI1577
aI1559
aI4363
aI596
aI9429
aI1558
aI4137
aI8856
aI5243
aI1244
aI89845
atRp2012
sVDCC0324
p2013
g3
((lp2014
I1576
aI1577
aI4363
aI5004
aI1583
aI6579
aI6580
aI213
aI1558
aI1559
aI5243
aI1244
aI9429
atRp2015
sVDCC1498
p2016
g3
((lp2017
I4129
aI6531
aI6532
aI1576
aI1559
aI5243
atRp2018
sVDCC0326
p2019
g3
((lp2020
I6564
aI8140
aI1644
aI1812
aI1813
aI1814
aI1815
aI1816
aI117247
atRp2021
sVDCC0327
p2022
g3
((lp2023
I513
aI1571
aI1576
aI2890
aI27032
aI213
aI4535
aI3736
aI2554
atRp2024
sVDCC0665
p2025
g3
((lp2026
I2099
aI2100
atRp2027
sVDCC1624
p2028
g3
((lp2029
I54963
aI1806
atRp2030
sVDCC1737
p2031
g3
((lp2032
I5696
aI5698
aI5699
aI5689
aI5690
aI5243
aI5693
atRp2033
sVDCC1555
p2034
g3
((lp2035
I1956
atRp2036
sVDCC1537
p2037
g3
((lp2038
I1576
aI81551
atRp2039
sVDCC1615
p2040
g3
((lp2041
I1576
aI1571
aI3939
aI683
aI142
atRp2042
sVDCC0378
p2043
g3
((lp2044
I1576
aI8529
aI66002
aI1571
aI8877
atRp2045
sVDCC0639
p2046
g3
((lp2047
I1909
atRp2048
sVDCC1084
p2049
g3
((lp2050
I931
atRp2051
sVDCC1106
p2052
g3
((lp2053
I931
atRp2054
sVDCC1556
p2055
g3
((lp2056
I7422
atRp2057
sVDCC1534
p2058
g3
((lp2059
I1576
aI1577
aI1558
aI1559
atRp2060
sVDCC0254
p2061
g3
((lp2062
I1128
aI590
atRp2063
sVDCC0255
p2064
g3
((lp2065
I154
aI1559
atRp2066
sVDCC0920
p2067
g3
((lp2068
I5742
aI5743
atRp2069
sVDCC0257
p2070
g3
((lp2071
I7852
atRp2072
sVDCC0250
p2073
g3
((lp2074
I54658
aI7364
aI1576
aI8714
aI64240
aI64241
aI9429
aI6646
aI5243
aI1244
atRp2075
sVDCC0251
p2076
g3
((lp2077
I100
aI10057
aI8654
aI10257
aI5141
aI5243
aI10846
atRp2078
sVDCC1677
p2079
g3
((lp2080
I5745
atRp2081
sVDCC1676
p2082
g3
((lp2083
I3570
atRp2084
sVDCC1679
p2085
g3
((lp2086
I3356
aI1813
aI1814
atRp2087
sVDCC1678
p2088
g3
((lp2089
I1576
aI1577
aI2475
aI5243
atRp2090
sVDCC0551
p2091
g3
((lp2092
I2147
atRp2093
sVDCC0885
p2094
g3
((lp2095
I1576
aI1803
aI5243
atRp2096
sVDCC1775
p2097
g3
((lp2098
I3688
aI3678
atRp2099
sVDCC0887
p2100
g3
((lp2101
I1573
aI1543
aI1576
aI2638
aI1583
aI1558
aI1559
aI1593
aI7421
atRp2102
sVDCC0886
p2103
g3
((lp2104
I8200
aI5645
aI51181
aI2760
aI2643
aI6035
aI7124
aI54
aI55256
aI9588
aI7919
aI5320
aI191
atRp2105
sVDCC1238
p2106
g3
((lp2107
I6336
aI1576
atRp2108
sVDCC1535
p2109
g3
((lp2110
I1571
aI1576
aI1545
aI4363
aI7153
aI9429
aI5243
atRp2111
sVDCC0520
p2112
g3
((lp2113
I5625
aI590
atRp2114
sVDCC0411
p2115
g3
((lp2116
I1719
atRp2117
sVDCC0371
p2118
g3
((lp2119
I1576
aI1803
atRp2120
sVDCC1241
p2121
g3
((lp2122
I5241
aI2099
atRp2123
sVDCC0349
p2124
g3
((lp2125
I1800
aI9356
atRp2126
sVDCC1242
p2127
g3
((lp2128
I6256
aI6257
aI6258
aI1559
aI1576
atRp2129
sVDCC1172
p2130
g3
((lp2131
I384
aI4843
aI113451
aI6541
aI4846
aI435
aI6583
aI6584
aI445
aI117247
atRp2132
sVDCC1231
p2133
g3
((lp2134
I6530
aI6531
aI6532
aI1576
aI9429
aI1559
aI5243
atRp2135
sVDCC0640
p2136
g3
((lp2137
I2209
aI931
aI2212
aI2213
aI2214
aI2215
aI712
aI713
aI714
aI715
aI716
aI9103
atRp2138
sVDCC1244
p2139
g3
((lp2140
I1137
aI1576
aI2556
aI2891
aI89832
aI2898
aI1139
aI2554
aI2555
aI116444
aI2557
aI2559
atRp2141
sVDCC1574
p2142
g3
((lp2143
I2932
aI2892
aI3613
aI3612
atRp2144
sVDCC1245
p2145
g3
((lp2146
I7298
aI1890
aI1559
atRp2147
sVDCC1374
p2148
g3
((lp2149
I6564
aI6565
aI6566
aI1576
aI1577
aI5004
aI5742
aI10257
aI9356
aI213
aI1559
aI5468
atRp2150
sVDCC0956
p2151
g3
((lp2152
I596
atRp2153
sVDCC1376
p2154
g3
((lp2155
I3269
aI1576
aI1577
aI1815
aI1814
aI147
aI148
aI1813
aI3350
aI151
aI1812
aI3358
aI5243
aI3356
aI150
atRp2156
sVDCC1377
p2157
g3
((lp2158
I1576
aI495
atRp2159
sVDCC1370
p2160
g3
((lp2161
I6336
aI4129
aI6531
aI116443
aI590
atRp2162
sVDCC1246
p2163
g3
((lp2164
I1576
aI2908
atRp2165
sVDCC1372
p2166
g3
((lp2167
I217
aI4881
atRp2168
sVDCC1235
p2169
g3
((lp2170
I6579
aI2950
atRp2171
sVDCC1247
p2172
g3
((lp2173
I1576
aI5742
aI1559
aI4985
aI4986
aI4988
atRp2174
sVDCC1234
p2175
g3
((lp2176
I3978
aI3980
aI642
atRp2177
sVDCC1249
p2178
g3
((lp2179
I2280
aI1576
aI2475
atRp2180
sVDCC0613
p2181
g3
((lp2182
I6822
aI1576
aI4363
aI5004
aI1586
aI213
aI1558
aI1559
atRp2183
sVDCC0179
p2184
g3
((lp2185
I1633
aI654364
aI10257
aI4831
aI5833
aI5130
aI4363
aI9356
aI5230
aI51727
aI30833
aI6580
aI9429
aI6582
aI5243
aI1244
aI8714
aI4830
aI6581
atRp2186
sVDCC0178
p2187
g3
((lp2188
I1576
aI1577
aI1558
aI1559
atRp2189
sVDCC1552
p2190
g3
((lp2191
I1576
atRp2192
sVDCC0171
p2193
g3
((lp2194
I1543
aI1576
aI5004
aI213
aI1558
aI1559
aI79001
aI1562
atRp2195
sVDCC0173
p2196
g3
((lp2197
I54658
aI7364
aI1576
aI1577
aI1066
aI54577
aI9429
aI213
aI1558
aI5243
aI1244
aI3614
aI3615
atRp2198
sVDCC0175
p2199
g3
((lp2200
I6530
aI3350
aI1576
aI3351
aI146
aI147
aI148
aI1813
aI150
aI151
aI1816
aI5243
aI3356
aI3358
atRp2201
sVDCC0174
p2202
g3
((lp2203
I5226
aI9356
aI6584
aI213
aI760
aI55867
aI1244
aI6557
atRp2204
sVDCC0177
p2205
g3
((lp2206
I4985
aI4986
aI5243
aI4988
aI54658
atRp2207
sVDCC0176
p2208
g3
((lp2209
I9429
aI5447
atRp2210
sVDCC1122
p2211
g3
((lp2212
I3554
atRp2213
sVDCC1569
p2214
g3
((lp2215
I3643
atRp2216
sVDCC1105
p2217
g3
((lp2218
I3486
atRp2219
sVDCC1829
p2220
g3
((lp2221
I1576
aI6530
atRp2222
sVDCC1614
p2223
g3
((lp2224
I552
aI554
atRp2225
sVDCC1161
p2226
g3
((lp2227
I3683
aI3140
aI2213
aI3688
aI3690
aI909
aI942
aI9103
aI920
aI7449
aI3685
atRp2228
sVDCC0480
p2229
g3
((lp2230
I5578
aI5579
atRp2231
s.