(dp1
VDCC0081
p2
c__builtin__
set
p3
((lp4
VDB00405
p5
atRp6
sVDCC0777
p7
g3
((lp8
VDB06589
p9
atRp10
sVDCC1515
p11
g3
((lp12
VDB01151
p13
atRp14
sVDCC0779
p15
g3
((lp16
VDB06292
p17
atRp18
sVDCC1459
p19
g3
((lp20
VDB00972
p21
atRp22
sVDCC1561
p23
g3
((lp24
VDB01277
p25
atRp26
sVDCC1560
p27
g3
((lp28
VDB01276
p29
atRp30
sVDCC1450
p31
g3
((lp32
VDB00947
p33
atRp34
sVDCC1453
p35
g3
((lp36
VDB00955
p37
atRp38
sVDCC0470
p39
g3
((lp40
VDB04290
p41
atRp42
sVDCC1454
p43
g3
((lp44
VDB00959
p45
atRp46
sVDCC1489
p47
g3
((lp48
VDB01072
p49
atRp50
sVDCC1498
p51
g3
((lp52
VDB01104
p53
atRp54
sVDCC1218
p55
g3
((lp56
VDB00246
p57
atRp58
sVDCC1564
p59
g3
((lp60
VDB01281
p61
atRp62
sVDCC0070
p63
g3
((lp64
VDB00367
p65
atRp66
sVDCC0071
p67
g3
((lp68
VDB00371
p69
atRp70
sVDCC0072
p71
g3
((lp72
VDB00373
p73
atRp74
sVDCC0073
p75
g3
((lp76
VDB00381
p77
atRp78
sVDCC0074
p79
g3
((lp80
VDB00384
p81
atRp82
sVDCC0075
p83
g3
((lp84
VDB00388
p85
atRp86
sVDCC0076
p87
g3
((lp88
VDB00393
p89
atRp90
sVDCC0077
p91
g3
((lp92
VDB00394
p93
atRp94
sVDCC1855
p95
g3
((lp96
VDB01582
p97
atRp98
sVDCC0079
p99
g3
((lp100
VDB00398
p101
atRp102
sVDCC1857
p103
g3
((lp104
VDB00685
p105
atRp106
sVDCC0723
p107
g3
((lp108
VDB04849
p109
atRp110
sVDCC1851
p111
g3
((lp112
VDB01369
p113
atRp114
sVDCC1850
p115
g3
((lp116
VDB01325
p117
atRp118
sVDCC1852
p119
g3
((lp120
VDB00206
p121
atRp122
sVDCC1637
p123
g3
((lp124
VDB04835
p125
atRp126
sVDCC0596
p127
g3
((lp128
VDB12254
p129
atRp130
sVDCC1639
p131
g3
((lp132
VDB04845
p133
atRp134
sVDCC0351
p135
g3
((lp136
VDB01601
p137
atRp138
sVDCC0350
p139
g3
((lp140
VDB01598
p141
atRp142
sVDCC0353
p143
g3
((lp144
VDB01607
p145
atRp146
sVDCC0352
p147
g3
((lp148
VDB01606
p149
atRp150
sVDCC1208
p151
g3
((lp152
VDB00218
p153
atRp154
sVDCC1209
p155
g3
((lp156
VDB00220
p157
atRp158
sVDCC0357
p159
g3
((lp160
VDB01941
p161
atRp162
sVDCC1204
p163
g3
((lp164
VDB00209
p165
atRp166
sVDCC1205
p167
g3
((lp168
VDB00211
p169
atRp170
sVDCC0212
p171
g3
((lp172
VDB00845
p173
atRp174
sVDCC1207
p175
g3
((lp176
VDB00215
p177
atRp178
sVDCC0603
p179
g3
((lp180
VDB00066
p181
atRp182
sVDCC0215
p183
g3
((lp184
VDB00853
p185
atRp186
sVDCC0216
p187
g3
((lp188
VDB00860
p189
atRp190
sVDCC1203
p191
g3
((lp192
VDB00208
p193
atRp194
sVDCC0452
p195
g3
((lp196
VDB09241
p197
atRp198
sVDCC0283
p199
g3
((lp200
VDB01054
p201
atRp202
sVDCC1681
p203
g3
((lp204
VDB06366
p205
atRp206
sVDCC1682
p207
g3
((lp208
VDB06372
p209
atRp210
sVDCC0280
p211
g3
((lp212
VDB01045
p213
atRp214
sVDCC1684
p215
g3
((lp216
VDB06590
p217
atRp218
sVDCC0286
p219
g3
((lp220
VDB01067
p221
atRp222
sVDCC1686
p223
g3
((lp224
VDB06605
p225
atRp226
sVDCC1687
p227
g3
((lp228
VDB06616
p229
atRp230
sVDCC1688
p231
g3
((lp232
VDB06626
p233
atRp234
sVDCC1689
p235
g3
((lp236
VDB06643
p237
atRp238
sVDCC0289
p239
g3
((lp240
VDB01075
p241
atRp242
sVDCC0288
p243
g3
((lp244
VDB01073
p245
atRp246
sVDCC1199
p247
g3
((lp248
VDB00191
p249
atRp250
sVDCC0421
p251
g3
((lp252
VDB04876
p253
atRp254
sVDCC0850
p255
g3
((lp256
VDB09020
p257
atRp258
sVDCC1702
p259
g3
((lp260
VDB06717
p261
atRp262
sVDCC1705
p263
g3
((lp264
VDB06724
p265
atRp266
sVDCC1704
p267
g3
((lp268
VDB06723
p269
atRp270
sVDCC1707
p271
g3
((lp272
VDB06772
p273
atRp274
sVDCC1424
p275
g3
((lp276
VDB00882
p277
atRp278
sVDCC1425
p279
g3
((lp280
VDB00884
p281
atRp282
sVDCC1338
p283
g3
((lp284
VDB00640
p285
atRp286
sVDCC1339
p287
g3
((lp288
VDB00643
p289
atRp290
sVDCC1666
p291
g3
((lp292
VDB06209
p293
atRp294
sVDCC1330
p295
g3
((lp296
VDB00602
p297
atRp298
sVDCC1455
p299
g3
((lp300
VDB00960
p301
atRp302
sVDCC1332
p303
g3
((lp304
VDB00607
p305
atRp306
sVDCC1333
p307
g3
((lp308
VDB00608
p309
atRp310
sVDCC0917
p311
g3
((lp312
VDB00087
p313
atRp314
sVDCC1335
p315
g3
((lp316
VDB06710
p317
atRp318
sVDCC1336
p319
g3
((lp320
VDB00630
p321
atRp322
sVDCC0034
p323
g3
((lp324
VDB00260
p325
atRp326
sVDCC0035
p327
g3
((lp328
VDB00263
p329
atRp330
sVDCC1813
p331
g3
((lp332
VDB00446
p333
atRp334
sVDCC1812
p335
g3
((lp336
VDB01237
p337
atRp338
sVDCC0271
p339
g3
((lp340
VDB01030
p341
atRp342
sVDCC0885
p343
g3
((lp344
VDB08882
p345
atRp346
sVDCC0030
p347
g3
((lp348
VDB00238
p349
atRp350
sVDCC0031
p351
g3
((lp352
VDB00241
p353
atRp354
sVDCC0032
p355
g3
((lp356
VDB00252
p357
atRp358
sVDCC0033
p359
g3
((lp360
VDB00257
p361
atRp362
sVDCC0427
p363
g3
((lp364
VDB12429
p365
atRp366
sVDCC1149
p367
g3
((lp368
VDB00074
p369
atRp370
sVDCC1021
p371
g3
((lp372
VDB11699
p373
atRp374
sVDCC1143
p375
g3
((lp376
VDB00065
p377
atRp378
sVDCC1142
p379
g3
((lp380
VDB00063
p381
atRp382
sVDCC1140
p383
g3
((lp384
VDB00060
p385
atRp386
sVDCC1145
p387
g3
((lp388
VDB00067
p389
atRp390
sVDCC1144
p391
g3
((lp392
VDB00066
p393
atRp394
sVDCC0009
p395
g3
((lp396
VDB00073
p397
atRp398
sVDCC0431
p399
g3
((lp400
VDB11672
p401
atRp402
sVDCC0432
p403
g3
((lp404
VDB11948
p405
atRp406
sVDCC0435
p407
g3
((lp408
VDB11937
p409
atRp410
sVDCC0437
p411
g3
((lp412
VDB12558
p413
atRp414
sVDCC0439
p415
g3
((lp416
VDB01849
p417
atRp418
sVDCC1417
p419
g3
((lp420
VDB00851
p421
atRp422
sVDCC0002
p423
g3
((lp424
VDB00008
p425
atRp426
sVDCC0005
p427
g3
((lp428
VDB00027
p429
atRp430
sVDCC0004
p431
g3
((lp432
VDB00023
p433
atRp434
sVDCC0007
p435
g3
((lp436
VDB00051
p437
atRp438
sVDCC1353
p439
g3
((lp440
VDB00683
p441
atRp442
sVDCC1740
p443
g3
((lp444
VDB08903
p445
atRp446
sVDCC0139
p447
g3
((lp448
VDB00588
p449
atRp450
sVDCC1710
p451
g3
((lp452
VDB06809
p453
atRp454
sVDCC0135
p455
g3
((lp456
VDB00572
p457
atRp458
sVDCC0134
p459
g3
((lp460
VDB00571
p461
atRp462
sVDCC0137
p463
g3
((lp464
VDB00584
p465
atRp466
sVDCC0136
p467
g3
((lp468
VDB00575
p469
atRp470
sVDCC0131
p471
g3
((lp472
VDB00563
p473
atRp474
sVDCC0130
p475
g3
((lp476
VDB00560
p477
atRp478
sVDCC0133
p479
g3
((lp480
VDB00567
p481
atRp482
sVDCC1858
p483
g3
((lp484
VDB00135
p485
atRp486
sVDCC0315
p487
g3
((lp488
VDB01197
p489
atRp490
sVDCC1241
p491
g3
((lp492
VDB00304
p493
atRp494
sVDCC1242
p495
g3
((lp496
VDB00307
p497
atRp498
sVDCC0640
p499
g3
((lp500
VDB00078
p501
atRp502
sVDCC1244
p503
g3
((lp504
VDB00312
p505
atRp506
sVDCC1245
p507
g3
((lp508
VDB00322
p509
atRp510
sVDCC1246
p511
g3
((lp512
VDB00324
p513
atRp514
sVDCC1247
p515
g3
((lp516
VDB00327
p517
atRp518
sVDCC1249
p519
g3
((lp520
VDB00337
p521
atRp522
sVDCC0319
p523
g3
((lp524
VDB01212
p525
atRp526
sVDCC0318
p527
g3
((lp528
VDB01211
p529
atRp530
sVDCC1482
p531
g3
((lp532
VDB01046
p533
atRp534
sVDCC0078
p535
g3
((lp536
VDB00395
p537
atRp538
sVDCC1481
p539
g3
((lp540
VDB01043
p541
atRp542
sVDCC1486
p543
g3
((lp544
VDB01064
p545
atRp546
sVDCC0118
p547
g3
((lp548
VDB00518
p549
atRp550
sVDCC0098
p551
g3
((lp552
VDB00455
p553
atRp554
sVDCC0099
p555
g3
((lp556
VDB00471
p557
atRp558
sVDCC0096
p559
g3
((lp560
VDB00445
p561
atRp562
sVDCC0097
p563
g3
((lp564
VDB00448
p565
atRp566
sVDCC0094
p567
g3
((lp568
VDB00441
p569
atRp570
sVDCC0095
p571
g3
((lp572
VDB00443
p573
atRp574
sVDCC0092
p575
g3
((lp576
VDB00439
p577
atRp578
sVDCC0093
p579
g3
((lp580
VDB00440
p581
atRp582
sVDCC0090
p583
g3
((lp584
VDB00436
p585
atRp586
sVDCC0091
p587
g3
((lp588
VDB00438
p589
atRp590
sVDCC1856
p591
g3
((lp592
VDB01021
p593
atRp594
sVDCC0426
p595
g3
((lp596
VDB02342
p597
atRp598
sVDCC1745
p599
g3
((lp600
VDB08910
p601
atRp602
sVDCC1744
p603
g3
((lp604
VDB08908
p605
atRp606
sVDCC0893
p607
g3
((lp608
VDB09324
p609
atRp610
sVDCC1743
p611
g3
((lp612
VDB08907
p613
atRp614
sVDCC1742
p615
g3
((lp616
VDB08906
p617
atRp618
sVDCC1844
p619
g3
((lp620
VDB01438
p621
atRp622
sVDCC1749
p623
g3
((lp624
VDB00041
p625
aVDB00022
p626
aVDB08914
p627
atRp628
sVDCC0261
p629
g3
((lp630
VDB01001
p631
atRp632
sVDCC0260
p633
g3
((lp634
VDB00999
p635
atRp636
sVDCC0263
p637
g3
((lp638
VDB01005
p639
atRp640
sVDCC0262
p641
g3
((lp642
VDB01004
p643
atRp644
sVDCC0265
p645
g3
((lp646
VDB01009
p647
atRp648
sVDCC0264
p649
g3
((lp650
VDB01006
p651
atRp652
sVDCC0267
p653
g3
((lp654
VDB01016
p655
atRp656
sVDCC0266
p657
g3
((lp658
VDB01015
p659
atRp660
sVDCC0269
p661
g3
((lp662
VDB01023
p663
atRp664
sVDCC0268
p665
g3
((lp666
VDB01017
p667
atRp668
sVDCC1664
p669
g3
((lp670
VDB06168
p671
atRp672
sVDCC1662
p673
g3
((lp674
VDB06151
p675
atRp676
sVDCC0545
p677
g3
((lp678
VDB08934
p679
atRp680
sVDCC0547
p681
g3
((lp682
VDB09060
p683
atRp684
sVDCC0793
p685
g3
((lp686
VDB04398
p687
atRp688
sVDCC0794
p689
g3
((lp690
VDB01638
p691
atRp692
sVDCC0797
p693
g3
((lp694
VDB09082
p695
atRp696
sVDCC0799
p697
g3
((lp698
VDB09350
p699
atRp700
sVDCC0102
p701
g3
((lp702
VDB00479
p703
atRp704
sVDCC1661
p705
g3
((lp706
VDB06149
p707
atRp708
sVDCC0106
p709
g3
((lp710
VDB00484
p711
atRp712
sVDCC1188
p713
g3
((lp714
VDB00165
p715
atRp716
sVDCC1183
p717
g3
((lp718
VDB00158
p719
atRp720
sVDCC1182
p721
g3
((lp722
VDB00153
p723
atRp724
sVDCC1181
p725
g3
((lp726
VDB00148
p727
atRp728
sVDCC0944
p729
g3
((lp730
VDB12228
p731
atRp732
sVDCC0218
p733
g3
((lp734
VDB00864
p735
atRp736
sVDCC1345
p737
g3
((lp738
VDB00659
p739
atRp740
sVDCC1347
p741
g3
((lp742
VDB00664
p743
atRp744
sVDCC0219
p745
g3
((lp746
VDB00869
p747
atRp748
sVDCC0949
p749
g3
((lp750
VDB06193
p751
atRp752
sVDCC0355
p753
g3
((lp754
VDB01645
p755
atRp756
sVDCC1845
p757
g3
((lp758
VDB00397
p759
atRp760
sVDCC0354
p761
g3
((lp762
VDB01620
p763
atRp764
sVDCC1252
p765
g3
((lp766
VDB00349
p767
atRp768
sVDCC0210
p769
g3
((lp770
VDB00835
p771
atRp772
sVDCC0211
p773
g3
((lp774
VDB00836
p775
atRp776
sVDCC1116
p777
g3
((lp778
VDB00014
p779
atRp780
sVDCC1117
p781
g3
((lp782
VDB00015
p783
atRp784
sVDCC1110
p785
g3
((lp786
VDB00005
p787
atRp788
sVDCC1112
p789
g3
((lp790
VDB00007
p791
atRp792
sVDCC1200
p793
g3
((lp794
VDB00196
p795
atRp796
sVDCC1118
p797
g3
((lp798
VDB00016
p799
atRp800
sVDCC0881
p801
g3
((lp802
VDB09123
p803
atRp804
sVDCC0217
p805
g3
((lp806
VDB00863
p807
atRp808
sVDCC1390
p809
g3
((lp810
VDB00758
p811
atRp812
sVDCC1446
p813
g3
((lp814
VDB00935
p815
atRp816
sVDCC1444
p817
g3
((lp818
VDB00930
p819
atRp820
sVDCC1445
p821
g3
((lp822
VDB00932
p823
atRp824
sVDCC0764
p825
g3
((lp826
VDB08873
p827
atRp828
sVDCC1443
p829
g3
((lp830
VDB00928
p831
atRp832
sVDCC1838
p833
g3
((lp834
VDB00232
p835
atRp836
sVDCC0768
p837
g3
((lp838
VDB06603
p839
atRp840
sVDCC1524
p841
g3
((lp842
VDB01175
p843
atRp844
sVDCC1521
p845
g3
((lp846
VDB01167
p847
atRp848
sVDCC1520
p849
g3
((lp850
VDB01166
p851
atRp852
sVDCC1523
p853
g3
((lp854
VDB01171
p855
atRp856
sVDCC1522
p857
g3
((lp858
VDB01168
p859
atRp860
sVDCC0199
p861
g3
((lp862
VDB00798
p863
atRp864
sVDCC0198
p865
g3
((lp866
VDB13919
p867
aVDB00796
p868
atRp869
sVDCC0193
p870
g3
((lp871
VDB00781
p872
atRp873
sVDCC0440
p874
g3
((lp875
VDB12617
p876
atRp877
sVDCC0191
p878
g3
((lp879
VDB00773
p880
atRp881
sVDCC0442
p882
g3
((lp883
VDB07715
p884
atRp885
sVDCC0197
p886
g3
((lp887
VDB00790
p888
atRp889
sVDCC0196
p890
g3
((lp891
VDB00788
p892
atRp893
sVDCC0195
p894
g3
((lp895
VDB00787
p896
atRp897
sVDCC0194
p898
g3
((lp899
VDB00783
p900
atRp901
sVDCC0328
p902
g3
((lp903
VDB01241
p904
atRp905
sVDCC0329
p906
g3
((lp907
VDB01248
p908
atRp909
sVDCC0166
p910
g3
((lp911
VDB00668
p912
atRp913
sVDCC0167
p914
g3
((lp915
VDB00669
p916
atRp917
sVDCC0164
p918
g3
((lp919
VDB00654
p920
atRp921
sVDCC1849
p922
g3
((lp923
VDB06691
p924
atRp925
sVDCC0049
p926
g3
((lp927
VDB00316
p928
atRp929
sVDCC0048
p930
g3
((lp931
VDB00313
p932
atRp933
sVDCC0160
p934
g3
((lp935
VDB00647
p936
atRp937
sVDCC0161
p938
g3
((lp939
VDB00649
p940
atRp941
sVDCC0045
p942
g3
((lp943
VDB00300
p944
atRp945
sVDCC0044
p946
g3
((lp947
VDB00297
p948
atRp949
sVDCC0047
p950
g3
((lp951
VDB00310
p952
atRp953
sVDCC0046
p954
g3
((lp955
VDB00305
p956
atRp957
sVDCC0041
p958
g3
((lp959
VDB00283
p960
atRp961
sVDCC0040
p962
g3
((lp963
VDB00281
p964
atRp965
sVDCC0043
p966
g3
((lp967
VDB00295
p968
atRp969
sVDCC0042
p970
g3
((lp971
VDB00294
p972
atRp973
sVDCC1622
p974
g3
((lp975
VDB03175
p976
atRp977
sVDCC0224
p978
g3
((lp979
VDB00878
p980
atRp981
sVDCC0227
p982
g3
((lp983
VDB00883
p984
atRp985
sVDCC0990
p986
g3
((lp987
VDB12313
p988
atRp989
sVDCC0221
p990
g3
((lp991
VDB00874
p992
atRp993
sVDCC0220
p994
g3
((lp995
VDB00873
p996
atRp997
sVDCC1624
p998
g3
((lp999
VDB03419
p1000
atRp1001
sVDCC0222
p1002
g3
((lp1003
VDB00876
p1004
atRp1005
sVDCC0585
p1006
g3
((lp1007
VDB11256
p1008
atRp1009
sVDCC1628
p1010
g3
((lp1011
VDB04106
p1012
atRp1013
sVDCC0738
p1014
g3
((lp1015
VDB05039
p1016
atRp1017
sVDCC0229
p1018
g3
((lp1019
VDB00902
p1020
atRp1021
sVDCC0228
p1022
g3
((lp1023
VDB00900
p1024
atRp1025
sVDCC1239
p1026
g3
((lp1027
VDB00301
p1028
atRp1029
sVDCC1238
p1030
g3
((lp1031
VDB00296
p1032
atRp1033
sVDCC0348
p1034
g3
((lp1035
VDB01590
p1036
atRp1037
sVDCC0321
p1038
g3
((lp1039
VDB01222
p1040
atRp1041
sVDCC1231
p1042
g3
((lp1043
VDB00285
p1044
atRp1045
sVDCC0347
p1046
g3
((lp1047
VDB01577
p1048
atRp1049
sVDCC0344
p1050
g3
((lp1051
VDB01413
p1052
atRp1053
sVDCC0345
p1054
g3
((lp1055
VDB01440
p1056
atRp1057
sVDCC1235
p1058
g3
((lp1059
VDB00291
p1060
atRp1061
sVDCC0343
p1062
g3
((lp1063
VDB01395
p1064
atRp1065
sVDCC0340
p1066
g3
((lp1067
VDB01357
p1068
atRp1069
sVDCC0613
p1070
g3
((lp1071
VDB05812
p1072
atRp1073
sVDCC1680
p1074
g3
((lp1075
VDB06335
p1076
atRp1077
sVDCC0700
p1078
g3
((lp1079
VDB09279
p1080
atRp1081
sVDCC0282
p1082
g3
((lp1083
VDB01050
p1084
atRp1085
sVDCC0281
p1086
g3
((lp1087
VDB01048
p1088
atRp1089
sVDCC0325
p1090
g3
((lp1091
VDB01234
p1092
atRp1093
sVDCC0290
p1094
g3
((lp1095
VDB01076
p1096
atRp1097
sVDCC0291
p1098
g3
((lp1099
VDB01081
p1100
atRp1101
sVDCC0292
p1102
g3
((lp1103
VDB01082
p1104
atRp1105
sVDCC0293
p1106
g3
((lp1107
VDB01088
p1108
atRp1109
sVDCC0294
p1110
g3
((lp1111
VDB01098
p1112
atRp1113
sVDCC0295
p1114
g3
((lp1115
VDB01101
p1116
atRp1117
sVDCC0296
p1118
g3
((lp1119
VDB01109
p1120
atRp1121
sVDCC0297
p1122
g3
((lp1123
VDB01110
p1124
atRp1125
sVDCC0298
p1126
g3
((lp1127
VDB01114
p1128
atRp1129
sVDCC0299
p1130
g3
((lp1131
VDB01117
p1132
atRp1133
sVDCC0666
p1134
g3
((lp1135
VDB11919
p1136
atRp1137
sVDCC0285
p1138
g3
((lp1139
VDB01060
p1140
atRp1141
sVDCC0284
p1142
g3
((lp1143
VDB01058
p1144
atRp1145
sVDCC1657
p1146
g3
((lp1147
VDB05294
p1148
atRp1149
sVDCC0532
p1150
g3
((lp1151
VDB06824
p1152
atRp1153
sVDCC1301
p1154
g3
((lp1155
VDB00506
p1156
atRp1157
sVDCC1719
p1158
g3
((lp1159
VDB08816
p1160
atRp1161
sVDCC1659
p1162
g3
((lp1163
VDB05630
p1164
atRp1165
sVDCC1658
p1166
g3
((lp1167
VDB05521
p1168
atRp1169
sVDCC0908
p1170
g3
((lp1171
VDB00603
p1172
atRp1173
sVDCC0909
p1174
g3
((lp1175
VDB12624
p1176
atRp1177
sVDCC0904
p1178
g3
((lp1179
VDB11828
p1180
atRp1181
sVDCC0907
p1182
g3
((lp1183
VDB01390
p1184
atRp1185
sVDCC0457
p1186
g3
((lp1187
VDB11998
p1188
atRp1189
sVDCC0565
p1190
g3
((lp1191
VDB09230
p1192
atRp1193
sVDCC1828
p1194
g3
((lp1195
VDB00846
p1196
atRp1197
sVDCC0453
p1198
g3
((lp1199
VDB03756
p1200
atRp1201
sVDCC0834
p1202
g3
((lp1203
VDB06825
p1204
atRp1205
sVDCC0836
p1206
g3
((lp1207
VDB00894
p1208
atRp1209
sVDCC0029
p1210
g3
((lp1211
VDB00227
p1212
atRp1213
sVDCC1017
p1214
g3
((lp1215
VDB11899
p1216
atRp1217
sVDCC0028
p1218
g3
((lp1219
VDB00224
p1220
atRp1221
sVDCC0025
p1222
g3
((lp1223
VDB00210
p1224
atRp1225
sVDCC0159
p1226
g3
((lp1227
VDB00646
p1228
atRp1229
sVDCC0158
p1230
g3
((lp1231
VDB00642
p1232
atRp1233
sVDCC0405
p1234
g3
((lp1235
VDB06440
p1236
atRp1237
sVDCC0023
p1238
g3
((lp1239
VDB00205
p1240
atRp1241
sVDCC0407
p1242
g3
((lp1243
VDB05154
p1244
atRp1245
sVDCC0154
p1246
g3
((lp1247
VDB00633
p1248
atRp1249
sVDCC0153
p1250
g3
((lp1251
VDB00631
p1252
atRp1253
sVDCC1407
p1254
g3
((lp1255
VDB00820
p1256
atRp1257
sVDCC0403
p1258
g3
((lp1259
VDB09256
p1260
atRp1261
sVDCC0022
p1262
g3
((lp1263
VDB00203
p1264
atRp1265
sVDCC0458
p1266
g3
((lp1267
VDB04915
p1268
atRp1269
sVDCC1677
p1270
g3
((lp1271
VDB06285
p1272
atRp1273
sVDCC1535
p1274
g3
((lp1275
VDB01204
p1276
atRp1277
sVDCC1703
p1278
g3
((lp1279
VDB06719
p1280
atRp1281
sVDCC0213
p1282
g3
((lp1283
VDB00850
p1284
atRp1285
sVDCC0129
p1286
g3
((lp1287
VDB00555
p1288
atRp1289
sVDCC0122
p1290
g3
((lp1291
VDB00530
p1292
atRp1293
sVDCC0123
p1294
g3
((lp1295
VDB00531
p1296
atRp1297
sVDCC0120
p1298
g3
((lp1299
VDB00526
p1300
atRp1301
sVDCC0121
p1302
g3
((lp1303
VDB00528
p1304
atRp1305
sVDCC0126
p1306
g3
((lp1307
VDB00541
p1308
atRp1309
sVDCC0127
p1310
g3
((lp1311
VDB00542
p1312
atRp1313
sVDCC0124
p1314
g3
((lp1315
VDB00537
p1316
atRp1317
sVDCC0125
p1318
g3
((lp1319
VDB00539
p1320
atRp1321
sVDCC0302
p1322
g3
((lp1323
VDB01131
p1324
atRp1325
sVDCC1577
p1326
g3
((lp1327
VDB01373
p1328
atRp1329
sVDCC0300
p1330
g3
((lp1331
VDB01119
p1332
atRp1333
sVDCC0301
p1334
g3
((lp1335
VDB01129
p1336
atRp1337
sVDCC0306
p1338
g3
((lp1339
VDB01156
p1340
atRp1341
sVDCC0307
p1342
g3
((lp1343
VDB01157
p1344
atRp1345
sVDCC0304
p1346
g3
((lp1347
VDB01137
p1348
atRp1349
sVDCC0305
p1350
g3
((lp1351
VDB01155
p1352
atRp1353
sVDCC0308
p1354
g3
((lp1355
VDB01169
p1356
atRp1357
sVDCC0309
p1358
g3
((lp1359
VDB01172
p1360
atRp1361
sVDCC1273
p1362
g3
((lp1363
VDB00422
p1364
atRp1365
sVDCC1579
p1366
g3
((lp1367
VDB01378
p1368
atRp1369
sVDCC0214
p1370
g3
((lp1371
VDB00852
p1372
atRp1373
sVDCC0494
p1374
g3
((lp1375
VDB09065
p1376
atRp1377
sVDCC1478
p1378
g3
((lp1379
VDB01026
p1380
atRp1381
sVDCC1477
p1382
g3
((lp1383
VDB01024
p1384
atRp1385
sVDCC1474
p1386
g3
((lp1387
VDB01013
p1388
atRp1389
sVDCC1473
p1390
g3
((lp1391
VDB01012
p1392
atRp1393
sVDCC0717
p1394
g3
((lp1395
VDB05332
p1396
atRp1397
sVDCC1860
p1398
g3
((lp1399
VDB03904
p1400
atRp1401
sVDCC1861
p1402
g3
((lp1403
VDB06147
p1404
atRp1405
sVDCC0061
p1406
g3
((lp1407
VDB00338
p1408
atRp1409
sVDCC0016
p1410
g3
((lp1411
VDB00188
p1412
atRp1413
sVDCC0017
p1414
g3
((lp1415
VDB00190
p1416
atRp1417
sVDCC0014
p1418
g3
((lp1419
VDB00177
p1420
atRp1421
sVDCC0015
p1422
g3
((lp1423
VDB00178
p1424
atRp1425
sVDCC0012
p1426
g3
((lp1427
VDB00112
p1428
atRp1429
sVDCC0398
p1430
g3
((lp1431
VDB09214
p1432
atRp1433
sVDCC0358
p1434
g3
((lp1435
VDB02300
p1436
atRp1437
sVDCC0011
p1438
g3
((lp1439
VDB00091
p1440
atRp1441
sVDCC0395
p1442
g3
((lp1443
VDB09345
p1444
atRp1445
sVDCC0394
p1446
g3
((lp1447
VDB04977
p1448
atRp1449
sVDCC0396
p1450
g3
((lp1451
VDB02656
p1452
atRp1453
sVDCC0391
p1454
g3
((lp1455
VDB13301
p1456
atRp1457
sVDCC1400
p1458
g3
((lp1459
VDB00799
p1460
atRp1461
sVDCC0018
p1462
g3
((lp1463
VDB00193
p1464
atRp1465
sVDCC0019
p1466
g3
((lp1467
VDB00198
p1468
atRp1469
sVDCC1302
p1470
g3
((lp1471
VDB00507
p1472
atRp1473
sVDCC0152
p1474
g3
((lp1475
VDB00627
p1476
atRp1477
sVDCC0377
p1478
g3
((lp1479
VDB08799
p1480
atRp1481
sVDCC0376
p1482
g3
((lp1483
VDB08604
p1484
atRp1485
sVDCC0375
p1486
g3
((lp1487
VDB06711
p1488
atRp1489
sVDCC0374
p1490
g3
((lp1491
VDB06708
p1492
atRp1493
sVDCC0373
p1494
g3
((lp1495
VDB06707
p1496
atRp1497
sVDCC0372
p1498
g3
((lp1499
VDB06697
p1500
atRp1501
sVDCC0278
p1502
g3
((lp1503
VDB01042
p1504
atRp1505
sVDCC0279
p1506
g3
((lp1507
VDB01044
p1508
atRp1509
sVDCC1613
p1510
g3
((lp1511
VDB02304
p1512
atRp1513
sVDCC0277
p1514
g3
((lp1515
VDB01041
p1516
atRp1517
sVDCC0274
p1518
g3
((lp1519
VDB01034
p1520
atRp1521
sVDCC0275
p1522
g3
((lp1523
VDB01035
p1524
atRp1525
sVDCC0272
p1526
g3
((lp1527
VDB01032
p1528
atRp1529
sVDCC0273
p1530
g3
((lp1531
VDB01033
p1532
atRp1533
sVDCC1615
p1534
g3
((lp1535
VDB02701
p1536
atRp1537
sVDCC1614
p1538
g3
((lp1539
VDB02638
p1540
atRp1541
sVDCC1589
p1542
g3
((lp1543
VDB01436
p1544
atRp1545
sVDCC0789
p1546
g3
((lp1547
VDB05719
p1548
atRp1549
sVDCC1587
p1550
g3
((lp1551
VDB01421
p1552
atRp1553
sVDCC0920
p1554
g3
((lp1555
VDB00465
p1556
atRp1557
sVDCC1584
p1558
g3
((lp1559
VDB01409
p1560
atRp1561
sVDCC1262
p1562
g3
((lp1563
VDB00377
p1564
atRp1565
sVDCC0080
p1566
g3
((lp1567
VDB00399
p1568
atRp1569
sVDCC0927
p1570
g3
((lp1571
VDB12975
p1572
atRp1573
sVDCC1479
p1574
g3
((lp1575
VDB01036
p1576
atRp1577
sVDCC1334
p1578
g3
((lp1579
VDB00614
p1580
atRp1581
sVDCC1676
p1582
g3
((lp1583
VDB06273
p1584
atRp1585
sVDCC1727
p1586
g3
((lp1587
VDB08864
p1588
atRp1589
sVDCC1726
p1590
g3
((lp1591
VDB08860
p1592
atRp1593
sVDCC1723
p1594
g3
((lp1595
VDB08826
p1596
atRp1597
sVDCC1722
p1598
g3
((lp1599
VDB08822
p1600
atRp1601
sVDCC0552
p1602
g3
((lp1603
VDB00286
p1604
atRp1605
sVDCC1194
p1606
g3
((lp1607
VDB00182
p1608
atRp1609
sVDCC1197
p1610
g3
((lp1611
VDB00186
p1612
atRp1613
sVDCC1191
p1614
g3
((lp1615
VDB00175
p1616
atRp1617
sVDCC1728
p1618
g3
((lp1619
VDB08870
p1620
atRp1621
sVDCC1297
p1622
g3
((lp1623
VDB00493
p1624
atRp1625
sVDCC1293
p1626
g3
((lp1627
VDB00476
p1628
atRp1629
sVDCC1356
p1630
g3
((lp1631
VDB00692
p1632
atRp1633
sVDCC1357
p1634
g3
((lp1635
VDB00694
p1636
atRp1637
sVDCC1354
p1638
g3
((lp1639
VDB00687
p1640
atRp1641
sVDCC1355
p1642
g3
((lp1643
VDB00691
p1644
atRp1645
sVDCC0875
p1646
g3
((lp1647
VDB09220
p1648
atRp1649
sVDCC1351
p1650
g3
((lp1651
VDB00673
p1652
atRp1653
sVDCC0059
p1654
g3
((lp1655
VDB00334
p1656
atRp1657
sVDCC0887
p1658
g3
((lp1659
VDB00169
p1660
atRp1661
sVDCC0082
p1662
g3
((lp1663
VDB00412
p1664
atRp1665
sVDCC0085
p1666
g3
((lp1667
VDB00421
p1668
atRp1669
sVDCC0050
p1670
g3
((lp1671
VDB00317
p1672
atRp1673
sVDCC1121
p1674
g3
((lp1675
VDB00020
p1676
atRp1677
sVDCC1120
p1678
g3
((lp1679
VDB00019
p1680
atRp1681
sVDCC1122
p1682
g3
((lp1683
VDB00026
p1684
atRp1685
sVDCC1124
p1686
g3
((lp1687
VDB00030
p1688
atRp1689
sVDCC1127
p1690
g3
((lp1691
VDB00034
p1692
atRp1693
sVDCC1126
p1694
g3
((lp1695
VDB00033
p1696
atRp1697
sVDCC1129
p1698
g3
((lp1699
VDB00039
p1700
atRp1701
sVDCC0366
p1702
g3
((lp1703
VDB03852
p1704
atRp1705
sVDCC0084
p1706
g3
((lp1707
VDB00417
p1708
atRp1709
sVDCC1433
p1710
g3
((lp1711
VDB00903
p1712
atRp1713
sVDCC1432
p1714
g3
((lp1715
VDB00899
p1716
atRp1717
sVDCC1431
p1718
g3
((lp1719
VDB00898
p1720
atRp1721
sVDCC1539
p1722
g3
((lp1723
VDB01217
p1724
atRp1725
sVDCC1437
p1726
g3
((lp1727
VDB00910
p1728
atRp1729
sVDCC1436
p1730
g3
((lp1731
VDB00909
p1732
atRp1733
sVDCC0450
p1734
g3
((lp1735
VDB09031
p1736
atRp1737
sVDCC0451
p1738
g3
((lp1739
VDB04297
p1740
atRp1741
sVDCC0027
p1742
g3
((lp1743
VDB00222
p1744
atRp1745
sVDCC0026
p1746
g3
((lp1747
VDB00213
p1748
atRp1749
sVDCC1530
p1750
g3
((lp1751
VDB01192
p1752
atRp1753
sVDCC0024
p1754
g3
((lp1755
VDB00207
p1756
atRp1757
sVDCC1820
p1758
g3
((lp1759
VDB00320
p1760
atRp1761
sVDCC1537
p1762
g3
((lp1763
VDB01206
p1764
atRp1765
sVDCC1822
p1766
g3
((lp1767
VDB01010
p1768
atRp1769
sVDCC0020
p1770
g3
((lp1771
VDB00199
p1772
atRp1773
sVDCC0188
p1774
g3
((lp1775
VDB00760
p1776
atRp1777
sVDCC0189
p1778
g3
((lp1779
VDB00762
p1780
atRp1781
sVDCC0087
p1782
g3
((lp1783
VDB00427
p1784
atRp1785
sVDCC1829
p1786
g3
((lp1787
VDB01170
p1788
atRp1789
sVDCC1601
p1790
g3
((lp1791
VDB01611
p1792
atRp1793
sVDCC0180
p1794
g3
((lp1795
VDB00717
p1796
atRp1797
sVDCC0181
p1798
g3
((lp1799
VDB00722
p1800
atRp1801
sVDCC0182
p1802
g3
((lp1803
VDB00725
p1804
atRp1805
sVDCC0183
p1806
g3
((lp1807
VDB00733
p1808
atRp1809
sVDCC0184
p1810
g3
((lp1811
VDB00741
p1812
atRp1813
sVDCC0185
p1814
g3
((lp1815
VDB00750
p1816
atRp1817
sVDCC0186
p1818
g3
((lp1819
VDB00755
p1820
atRp1821
sVDCC0187
p1822
g3
((lp1823
VDB00759
p1824
atRp1825
sVDCC0368
p1826
g3
((lp1827
VDB04815
p1828
atRp1829
sVDCC1221
p1830
g3
((lp1831
VDB00254
p1832
atRp1833
sVDCC0128
p1834
g3
((lp1835
VDB00544
p1836
atRp1837
sVDCC0369
p1838
g3
((lp1839
VDB05109
p1840
atRp1841
sVDCC0113
p1842
g3
((lp1843
VDB00501
p1844
atRp1845
sVDCC0112
p1846
g3
((lp1847
VDB00497
p1848
atRp1849
sVDCC0111
p1850
g3
((lp1851
VDB00495
p1852
atRp1853
sVDCC0110
p1854
g3
((lp1855
VDB00494
p1856
atRp1857
sVDCC0117
p1858
g3
((lp1859
VDB00515
p1860
atRp1861
sVDCC0116
p1862
g3
((lp1863
VDB00514
p1864
atRp1865
sVDCC0115
p1866
g3
((lp1867
VDB00512
p1868
atRp1869
sVDCC0114
p1870
g3
((lp1871
VDB00503
p1872
atRp1873
sVDCC0052
p1874
g3
((lp1875
VDB00319
p1876
atRp1877
sVDCC0053
p1878
g3
((lp1879
VDB00321
p1880
atRp1881
sVDCC0119
p1882
g3
((lp1883
VDB00519
p1884
atRp1885
sVDCC0051
p1886
g3
((lp1887
VDB00318
p1888
atRp1889
sVDCC0056
p1890
g3
((lp1891
VDB00330
p1892
atRp1893
sVDCC0057
p1894
g3
((lp1895
VDB00331
p1896
atRp1897
sVDCC0054
p1898
g3
((lp1899
VDB00325
p1900
atRp1901
sVDCC0055
p1902
g3
((lp1903
VDB00328
p1904
atRp1905
sVDCC0232
p1906
g3
((lp1907
VDB00908
p1908
atRp1909
sVDCC1227
p1910
g3
((lp1911
VDB00278
p1912
atRp1913
sVDCC0230
p1914
g3
((lp1915
VDB00905
p1916
atRp1917
sVDCC0231
p1918
g3
((lp1919
VDB00906
p1920
atRp1921
sVDCC0236
p1922
g3
((lp1923
VDB00921
p1924
atRp1925
sVDCC0237
p1926
g3
((lp1927
VDB00927
p1928
atRp1929
sVDCC0234
p1930
g3
((lp1931
VDB00915
p1932
atRp1933
sVDCC0235
p1934
g3
((lp1935
VDB00916
p1936
atRp1937
sVDCC1384
p1938
g3
((lp1939
VDB00746
p1940
atRp1941
sVDCC0238
p1942
g3
((lp1943
VDB00929
p1944
atRp1945
sVDCC0239
p1946
g3
((lp1947
VDB00938
p1948
atRp1949
sVDCC1381
p1950
g3
((lp1951
VDB00742
p1952
atRp1953
sVDCC1380
p1954
g3
((lp1955
VDB00740
p1956
atRp1957
sVDCC0089
p1958
g3
((lp1959
VDB00433
p1960
atRp1961
sVDCC0628
p1962
g3
((lp1963
VDB06769
p1964
atRp1965
sVDCC0339
p1966
g3
((lp1967
VDB01299
p1968
atRp1969
sVDCC0338
p1970
g3
((lp1971
VDB01294
p1972
atRp1973
sVDCC1548
p1974
g3
((lp1975
VDB01242
p1976
atRp1977
sVDCC0333
p1978
g3
((lp1979
VDB01261
p1980
atRp1981
sVDCC1546
p1982
g3
((lp1983
VDB01238
p1984
atRp1985
sVDCC0331
p1986
g3
((lp1987
VDB09026
p1988
aVDB01258
p1989
atRp1990
sVDCC0330
p1991
g3
((lp1992
VDB01254
p1993
atRp1994
sVDCC0337
p1995
g3
((lp1996
VDB01275
p1997
atRp1998
sVDCC1542
p1999
g3
((lp2000
VDB01225
p2001
atRp2002
sVDCC1541
p2003
g3
((lp2004
VDB01224
p2005
atRp2006
sVDCC0334
p2007
g3
((lp2008
VDB01262
p2009
atRp2010
sVDCC0287
p2011
g3
((lp2012
VDB01069
p2013
atRp2014
sVDCC0276
p2015
g3
((lp2016
VDB01039
p2017
atRp2018
sVDCC0088
p2019
g3
((lp2020
VDB00432
p2021
atRp2022
sVDCC0303
p2023
g3
((lp2024
VDB01132
p2025
atRp2026
sVDCC1258
p2027
g3
((lp2028
VDB00366
p2029
atRp2030
sVDCC1574
p2031
g3
((lp2032
VDB01356
p2033
atRp2034
sVDCC0021
p2035
g3
((lp2036
VDB00201
p2037
atRp2038
sVDCC0247
p2039
g3
((lp2040
VDB00966
p2041
atRp2042
sVDCC0246
p2043
g3
((lp2044
VDB00961
p2045
atRp2046
sVDCC0245
p2047
g3
((lp2048
VDB00958
p2049
atRp2050
sVDCC0244
p2051
g3
((lp2052
VDB00957
p2053
atRp2054
sVDCC0243
p2055
g3
((lp2056
VDB00956
p2057
atRp2058
sVDCC1641
p2059
g3
((lp2060
VDB04861
p2061
atRp2062
sVDCC1314
p2063
g3
((lp2064
VDB00553
p2065
atRp2066
sVDCC0620
p2067
g3
((lp2068
VDB04972
p2069
atRp2070
sVDCC1648
p2071
g3
((lp2072
VDB04900
p2073
atRp2074
sVDCC1545
p2075
g3
((lp2076
VDB01233
p2077
atRp2078
sVDCC1097
p2079
g3
((lp2080
VDB00783
p2081
atRp2082
sVDCC0248
p2083
g3
((lp2084
VDB00967
p2085
atRp2086
sVDCC0336
p2087
g3
((lp2088
VDB01268
p2089
atRp2090
sVDCC0335
p2091
g3
((lp2092
VDB01263
p2093
atRp2094
sVDCC1165
p2095
g3
((lp2096
VDB00105
p2097
atRp2098
sVDCC1164
p2099
g3
((lp2100
VDB00104
p2101
atRp2102
sVDCC1166
p2103
g3
((lp2104
VDB00107
p2105
atRp2106
sVDCC1567
p2107
g3
((lp2108
VDB01306
p2109
atRp2110
sVDCC1160
p2111
g3
((lp2112
VDB00097
p2113
atRp2114
sVDCC1162
p2115
g3
((lp2116
VDB00099
p2117
atRp2118
sVDCC1488
p2119
g3
((lp2120
VDB01068
p2121
atRp2122
sVDCC1367
p2123
g3
((lp2124
VDB00715
p2125
atRp2126
sVDCC1365
p2127
g3
((lp2128
VDB00713
p2129
atRp2130
sVDCC0802
p2131
g3
((lp2132
VDB06817
p2133
atRp2134
sVDCC1363
p2135
g3
((lp2136
VDB00710
p2137
atRp2138
sVDCC1361
p2139
g3
((lp2140
VDB00706
p2141
atRp2142
sVDCC1368
p2143
g3
((lp2144
VDB00718
p2145
atRp2146
sVDCC0148
p2147
g3
((lp2148
VDB00619
p2149
atRp2150
sVDCC0149
p2151
g3
((lp2152
VDB00620
p2153
atRp2154
sVDCC0144
p2155
g3
((lp2156
VDB00601
p2157
atRp2158
sVDCC0145
p2159
g3
((lp2160
VDB00612
p2161
atRp2162
sVDCC0146
p2163
g3
((lp2164
VDB00613
p2165
atRp2166
sVDCC0147
p2167
g3
((lp2168
VDB00615
p2169
atRp2170
sVDCC0140
p2171
g3
((lp2172
VDB00591
p2173
atRp2174
sVDCC0141
p2175
g3
((lp2176
VDB00593
p2177
atRp2178
sVDCC0142
p2179
g3
((lp2180
VDB00594
p2181
atRp2182
sVDCC0143
p2183
g3
((lp2184
VDB00595
p2185
atRp2186
sVDCC0157
p2187
g3
((lp2188
VDB00641
p2189
atRp2190
sVDCC0156
p2191
g3
((lp2192
VDB00635
p2193
atRp2194
sVDCC1525
p2195
g3
((lp2196
VDB01177
p2197
atRp2198
sVDCC1471
p2199
g3
((lp2200
VDB01008
p2201
atRp2202
sVDCC1503
p2203
g3
((lp2204
VDB01116
p2205
atRp2206
sVDCC1502
p2207
g3
((lp2208
VDB01115
p2209
atRp2210
sVDCC1501
p2211
g3
((lp2212
VDB01113
p2213
atRp2214
sVDCC1500
p2215
g3
((lp2216
VDB01112
p2217
atRp2218
sVDCC1507
p2219
g3
((lp2220
VDB01126
p2221
atRp2222
sVDCC1505
p2223
g3
((lp2224
VDB01120
p2225
atRp2226
sVDCC0665
p2227
g3
((lp2228
VDB06401
p2229
atRp2230
sVDCC1509
p2231
g3
((lp2232
VDB01136
p2233
atRp2234
sVDCC1508
p2235
g3
((lp2236
VDB01128
p2237
atRp2238
sVDCC0155
p2239
g3
((lp2240
VDB00634
p2241
atRp2242
sVDCC1267
p2243
g3
((lp2244
VDB00396
p2245
atRp2246
sVDCC1468
p2247
g3
((lp2248
VDB00993
p2249
atRp2250
sVDCC0420
p2251
g3
((lp2252
VDB04858
p2253
atRp2254
sVDCC0468
p2255
g3
((lp2256
VDB09096
p2257
atRp2258
sVDCC0467
p2259
g3
((lp2260
VDB09085
p2261
atRp2262
sVDCC1465
p2263
g3
((lp2264
VDB00989
p2265
atRp2266
sVDCC1466
p2267
g3
((lp2268
VDB00990
p2269
atRp2270
sVDCC1830
p2271
g3
((lp2272
VDB00774
p2273
atRp2274
sVDCC0463
p2275
g3
((lp2276
VDB09488
p2277
atRp2278
sVDCC1461
p2279
g3
((lp2280
VDB00982
p2281
atRp2282
sVDCC0460
p2283
g3
((lp2284
VDB12518
p2285
atRp2286
sVDCC0818
p2287
g3
((lp2288
VDB01356
p2289
atRp2290
sVDCC0363
p2291
g3
((lp2292
VDB03080
p2293
atRp2294
sVDCC0063
p2295
g3
((lp2296
VDB00341
p2297
atRp2298
sVDCC0062
p2299
g3
((lp2300
VDB00339
p2301
atRp2302
sVDCC0388
p2303
g3
((lp2304
VDB09526
p2305
atRp2306
sVDCC0060
p2307
g3
((lp2308
VDB00335
p2309
atRp2310
sVDCC0067
p2311
g3
((lp2312
VDB00361
p2313
atRp2314
sVDCC0066
p2315
g3
((lp2316
VDB00358
p2317
atRp2318
sVDCC0065
p2319
g3
((lp2320
VDB00355
p2321
atRp2322
sVDCC0064
p2323
g3
((lp2324
VDB00343
p2325
atRp2326
sVDCC0069
p2327
g3
((lp2328
VDB00363
p2329
atRp2330
sVDCC0068
p2331
g3
((lp2332
VDB00362
p2333
atRp2334
sVDCC0385
p2335
g3
((lp2336
VDB12770
p2337
atRp2338
sVDCC0008
p2339
g3
((lp2340
VDB00072
p2341
atRp2342
sVDCC0364
p2343
g3
((lp2344
VDB03496
p2345
atRp2346
sVDCC0365
p2347
g3
((lp2348
VDB03823
p2349
atRp2350
sVDCC0209
p2351
g3
((lp2352
VDB00829
p2353
atRp2354
sVDCC0367
p2355
g3
((lp2356
VDB03922
p2357
atRp2358
sVDCC0360
p2359
g3
((lp2360
VDB02380
p2361
atRp2362
sVDCC0361
p2363
g3
((lp2364
VDB02546
p2365
atRp2366
sVDCC0362
p2367
g3
((lp2368
VDB02703
p2369
atRp2370
sVDCC0192
p2371
g3
((lp2372
VDB00776
p2373
atRp2374
sVDCC0203
p2375
g3
((lp2376
VDB00811
p2377
atRp2378
sVDCC0202
p2379
g3
((lp2380
VDB00809
p2381
atRp2382
sVDCC0201
p2383
g3
((lp2384
VDB00808
p2385
atRp2386
sVDCC0200
p2387
g3
((lp2388
VDB00803
p2389
atRp2390
sVDCC0207
p2391
g3
((lp2392
VDB00823
p2393
atRp2394
sVDCC0206
p2395
g3
((lp2396
VDB00818
p2397
atRp2398
sVDCC0205
p2399
g3
((lp2400
VDB00815
p2401
atRp2402
sVDCC1210
p2403
g3
((lp2404
VDB00230
p2405
atRp2406
sVDCC1599
p2407
g3
((lp2408
VDB01609
p2409
atRp2410
sVDCC0190
p2411
g3
((lp2412
VDB00766
p2413
atRp2414
sVDCC1590
p2415
g3
((lp2416
VDB01452
p2417
atRp2418
sVDCC1593
p2419
g3
((lp2420
VDB01576
p2421
atRp2422
sVDCC1594
p2423
g3
((lp2424
VDB01586
p2425
atRp2426
sVDCC1595
p2427
g3
((lp2428
VDB01591
p2429
atRp2430
sVDCC1693
p2431
g3
((lp2432
VDB06681
p2433
atRp2434
sVDCC1692
p2435
g3
((lp2436
VDB06674
p2437
atRp2438
sVDCC1690
p2439
g3
((lp2440
VDB06655
p2441
atRp2442
sVDCC1414
p2443
g3
((lp2444
VDB00843
p2445
atRp2446
sVDCC1699
p2447
g3
((lp2448
VDB06713
p2449
atRp2450
sVDCC0013
p2451
g3
((lp2452
VDB00115
p2453
atRp2454
sVDCC0151
p2455
g3
((lp2456
VDB00626
p2457
atRp2458
sVDCC0010
p2459
g3
((lp2460
VDB00080
p2461
atRp2462
sVDCC1285
p2463
g3
((lp2464
VDB00457
p2465
atRp2466
sVDCC1411
p2467
g3
((lp2468
VDB00834
p2469
atRp2470
sVDCC1329
p2471
g3
((lp2472
VDB00599
p2473
atRp2474
sVDCC1736
p2475
g3
((lp2476
VDB08885
p2477
atRp2478
sVDCC1737
p2479
g3
((lp2480
VDB08889
p2481
atRp2482
sVDCC1046
p2483
g3
((lp2484
VDB09075
p2485
atRp2486
sVDCC1733
p2487
g3
((lp2488
VDB08880
p2489
atRp2490
sVDCC0204
p2491
g3
((lp2492
VDB00813
p2493
atRp2494
sVDCC1412
p2495
g3
((lp2496
VDB00841
p2497
atRp2498
sVDCC0849
p2499
g3
((lp2500
VDB00055
p2501
atRp2502
sVDCC1284
p2503
g3
((lp2504
VDB00454
p2505
atRp2506
sVDCC1644
p2507
g3
((lp2508
VDB04878
p2509
atRp2510
sVDCC0150
p2511
g3
((lp2512
VDB00625
p2513
atRp2514
sVDCC1328
p2515
g3
((lp2516
VDB00598
p2517
atRp2518
sVDCC1280
p2519
g3
((lp2520
VDB00442
p2521
atRp2522
sVDCC1282
p2523
g3
((lp2524
VDB00450
p2525
atRp2526
sVDCC1098
p2527
g3
((lp2528
VDB05541
p2529
atRp2530
sVDCC1224
p2531
g3
((lp2532
VDB00262
p2533
atRp2534
sVDCC1321
p2535
g3
((lp2536
VDB00570
p2537
atRp2538
sVDCC1288
p2539
g3
((lp2540
VDB00460
p2541
atRp2542
sVDCC0429
p2543
g3
((lp2544
VDB08916
p2545
atRp2546
sVDCC0242
p2547
g3
((lp2548
VDB00951
p2549
atRp2550
sVDCC0241
p2551
g3
((lp2552
VDB00950
p2553
atRp2554
sVDCC0932
p2555
g3
((lp2556
VDB09074
p2557
atRp2558
sVDCC0168
p2559
g3
((lp2560
VDB00675
p2561
atRp2562
sVDCC1035
p2563
g3
((lp2564
VDB11656
p2565
atRp2566
sVDCC1138
p2567
g3
((lp2568
VDB00056
p2569
atRp2570
sVDCC1136
p2571
g3
((lp2572
VDB00052
p2573
atRp2574
sVDCC1137
p2575
g3
((lp2576
VDB00054
p2577
atRp2578
sVDCC1135
p2579
g3
((lp2580
VDB00050
p2581
atRp2582
sVDCC1132
p2583
g3
((lp2584
VDB00046
p2585
atRp2586
sVDCC1133
p2587
g3
((lp2588
VDB00047
p2589
atRp2590
sVDCC1131
p2591
g3
((lp2592
VDB00043
p2593
atRp2594
sVDCC0165
p2595
g3
((lp2596
VDB00661
p2597
atRp2598
sVDCC0520
p2599
g3
((lp2600
VDB06756
p2601
aVDB01494
p2602
atRp2603
sVDCC0162
p2604
g3
((lp2605
VDB00650
p2606
atRp2607
sVDCC0173
p2608
g3
((lp2609
VDB00688
p2610
atRp2611
sVDCC0163
p2612
g3
((lp2613
VDB00652
p2614
atRp2615
sVDCC1819
p2616
g3
((lp2617
VDB01501
p2618
atRp2619
sVDCC1422
p2620
g3
((lp2621
VDB00871
p2622
atRp2623
sVDCC1423
p2624
g3
((lp2625
VDB00872
p2626
atRp2627
sVDCC0038
p2628
g3
((lp2629
VDB00275
p2630
atRp2631
sVDCC0039
p2632
g3
((lp2633
VDB00277
p2634
atRp2635
sVDCC1427
p2636
g3
((lp2637
VDB00889
p2638
atRp2639
sVDCC1811
p2640
g3
((lp2641
VDB00195
p2642
atRp2643
sVDCC1810
p2644
g3
((lp2645
VDB00719
p2646
atRp2647
sVDCC0036
p2648
g3
((lp2649
VDB00264
p2650
atRp2651
sVDCC0037
p2652
g3
((lp2653
VDB00273
p2654
atRp2655
sVDCC1815
p2656
g3
((lp2657
VDB01764
p2658
atRp2659
sVDCC1814
p2660
g3
((lp2661
VDB00880
p2662
atRp2663
sVDCC1817
p2664
g3
((lp2665
VDB00003
p2666
atRp2667
sVDCC1816
p2668
g3
((lp2669
VDB01089
p2670
atRp2671
sVDCC1842
p2672
g3
((lp2673
VDB01626
p2674
atRp2675
sVDCC0332
p2676
g3
((lp2677
VDB01259
p2678
atRp2679
sVDCC1846
p2680
g3
((lp2681
VDB01324
p2682
atRp2683
sVDCC0100
p2684
g3
((lp2685
VDB00472
p2686
atRp2687
sVDCC0101
p2688
g3
((lp2689
VDB00475
p2690
atRp2691
sVDCC1854
p2692
g3
((lp2693
VDB01581
p2694
atRp2695
sVDCC0103
p2696
g3
((lp2697
VDB00480
p2698
atRp2699
sVDCC0104
p2700
g3
((lp2701
VDB00481
p2702
atRp2703
sVDCC0105
p2704
g3
((lp2705
VDB00482
p2706
atRp2707
sVDCC1386
p2708
g3
((lp2709
VDB00749
p2710
atRp2711
sVDCC0107
p2712
g3
((lp2713
VDB00487
p2714
atRp2715
sVDCC0108
p2716
g3
((lp2717
VDB00488
p2718
atRp2719
sVDCC0109
p2720
g3
((lp2721
VDB00492
p2722
atRp2723
sVDCC0169
p2724
g3
((lp2725
VDB00678
p2726
atRp2727
sVDCC1434
p2728
g3
((lp2729
VDB00904
p2730
atRp2731
sVDCC0225
p2732
g3
((lp2733
VDB00879
p2734
atRp2735
sVDCC1399
p2736
g3
((lp2737
VDB00795
p2738
atRp2739
sVDCC1256
p2740
g3
((lp2741
VDB00359
p2742
atRp2743
sVDCC1393
p2744
g3
((lp2745
VDB00764
p2746
atRp2747
sVDCC1259
p2748
g3
((lp2749
VDB00368
p2750
atRp2751
sVDCC0370
p2752
g3
((lp2753
VDB05259
p2754
atRp2755
sVDCC1396
p2756
g3
((lp2757
VDB00775
p2758
atRp2759
sVDCC1395
p2760
g3
((lp2761
VDB00770
p2762
atRp2763
sVDCC1495
p2764
g3
((lp2765
VDB01097
p2766
atRp2767
sVDCC1494
p2768
g3
((lp2769
VDB01095
p2770
atRp2771
sVDCC0083
p2772
g3
((lp2773
VDB00415
p2774
atRp2775
sVDCC0226
p2776
g3
((lp2777
VDB00881
p2778
atRp2779
sVDCC1491
p2780
g3
((lp2781
VDB01085
p2782
atRp2783
sVDCC1559
p2784
g3
((lp2785
VDB01274
p2786
atRp2787
sVDCC1493
p2788
g3
((lp2789
VDB01087
p2790
atRp2791
sVDCC0086
p2792
g3
((lp2793
VDB00423
p2794
atRp2795
sVDCC0320
p2796
g3
((lp2797
VDB01221
p2798
atRp2799
sVDCC1555
p2800
g3
((lp2801
VDB01269
p2802
atRp2803
sVDCC0322
p2804
g3
((lp2805
VDB01223
p2806
atRp2807
sVDCC0323
p2808
g3
((lp2809
VDB01229
p2810
atRp2811
sVDCC0324
p2812
g3
((lp2813
VDB01232
p2814
atRp2815
sVDCC1551
p2816
g3
((lp2817
VDB01255
p2818
atRp2819
sVDCC0326
p2820
g3
((lp2821
VDB01235
p2822
atRp2823
sVDCC0327
p2824
g3
((lp2825
VDB01236
p2826
atRp2827
sVDCC0240
p2828
g3
((lp2829
VDB00945
p2830
atRp2831
sVDCC0223
p2832
g3
((lp2833
VDB00877
p2834
atRp2835
sVDCC0270
p2836
g3
((lp2837
VDB01029
p2838
atRp2839
sVDCC0378
p2840
g3
((lp2841
VDB08868
p2842
atRp2843
sVDCC0138
p2844
g3
((lp2845
VDB00586
p2846
atRp2847
sVDCC0938
p2848
g3
((lp2849
VDB11348
p2850
atRp2851
sVDCC1556
p2852
g3
((lp2853
VDB01270
p2854
atRp2855
sVDCC1534
p2856
g3
((lp2857
VDB01201
p2858
atRp2859
sVDCC0254
p2860
g3
((lp2861
VDB00979
p2862
atRp2863
sVDCC0255
p2864
g3
((lp2865
VDB00983
p2866
atRp2867
sVDCC0256
p2868
g3
((lp2869
VDB00987
p2870
atRp2871
sVDCC0257
p2872
g3
((lp2873
VDB00452
p2874
aVDB00994
p2875
atRp2876
sVDCC0250
p2877
g3
((lp2878
VDB00973
p2879
atRp2880
sVDCC0251
p2881
g3
((lp2882
VDB00975
p2883
atRp2884
sVDCC0252
p2885
g3
((lp2886
VDB00977
p2887
atRp2888
sVDCC0253
p2889
g3
((lp2890
VDB00978
p2891
atRp2892
sVDCC1679
p2893
g3
((lp2894
VDB06288
p2895
atRp2896
sVDCC1678
p2897
g3
((lp2898
VDB06287
p2899
atRp2900
sVDCC0258
p2901
g3
((lp2902
VDB00996
p2903
atRp2904
sVDCC0259
p2905
g3
((lp2906
VDB00997
p2907
atRp2908
sVDCC0410
p2909
g3
((lp2910
VDB04960
p2911
atRp2912
sVDCC0886
p2913
g3
((lp2914
VDB02325
p2915
atRp2916
sVDCC0132
p2917
g3
((lp2918
VDB00564
p2919
atRp2920
sVDCC1240
p2921
g3
((lp2922
VDB00303
p2923
atRp2924
sVDCC0314
p2925
g3
((lp2926
VDB01194
p2927
atRp2928
sVDCC0349
p2929
g3
((lp2930
VDB01597
p2931
atRp2932
sVDCC0317
p2933
g3
((lp2934
VDB01203
p2935
atRp2936
sVDCC1172
p2937
g3
((lp2938
VDB00125
p2939
atRp2940
sVDCC0346
p2941
g3
((lp2942
VDB01551
p2943
atRp2944
sVDCC0316
p2945
g3
((lp2946
VDB01202
p2947
atRp2948
sVDCC0311
p2949
g3
((lp2950
VDB01181
p2951
atRp2952
sVDCC0416
p2953
g3
((lp2954
VDB03209
p2955
atRp2956
sVDCC0310
p2957
g3
((lp2958
VDB01173
p2959
atRp2960
sVDCC1374
p2961
g3
((lp2962
VDB00731
p2963
atRp2964
sVDCC1376
p2965
g3
((lp2966
VDB00734
p2967
atRp2968
sVDCC1377
p2969
g3
((lp2970
VDB00736
p2971
atRp2972
sVDCC1370
p2973
g3
((lp2974
VDB00721
p2975
atRp2976
sVDCC0313
p2977
g3
((lp2978
VDB01190
p2979
atRp2980
sVDCC1372
p2981
g3
((lp2982
VDB00727
p2983
atRp2984
sVDCC0342
p2985
g3
((lp2986
VDB01394
p2987
atRp2988
sVDCC0312
p2989
g3
((lp2990
VDB01183
p2991
atRp2992
sVDCC1234
p2993
g3
((lp2994
VDB00290
p2995
atRp2996
sVDCC0371
p2997
g3
((lp2998
VDB06203
p2999
atRp3000
sVDCC0341
p3001
g3
((lp3002
VDB01390
p3003
atRp3004
sVDCC0179
p3005
g3
((lp3006
VDB00709
p3007
atRp3008
sVDCC0178
p3009
g3
((lp3010
VDB00705
p3011
atRp3012
sVDCC1552
p3013
g3
((lp3014
VDB01264
p3015
atRp3016
sVDCC0058
p3017
g3
((lp3018
VDB00332
p3019
atRp3020
sVDCC0171
p3021
g3
((lp3022
VDB00682
p3023
atRp3024
sVDCC0170
p3025
g3
((lp3026
VDB00681
p3027
atRp3028
sVDCC1649
p3029
g3
((lp3030
VDB04932
p3031
atRp3032
sVDCC0172
p3033
g3
((lp3034
VDB00684
p3035
atRp3036
sVDCC0175
p3037
g3
((lp3038
VDB00696
p3039
atRp3040
sVDCC0174
p3041
g3
((lp3042
VDB00695
p3043
atRp3044
sVDCC0177
p3045
g3
((lp3046
VDB00704
p3047
atRp3048
sVDCC0176
p3049
g3
((lp3050
VDB00698
p3051
atRp3052
sVDCC1569
p3053
g3
((lp3054
VDB01309
p3055
atRp3056
sVDCC0233
p3057
g3
((lp3058
VDB00912
p3059
atRp3060
sVDCC1108
p3061
g3
((lp3062
VDB00003
p3063
atRp3064
sVDCC0249
p3065
g3
((lp3066
VDB00968
p3067
atRp3068
sVDCC0415
p3069
g3
((lp3070
VDB12410
p3071
atRp3072
sVDCC1161
p3073
g3
((lp3074
VDB00098
p3075
atRp3076
s.