(dp1
VDCC0770
p2
c__builtin__
set
p3
((lp4
VA04
p5
atRp6
sVDCC0777
p7
g3
((lp8
VL01
p9
atRp10
sVDCC1515
p11
g3
((lp12
VN06
p13
atRp14
sVDCC0779
p15
g3
((lp16
VA10
p17
atRp18
sVDCC0099
p19
g3
((lp20
VR03
p21
atRp22
sVDCC1459
p23
g3
((lp24
VR01
p25
aVS01
p26
aVR06
p27
atRp28
sVDCC1561
p29
g3
((lp30
VH01
p31
atRp32
sVDCC1560
p33
g3
((lp34
VA10
p35
atRp36
sVDCC1450
p37
g3
((lp38
VL02
p39
atRp40
sVDCC1453
p41
g3
((lp42
VJ01
p43
aVS01
p44
atRp45
sVDCC0470
p46
g3
((lp47
VN06
p48
atRp49
sVDCC1454
p50
g3
((lp51
VD07
p52
aVH02
p53
aVD10
p54
aVS01
p55
atRp56
sVDCC1489
p57
g3
((lp58
VJ05
p59
atRp60
sVDCC1498
p61
g3
((lp62
VN06
p63
atRp64
sVDCC1564
p65
g3
((lp66
VL04
p67
atRp68
sVDCC0070
p69
g3
((lp70
VG03
p71
atRp72
sVDCC0071
p73
g3
((lp74
VN05
p75
atRp76
sVDCC0072
p77
g3
((lp78
VS01
p79
aVC07
p80
atRp81
sVDCC0073
p82
g3
((lp83
VC08
p84
aVC09
p85
aVC10
p86
atRp87
sVDCC0074
p88
g3
((lp89
VC03
p90
atRp91
sVDCC0075
p92
g3
((lp93
VR01
p94
aVC01
p95
aVC05
p96
aVS01
p97
atRp98
sVDCC0076
p99
g3
((lp100
VC08
p101
atRp102
sVDCC0077
p103
g3
((lp104
VD07
p105
aVR01
p106
aVR03
p107
aVA07
p108
atRp109
sVDCC1855
p110
g3
((lp111
VJ01
p112
atRp113
sVDCC0079
p114
g3
((lp115
VL01
p116
atRp117
sVDCC1857
p118
g3
((lp119
VJ01
p120
atRp121
sVDCC1856
p122
g3
((lp123
VC03
p124
atRp125
sVDCC1850
p126
g3
((lp127
VC03
p128
atRp129
sVDCC1852
p130
g3
((lp131
VC02
p132
atRp133
sVDCC1637
p134
g3
((lp135
VJ05
p136
atRp137
sVDCC1639
p138
g3
((lp139
VL01
p140
atRp141
sVDCC0351
p142
g3
((lp143
VJ05
p144
atRp145
sVDCC0350
p146
g3
((lp147
VJ01
p148
atRp149
sVDCC0353
p150
g3
((lp151
VJ01
p152
atRp153
sVDCC0352
p154
g3
((lp155
VJ01
p156
atRp157
sVDCC1208
p158
g3
((lp159
VJ01
p160
aVS01
p161
atRp162
sVDCC1209
p163
g3
((lp164
VJ05
p165
atRp166
sVDCC1204
p167
g3
((lp168
VG04
p169
aVA03
p170
atRp171
sVDCC1205
p172
g3
((lp173
VC01
p174
atRp175
sVDCC0212
p176
g3
((lp177
VJ04
p178
atRp179
sVDCC1207
p180
g3
((lp181
VN06
p182
atRp183
sVDCC0603
p184
g3
((lp185
VG03
p186
atRp187
sVDCC0215
p188
g3
((lp189
VL01
p190
atRp191
sVDCC0216
p192
g3
((lp193
VD07
p194
aVR01
p195
aVS03
p196
aVD10
p197
aVV03
p198
aVH02
p199
aVS02
p200
aVA01
p201
aVA07
p202
aVS01
p203
aVC05
p204
atRp205
sVDCC1203
p206
g3
((lp207
VB01
p208
atRp209
sVDCC0452
p210
g3
((lp211
VV04
p212
aVV03
p213
atRp214
sVDCC0283
p215
g3
((lp216
VC08
p217
aVC09
p218
atRp219
sVDCC1681
p220
g3
((lp221
VL01
p222
atRp223
sVDCC1682
p224
g3
((lp225
VL04
p226
atRp227
sVDCC0280
p228
g3
((lp229
VJ04
p230
atRp231
sVDCC1684
p232
g3
((lp233
VJ01
p234
atRp235
sVDCC0286
p236
g3
((lp237
VA10
p238
atRp239
sVDCC1686
p240
g3
((lp241
VB01
p242
atRp243
sVDCC1687
p244
g3
((lp245
VL01
p246
atRp247
sVDCC1688
p248
g3
((lp249
VL01
p250
atRp251
sVDCC1689
p252
g3
((lp253
VM05
p254
atRp255
sVDCC0289
p256
g3
((lp257
VD04
p258
aVR06
p259
atRp260
sVDCC0288
p261
g3
((lp262
VL01
p263
atRp264
sVDCC1199
p265
g3
((lp266
VA08
p267
atRp268
sVDCC0421
p269
g3
((lp270
VA10
p271
atRp272
sVDCC0850
p273
g3
((lp274
VA06
p275
atRp276
sVDCC1702
p277
g3
((lp278
VA04
p279
atRp280
sVDCC1705
p281
g3
((lp282
VA02
p283
aVA12
p284
atRp285
sVDCC1704
p286
g3
((lp287
VA02
p288
atRp289
sVDCC1707
p290
g3
((lp291
VL01
p292
atRp293
sVDCC1424
p294
g3
((lp295
VG03
p296
atRp297
sVDCC1425
p298
g3
((lp299
VM05
p300
atRp301
sVDCC1338
p302
g3
((lp303
VC01
p304
atRp305
sVDCC1339
p306
g3
((lp307
VP02
p308
atRp309
sVDCC1666
p310
g3
((lp311
VB01
p312
atRp313
sVDCC1330
p314
g3
((lp315
VP02
p316
aVD11
p317
atRp318
sVDCC1455
p319
g3
((lp320
VC07
p321
atRp322
sVDCC1332
p323
g3
((lp324
VJ01
p325
atRp326
sVDCC1333
p327
g3
((lp328
VP01
p329
atRp330
sVDCC0917
p331
g3
((lp332
VL04
p333
atRp334
sVDCC1335
p335
g3
((lp336
VG03
p337
atRp338
sVDCC1336
p339
g3
((lp340
VM05
p341
atRp342
sVDCC0034
p343
g3
((lp344
VJ04
p345
atRp346
sVDCC0035
p347
g3
((lp348
VJ01
p349
aVS01
p350
atRp351
sVDCC0036
p352
g3
((lp353
VC07
p354
atRp355
sVDCC1812
p356
g3
((lp357
VR06
p358
atRp359
sVDCC0271
p360
g3
((lp361
VL01
p362
atRp363
sVDCC0885
p364
g3
((lp365
VA10
p366
atRp367
sVDCC0032
p368
g3
((lp369
VN03
p370
atRp371
sVDCC0033
p372
g3
((lp373
VA01
p374
aVG01
p375
aVD01
p376
atRp377
sVDCC1149
p378
g3
((lp379
VL04
p380
atRp381
sVDCC1021
p382
g3
((lp383
VA04
p384
atRp385
sVDCC1143
p386
g3
((lp387
VL04
p388
atRp389
sVDCC1142
p390
g3
((lp391
VB01
p392
atRp393
sVDCC1140
p394
g3
((lp395
VL04
p396
aVL03
p397
atRp398
sVDCC1145
p399
g3
((lp400
VH01
p401
atRp402
sVDCC1144
p403
g3
((lp404
VG03
p405
atRp406
sVDCC0081
p407
g3
((lp408
VR06
p409
atRp410
sVDCC0009
p411
g3
((lp412
VL01
p413
atRp414
sVDCC0008
p415
g3
((lp416
VL01
p417
atRp418
sVDCC0001
p419
g3
((lp420
VL01
p421
atRp422
sVDCC1414
p423
g3
((lp424
VN06
p425
atRp426
sVDCC0003
p427
g3
((lp428
VL03
p429
atRp430
sVDCC0002
p431
g3
((lp432
VL03
p433
atRp434
sVDCC0005
p435
g3
((lp436
VR02
p437
atRp438
sVDCC0004
p439
g3
((lp440
VL01
p441
atRp442
sVDCC0007
p443
g3
((lp444
VL04
p445
atRp446
sVDCC0006
p447
g3
((lp448
VL03
p449
atRp450
sVDCC1740
p451
g3
((lp452
VJ04
p453
atRp454
sVDCC0139
p455
g3
((lp456
VD07
p457
aVR01
p458
aVR03
p459
atRp460
sVDCC1710
p461
g3
((lp462
VL03
p463
atRp464
sVDCC0413
p465
g3
((lp466
VJ01
p467
atRp468
sVDCC0135
p469
g3
((lp470
VA03
p471
aVN04
p472
aVS01
p473
atRp474
sVDCC0134
p475
g3
((lp476
VC07
p477
atRp478
sVDCC0137
p479
g3
((lp480
VC09
p481
atRp482
sVDCC0136
p483
g3
((lp484
VS01
p485
aVC02
p486
aVN02
p487
atRp488
sVDCC0131
p489
g3
((lp490
VL04
p491
aVL01
p492
atRp493
sVDCC0130
p494
g3
((lp495
VJ01
p496
atRp497
sVDCC0133
p498
g3
((lp499
VJ01
p500
atRp501
sVDCC0132
p502
g3
((lp503
VN03
p504
atRp505
sVDCC0315
p506
g3
((lp507
VC09
p508
atRp509
sVDCC1241
p510
g3
((lp511
VG03
p512
atRp513
sVDCC1242
p514
g3
((lp515
VL01
p516
atRp517
sVDCC0640
p518
g3
((lp519
VV10
p520
atRp521
sVDCC1244
p522
g3
((lp523
VN05
p524
atRp525
sVDCC0310
p526
g3
((lp527
VN04
p528
aVM03
p529
atRp530
sVDCC1246
p531
g3
((lp532
VD07
p533
aVS01
p534
aVD10
p535
aVC05
p536
atRp537
sVDCC1247
p538
g3
((lp539
VN02
p540
atRp541
sVDCC1249
p542
g3
((lp543
VD11
p544
atRp545
sVDCC0319
p546
g3
((lp547
VJ01
p548
atRp549
sVDCC0318
p550
g3
((lp551
VA02
p552
aVJ01
p553
atRp554
sVDCC0417
p555
g3
((lp556
VN01
p557
atRp558
sVDCC1482
p559
g3
((lp560
VA06
p561
atRp562
sVDCC0078
p563
g3
((lp564
VM03
p565
atRp566
sVDCC1481
p567
g3
((lp568
VN06
p569
atRp570
sVDCC1486
p571
g3
((lp572
VC01
p573
aVR03
p574
aVD08
p575
atRp576
sVDCC0118
p577
g3
((lp578
VP02
p579
atRp580
sVDCC0098
p581
g3
((lp582
VC09
p583
aVR06
p584
atRp585
sVDCC1854
p586
g3
((lp587
VJ01
p588
aVD06
p589
atRp590
sVDCC0096
p591
g3
((lp592
VL01
p593
atRp594
sVDCC0097
p595
g3
((lp596
VA02
p597
atRp598
sVDCC0094
p599
g3
((lp600
VL01
p601
atRp602
sVDCC0095
p603
g3
((lp604
VD07
p605
aVR01
p606
aVR03
p607
aVH02
p608
aVS02
p609
aVS03
p610
aVA07
p611
aVS01
p612
aVC05
p613
atRp614
sVDCC0092
p615
g3
((lp616
VC10
p617
atRp618
sVDCC0093
p619
g3
((lp620
VJ01
p621
atRp622
sVDCC0090
p623
g3
((lp624
VC03
p625
atRp626
sVDCC0091
p627
g3
((lp628
VJ01
p629
atRp630
sVDCC1745
p631
g3
((lp632
VL04
p633
atRp634
sVDCC1744
p635
g3
((lp636
VN07
p637
atRp638
sVDCC0893
p639
g3
((lp640
VJ01
p641
atRp642
sVDCC1743
p643
g3
((lp644
VA10
p645
atRp646
sVDCC1742
p647
g3
((lp648
VR01
p649
aVR03
p650
atRp651
sVDCC1844
p652
g3
((lp653
VG04
p654
atRp655
sVDCC1749
p656
g3
((lp657
VL03
p658
aVA10
p659
atRp660
sVDCC0261
p661
g3
((lp662
VR03
p663
atRp664
sVDCC0260
p665
g3
((lp666
VC09
p667
aVC03
p668
atRp669
sVDCC0263
p670
g3
((lp671
VL01
p672
atRp673
sVDCC0262
p674
g3
((lp675
VS01
p676
aVJ05
p677
atRp678
sVDCC0265
p679
g3
((lp680
VM02
p681
aVM01
p682
atRp683
sVDCC0264
p684
g3
((lp685
VL02
p686
atRp687
sVDCC0267
p688
g3
((lp689
VA10
p690
atRp691
sVDCC0266
p692
g3
((lp693
VJ01
p694
atRp695
sVDCC0269
p696
g3
((lp697
VC08
p698
aVC09
p699
atRp700
sVDCC0268
p701
g3
((lp702
VJ01
p703
aVA01
p704
atRp705
sVDCC1664
p706
g3
((lp707
VL04
p708
atRp709
sVDCC1662
p710
g3
((lp711
VS01
p712
aVR05
p713
aVV03
p714
atRp715
sVDCC1661
p716
g3
((lp717
VJ01
p718
atRp719
sVDCC0793
p720
g3
((lp721
VG01
p722
atRp723
sVDCC0794
p724
g3
((lp725
VB05
p726
aVA06
p727
aVV04
p728
atRp729
sVDCC0106
p730
g3
((lp731
VS01
p732
aVD11
p733
atRp734
sVDCC1188
p735
g3
((lp736
VA11
p737
atRp738
sVDCC1183
p739
g3
((lp740
VB03
p741
atRp742
sVDCC1182
p743
g3
((lp744
VA11
p745
atRp746
sVDCC1181
p747
g3
((lp748
VC01
p749
atRp750
sVDCC0218
p751
g3
((lp752
VL04
p753
aVD11
p754
atRp755
sVDCC1345
p756
g3
((lp757
VN07
p758
atRp759
sVDCC1347
p760
g3
((lp761
VJ01
p762
atRp763
sVDCC0219
p764
g3
((lp765
VS01
p766
atRp767
sVDCC0949
p768
g3
((lp769
VL01
p770
atRp771
sVDCC1845
p772
g3
((lp773
VR01
p774
atRp775
sVDCC0354
p776
g3
((lp777
VD04
p778
aVR06
p779
atRp780
sVDCC0210
p781
g3
((lp782
VR06
p783
atRp784
sVDCC0635
p785
g3
((lp786
VA16
p787
atRp788
sVDCC0211
p789
g3
((lp790
VA07
p791
atRp792
sVDCC1116
p793
g3
((lp794
VL02
p795
atRp796
sVDCC1117
p797
g3
((lp798
VB01
p799
atRp800
sVDCC1110
p801
g3
((lp802
VL04
p803
atRp804
sVDCC1112
p805
g3
((lp806
VL02
p807
atRp808
sVDCC1200
p809
g3
((lp810
VJ01
p811
aVJ02
p812
aVD01
p813
atRp814
sVDCC1118
p815
g3
((lp816
VB03
p817
atRp818
sVDCC0881
p819
g3
((lp820
VG03
p821
atRp822
sVDCC0217
p823
g3
((lp824
VA02
p825
atRp826
sVDCC1390
p827
g3
((lp828
VB01
p829
atRp830
sVDCC1446
p831
g3
((lp832
VR01
p833
aVS01
p834
atRp835
sVDCC1444
p836
g3
((lp837
VC10
p838
atRp839
sVDCC1445
p840
g3
((lp841
VJ05
p842
atRp843
sVDCC0764
p844
g3
((lp845
VJ05
p846
atRp847
sVDCC1443
p848
g3
((lp849
VL01
p850
atRp851
sVDCC1838
p852
g3
((lp853
VC03
p854
atRp855
sVDCC0768
p856
g3
((lp857
VL01
p858
atRp859
sVDCC1836
p860
g3
((lp861
VD11
p862
atRp863
sVDCC1521
p864
g3
((lp865
VJ02
p866
atRp867
sVDCC1520
p868
g3
((lp869
VB01
p870
atRp871
sVDCC1523
p872
g3
((lp873
VN06
p874
atRp875
sVDCC1522
p876
g3
((lp877
VL01
p878
atRp879
sVDCC0199
p880
g3
((lp881
VJ01
p882
aVD06
p883
aVS02
p884
aVS03
p885
aVS01
p886
atRp887
sVDCC0198
p888
g3
((lp889
VC09
p890
atRp891
sVDCC0193
p892
g3
((lp893
VJ01
p894
aVS01
p895
aVS02
p896
aVS03
p897
aVA07
p898
atRp899
sVDCC0192
p900
g3
((lp901
VN03
p902
atRp903
sVDCC0443
p904
g3
((lp905
VJ01
p906
atRp907
sVDCC0197
p908
g3
((lp909
VC09
p910
aVC10
p911
atRp912
sVDCC0196
p913
g3
((lp914
VM02
p915
aVG02
p916
aVM01
p917
atRp918
sVDCC0195
p919
g3
((lp920
VD06
p921
aVJ05
p922
aVS01
p923
atRp924
sVDCC0194
p925
g3
((lp926
VL02
p927
aVG02
p928
aVG03
p929
atRp930
sVDCC0328
p931
g3
((lp932
VC10
p933
atRp934
sVDCC0329
p935
g3
((lp936
VL01
p937
atRp938
sVDCC0166
p939
g3
((lp940
VR01
p941
aVR03
p942
aVS01
p943
aVA01
p944
aVB02
p945
aVC01
p946
atRp947
sVDCC0167
p948
g3
((lp949
VN02
p950
atRp951
sVDCC0164
p952
g3
((lp953
VS01
p954
atRp955
sVDCC1849
p956
g3
((lp957
VD04
p958
aVR06
p959
atRp960
sVDCC0049
p961
g3
((lp962
VN02
p963
atRp964
sVDCC0048
p965
g3
((lp966
VN03
p967
atRp968
sVDCC0160
p969
g3
((lp970
VN02
p971
atRp972
sVDCC0161
p973
g3
((lp974
VJ05
p975
atRp976
sVDCC0045
p977
g3
((lp978
VJ05
p979
atRp980
sVDCC0044
p981
g3
((lp982
VN01
p983
atRp984
sVDCC0047
p985
g3
((lp986
VC03
p987
atRp988
sVDCC0046
p989
g3
((lp990
VL01
p991
atRp992
sVDCC0041
p993
g3
((lp994
VD04
p995
aVR06
p996
atRp997
sVDCC0040
p998
g3
((lp999
VD04
p1000
aVS01
p1001
aVS02
p1002
aVA01
p1003
aVR02
p1004
aVC01
p1005
aVN01
p1006
aVC05
p1007
atRp1008
sVDCC0043
p1009
g3
((lp1010
VR05
p1011
aVD10
p1012
aVS01
p1013
aVA07
p1014
aVG04
p1015
aVN04
p1016
aVN02
p1017
atRp1018
sVDCC0042
p1019
g3
((lp1020
VG03
p1021
atRp1022
sVDCC0225
p1023
g3
((lp1024
VJ05
p1025
atRp1026
sVDCC0224
p1027
g3
((lp1028
VS03
p1029
aVR02
p1030
aVS01
p1031
aVS02
p1032
aVA01
p1033
aVD09
p1034
aVD08
p1035
aVB05
p1036
atRp1037
sVDCC0227
p1038
g3
((lp1039
VC01
p1040
aVD03
p1041
aVC05
p1042
atRp1043
sVDCC0990
p1044
g3
((lp1045
VC01
p1046
atRp1047
sVDCC0221
p1048
g3
((lp1049
VR05
p1050
atRp1051
sVDCC0220
p1052
g3
((lp1053
VS01
p1054
atRp1055
sVDCC0223
p1056
g3
((lp1057
VS01
p1058
aVL04
p1059
atRp1060
sVDCC0222
p1061
g3
((lp1062
VC09
p1063
atRp1064
sVDCC1628
p1065
g3
((lp1066
VL01
p1067
atRp1068
sVDCC0738
p1069
g3
((lp1070
VR03
p1071
atRp1072
sVDCC0229
p1073
g3
((lp1074
VR06
p1075
atRp1076
sVDCC0228
p1077
g3
((lp1078
VJ05
p1079
atRp1080
sVDCC1239
p1081
g3
((lp1082
VJ01
p1083
atRp1084
sVDCC1238
p1085
g3
((lp1086
VN01
p1087
atRp1088
sVDCC0705
p1089
g3
((lp1090
VA06
p1091
atRp1092
sVDCC0348
p1093
g3
((lp1094
VL04
p1095
aVL01
p1096
atRp1097
sVDCC0321
p1098
g3
((lp1099
VD07
p1100
aVR01
p1101
aVR03
p1102
aVA07
p1103
atRp1104
sVDCC1231
p1105
g3
((lp1106
VN06
p1107
atRp1108
sVDCC0347
p1109
g3
((lp1110
VN06
p1111
atRp1112
sVDCC0344
p1113
g3
((lp1114
VJ01
p1115
atRp1116
sVDCC0345
p1117
g3
((lp1118
VN07
p1119
aVN01
p1120
atRp1121
sVDCC1235
p1122
g3
((lp1123
VL01
p1124
atRp1125
sVDCC0343
p1126
g3
((lp1127
VG03
p1128
atRp1129
sVDCC0612
p1130
g3
((lp1131
VJ01
p1132
atRp1133
sVDCC0613
p1134
g3
((lp1135
VL02
p1136
atRp1137
sVDCC1680
p1138
g3
((lp1139
VA10
p1140
atRp1141
sVDCC0700
p1142
g3
((lp1143
VC09
p1144
atRp1145
sVDCC0282
p1146
g3
((lp1147
VC01
p1148
aVR02
p1149
aVM02
p1150
aVG02
p1151
aVM01
p1152
atRp1153
sVDCC0281
p1154
g3
((lp1155
VJ05
p1156
atRp1157
sVDCC0325
p1158
g3
((lp1159
VD07
p1160
aVR01
p1161
aVS03
p1162
aVD10
p1163
aVH02
p1164
aVS02
p1165
aVA01
p1166
aVS01
p1167
aVC05
p1168
atRp1169
sVDCC0290
p1170
g3
((lp1171
VC10
p1172
atRp1173
sVDCC0291
p1174
g3
((lp1175
VA07
p1176
atRp1177
sVDCC0292
p1178
g3
((lp1179
VJ01
p1180
aVS01
p1181
aVA07
p1182
aVJ04
p1183
atRp1184
sVDCC0293
p1185
g3
((lp1186
VB01
p1187
atRp1188
sVDCC0294
p1189
g3
((lp1190
VC10
p1191
atRp1192
sVDCC0295
p1193
g3
((lp1194
VL01
p1195
atRp1196
sVDCC0296
p1197
g3
((lp1198
VB01
p1199
aVS01
p1200
aVC05
p1201
atRp1202
sVDCC0297
p1203
g3
((lp1204
VD01
p1205
aVS02
p1206
aVA01
p1207
aVA07
p1208
aVJ02
p1209
aVG01
p1210
atRp1211
sVDCC0298
p1212
g3
((lp1213
VR06
p1214
atRp1215
sVDCC0299
p1216
g3
((lp1217
VP01
p1218
atRp1219
sVDCC0285
p1220
g3
((lp1221
VA02
p1222
aVJ01
p1223
atRp1224
sVDCC0284
p1225
g3
((lp1226
VP02
p1227
atRp1228
sVDCC1657
p1229
g3
((lp1230
VL01
p1231
atRp1232
sVDCC1677
p1233
g3
((lp1234
VH05
p1235
atRp1236
sVDCC1719
p1237
g3
((lp1238
VB01
p1239
atRp1240
sVDCC1659
p1241
g3
((lp1242
VP01
p1243
atRp1244
sVDCC1658
p1245
g3
((lp1246
VJ05
p1247
atRp1248
sVDCC0908
p1249
g3
((lp1250
VL02
p1251
aVG03
p1252
atRp1253
sVDCC0903
p1254
g3
((lp1255
VJ05
p1256
atRp1257
sVDCC0907
p1258
g3
((lp1259
VB05
p1260
atRp1261
sVDCC0454
p1262
g3
((lp1263
VP01
p1264
atRp1265
sVDCC1828
p1266
g3
((lp1267
VD07
p1268
atRp1269
sVDCC1829
p1270
g3
((lp1271
VS01
p1272
aVC02
p1273
atRp1274
sVDCC0834
p1275
g3
((lp1276
VL02
p1277
atRp1278
sVDCC0464
p1279
g3
((lp1280
VP01
p1281
atRp1282
sVDCC0029
p1283
g3
((lp1284
VC10
p1285
atRp1286
sVDCC1434
p1287
g3
((lp1288
VA04
p1289
atRp1290
sVDCC0026
p1291
g3
((lp1292
VA02
p1293
atRp1294
sVDCC0025
p1295
g3
((lp1296
VD10
p1297
atRp1298
sVDCC0024
p1299
g3
((lp1300
VJ01
p1301
aVS01
p1302
atRp1303
sVDCC0159
p1304
g3
((lp1305
VA07
p1306
aVD01
p1307
aVG01
p1308
atRp1309
sVDCC0158
p1310
g3
((lp1311
VL01
p1312
atRp1313
sVDCC0157
p1314
g3
((lp1315
VC10
p1316
aVA10
p1317
atRp1318
sVDCC0023
p1319
g3
((lp1320
VP01
p1321
atRp1322
sVDCC1400
p1323
g3
((lp1324
VD05
p1325
atRp1326
sVDCC0154
p1327
g3
((lp1328
VN05
p1329
atRp1330
sVDCC0153
p1331
g3
((lp1332
VL01
p1333
atRp1334
sVDCC1407
p1335
g3
((lp1336
VG04
p1337
atRp1338
sVDCC0403
p1339
g3
((lp1340
VL01
p1341
atRp1342
sVDCC0022
p1343
g3
((lp1344
VG04
p1345
atRp1346
sVDCC1534
p1347
g3
((lp1348
VJ04
p1349
atRp1350
sVDCC0020
p1351
g3
((lp1352
VJ01
p1353
aVS01
p1354
aVD10
p1355
atRp1356
sVDCC1703
p1357
g3
((lp1358
VL02
p1359
atRp1360
sVDCC0213
p1361
g3
((lp1362
VN05
p1363
atRp1364
sVDCC0129
p1365
g3
((lp1366
VN03
p1367
atRp1368
sVDCC0122
p1369
g3
((lp1370
VL01
p1371
atRp1372
sVDCC0123
p1373
g3
((lp1374
VL01
p1375
atRp1376
sVDCC0120
p1377
g3
((lp1378
VL01
p1379
atRp1380
sVDCC0121
p1381
g3
((lp1382
VC08
p1383
aVC09
p1384
atRp1385
sVDCC0126
p1386
g3
((lp1387
VL01
p1388
atRp1389
sVDCC0127
p1390
g3
((lp1391
VC09
p1392
atRp1393
sVDCC0124
p1394
g3
((lp1395
VJ01
p1396
aVS01
p1397
aVS02
p1398
aVS03
p1399
atRp1400
sVDCC0125
p1401
g3
((lp1402
VL02
p1403
atRp1404
sVDCC0302
p1405
g3
((lp1406
VP01
p1407
atRp1408
sVDCC1577
p1409
g3
((lp1410
VR01
p1411
aVA11
p1412
aVD11
p1413
aVB02
p1414
aVA12
p1415
aVA02
p1416
aVA01
p1417
aVA06
p1418
aVA07
p1419
aVJ04
p1420
aVB01
p1421
aVV03
p1422
aVM05
p1423
aVB05
p1424
aVG04
p1425
aVD03
p1426
aVN07
p1427
aVV08
p1428
aVC05
p1429
aVN02
p1430
atRp1431
sVDCC0300
p1432
g3
((lp1433
VC02
p1434
aVV03
p1435
atRp1436
sVDCC0301
p1437
g3
((lp1438
VA02
p1439
aVM02
p1440
aVM01
p1441
atRp1442
sVDCC0306
p1443
g3
((lp1444
VA08
p1445
aVN06
p1446
atRp1447
sVDCC0307
p1448
g3
((lp1449
VP01
p1450
atRp1451
sVDCC0304
p1452
g3
((lp1453
VA02
p1454
aVJ01
p1455
aVS01
p1456
atRp1457
sVDCC0305
p1458
g3
((lp1459
VJ01
p1460
atRp1461
sVDCC0308
p1462
g3
((lp1463
VL01
p1464
atRp1465
sVDCC0309
p1466
g3
((lp1467
VJ01
p1468
aVS01
p1469
aVA07
p1470
atRp1471
sVDCC1273
p1472
g3
((lp1473
VN06
p1474
atRp1475
sVDCC1579
p1476
g3
((lp1477
VV04
p1478
aVD11
p1479
aVA12
p1480
aVA02
p1481
aVA06
p1482
aVB05
p1483
aVG04
p1484
aVC10
p1485
atRp1486
sVDCC0214
p1487
g3
((lp1488
VR01
p1489
atRp1490
sVDCC0494
p1491
g3
((lp1492
VJ05
p1493
aVV03
p1494
atRp1495
sVDCC1478
p1496
g3
((lp1497
VJ02
p1498
aVG01
p1499
aVD01
p1500
atRp1501
sVDCC1477
p1502
g3
((lp1503
VL04
p1504
atRp1505
sVDCC1474
p1506
g3
((lp1507
VD07
p1508
atRp1509
sVDCC1473
p1510
g3
((lp1511
VH05
p1512
atRp1513
sVDCC0717
p1514
g3
((lp1515
VB02
p1516
atRp1517
sVDCC1860
p1518
g3
((lp1519
VB05
p1520
aVD02
p1521
atRp1522
sVDCC1861
p1523
g3
((lp1524
VJ01
p1525
aVD06
p1526
atRp1527
sVDCC0061
p1528
g3
((lp1529
VA02
p1530
atRp1531
sVDCC0016
p1532
g3
((lp1533
VL01
p1534
atRp1535
sVDCC0014
p1536
g3
((lp1537
VC09
p1538
aVC10
p1539
atRp1540
sVDCC0015
p1541
g3
((lp1542
VC09
p1543
aVC10
p1544
atRp1545
sVDCC0012
p1546
g3
((lp1547
VL01
p1548
atRp1549
sVDCC0398
p1550
g3
((lp1551
VM02
p1552
aVM01
p1553
atRp1554
sVDCC0358
p1555
g3
((lp1556
VD05
p1557
atRp1558
sVDCC0011
p1559
g3
((lp1560
VS01
p1561
aVL04
p1562
atRp1563
sVDCC0395
p1564
g3
((lp1565
VD04
p1566
aVC05
p1567
atRp1568
sVDCC0155
p1569
g3
((lp1570
VS01
p1571
aVD10
p1572
atRp1573
sVDCC0018
p1574
g3
((lp1575
VN02
p1576
atRp1577
sVDCC0019
p1578
g3
((lp1579
VJ05
p1580
atRp1581
sVDCC1302
p1582
g3
((lp1583
VP01
p1584
atRp1585
sVDCC0152
p1586
g3
((lp1587
VC10
p1588
aVC04
p1589
atRp1590
sVDCC0377
p1591
g3
((lp1592
VR01
p1593
aVR06
p1594
atRp1595
sVDCC0376
p1596
g3
((lp1597
VD09
p1598
aVD08
p1599
atRp1600
sVDCC0375
p1601
g3
((lp1602
VR01
p1603
aVS01
p1604
atRp1605
sVDCC0374
p1606
g3
((lp1607
VP01
p1608
atRp1609
sVDCC0372
p1610
g3
((lp1611
VP01
p1612
atRp1613
sVDCC0278
p1614
g3
((lp1615
VL01
p1616
atRp1617
sVDCC0279
p1618
g3
((lp1619
VJ01
p1620
aVS01
p1621
atRp1622
sVDCC0276
p1623
g3
((lp1624
VC10
p1625
atRp1626
sVDCC0277
p1627
g3
((lp1628
VL04
p1629
atRp1630
sVDCC0275
p1631
g3
((lp1632
VC01
p1633
atRp1634
sVDCC0272
p1635
g3
((lp1636
VM04
p1637
atRp1638
sVDCC0273
p1639
g3
((lp1640
VL01
p1641
atRp1642
sVDCC1615
p1643
g3
((lp1644
VA11
p1645
atRp1646
sVDCC1614
p1647
g3
((lp1648
VH01
p1649
atRp1650
sVDCC1589
p1651
g3
((lp1652
VM05
p1653
aVA11
p1654
atRp1655
sVDCC0787
p1656
g3
((lp1657
VL01
p1658
atRp1659
sVDCC0784
p1660
g3
((lp1661
VL03
p1662
atRp1663
sVDCC1587
p1664
g3
((lp1665
VA07
p1666
atRp1667
sVDCC0920
p1668
g3
((lp1669
VS01
p1670
aVM01
p1671
atRp1672
sVDCC1584
p1673
g3
((lp1674
VR03
p1675
atRp1676
sVDCC1262
p1677
g3
((lp1678
VA04
p1679
atRp1680
sVDCC0080
p1681
g3
((lp1682
VM05
p1683
atRp1684
sVDCC1479
p1685
g3
((lp1686
VG04
p1687
atRp1688
sVDCC1334
p1689
g3
((lp1690
VG01
p1691
atRp1692
sVDCC1676
p1693
g3
((lp1694
VL04
p1695
atRp1696
sVDCC1727
p1697
g3
((lp1698
VJ05
p1699
atRp1700
sVDCC1726
p1701
g3
((lp1702
VC10
p1703
atRp1704
sVDCC1723
p1705
g3
((lp1706
VV03
p1707
atRp1708
sVDCC1722
p1709
g3
((lp1710
VC09
p1711
atRp1712
sVDCC0552
p1713
g3
((lp1714
VG03
p1715
atRp1716
sVDCC1194
p1717
g3
((lp1718
VN06
p1719
atRp1720
sVDCC1197
p1721
g3
((lp1722
VN05
p1723
atRp1724
sVDCC1191
p1725
g3
((lp1726
VC10
p1727
atRp1728
sVDCC1728
p1729
g3
((lp1730
VL01
p1731
atRp1732
sVDCC1297
p1733
g3
((lp1734
VJ01
p1735
atRp1736
sVDCC1293
p1737
g3
((lp1738
VN06
p1739
atRp1740
sVDCC1356
p1741
g3
((lp1742
VC04
p1743
aVV03
p1744
atRp1745
sVDCC1357
p1746
g3
((lp1747
VL01
p1748
atRp1749
sVDCC1354
p1750
g3
((lp1751
VH02
p1752
aVS02
p1753
aVS03
p1754
aVS01
p1755
atRp1756
sVDCC1355
p1757
g3
((lp1758
VC09
p1759
atRp1760
sVDCC0875
p1761
g3
((lp1762
VC01
p1763
atRp1764
sVDCC1351
p1765
g3
((lp1766
VA04
p1767
atRp1768
sVDCC0059
p1769
g3
((lp1770
VN05
p1771
atRp1772
sVDCC0082
p1773
g3
((lp1774
VA10
p1775
atRp1776
sVDCC0085
p1777
g3
((lp1778
VC03
p1779
atRp1780
sVDCC0050
p1781
g3
((lp1782
VL01
p1783
atRp1784
sVDCC1121
p1785
g3
((lp1786
VL03
p1787
atRp1788
sVDCC1120
p1789
g3
((lp1790
VL03
p1791
atRp1792
sVDCC1122
p1793
g3
((lp1794
VL04
p1795
atRp1796
sVDCC1124
p1797
g3
((lp1798
VA10
p1799
atRp1800
sVDCC1127
p1801
g3
((lp1802
VL03
p1803
atRp1804
sVDCC1129
p1805
g3
((lp1806
VV03
p1807
atRp1808
sVDCC0366
p1809
g3
((lp1810
VR05
p1811
atRp1812
sVDCC0084
p1813
g3
((lp1814
VJ01
p1815
atRp1816
sVDCC1433
p1817
g3
((lp1818
VC03
p1819
atRp1820
sVDCC1432
p1821
g3
((lp1822
VN01
p1823
atRp1824
sVDCC1431
p1825
g3
((lp1826
VD01
p1827
aVV03
p1828
aVD08
p1829
atRp1830
sVDCC1539
p1831
g3
((lp1832
VL02
p1833
atRp1834
sVDCC1437
p1835
g3
((lp1836
VH05
p1837
atRp1838
sVDCC1436
p1839
g3
((lp1840
VN03
p1841
atRp1842
sVDCC0450
p1843
g3
((lp1844
VL01
p1845
atRp1846
sVDCC0028
p1847
g3
((lp1848
VJ05
p1849
atRp1850
sVDCC0027
p1851
g3
((lp1852
VA10
p1853
atRp1854
sVDCC1825
p1855
g3
((lp1856
VN01
p1857
atRp1858
sVDCC1826
p1859
g3
((lp1860
VB03
p1861
atRp1862
sVDCC1827
p1863
g3
((lp1864
VB01
p1865
atRp1866
sVDCC1820
p1867
g3
((lp1868
VN02
p1869
atRp1870
sVDCC1537
p1871
g3
((lp1872
VL01
p1873
atRp1874
sVDCC0021
p1875
g3
((lp1876
VV04
p1877
aVN06
p1878
aVN02
p1879
atRp1880
sVDCC1823
p1881
g3
((lp1882
VG03
p1883
atRp1884
sVDCC0188
p1885
g3
((lp1886
VJ01
p1887
atRp1888
sVDCC0189
p1889
g3
((lp1890
VL01
p1891
atRp1892
sVDCC0087
p1893
g3
((lp1894
VR06
p1895
atRp1896
sVDCC1601
p1897
g3
((lp1898
VP01
p1899
atRp1900
sVDCC0180
p1901
g3
((lp1902
VG03
p1903
atRp1904
sVDCC0181
p1905
g3
((lp1906
VC09
p1907
aVC10
p1908
atRp1909
sVDCC0182
p1910
g3
((lp1911
VA02
p1912
aVA03
p1913
atRp1914
sVDCC0183
p1915
g3
((lp1916
VV03
p1917
atRp1918
sVDCC0184
p1919
g3
((lp1920
VD07
p1921
aVR01
p1922
aVS03
p1923
aVH02
p1924
aVS02
p1925
aVA01
p1926
aVA07
p1927
aVS01
p1928
aVC05
p1929
atRp1930
sVDCC0185
p1931
g3
((lp1932
VN01
p1933
atRp1934
sVDCC0186
p1935
g3
((lp1936
VD10
p1937
aVL01
p1938
atRp1939
sVDCC0187
p1940
g3
((lp1941
VD06
p1942
aVS03
p1943
aVA02
p1944
aVS01
p1945
aVS02
p1946
aVA01
p1947
aVJ01
p1948
aVG01
p1949
atRp1950
sVDCC0368
p1951
g3
((lp1952
VP01
p1953
aVS02
p1954
aVG01
p1955
aVD09
p1956
aVD08
p1957
atRp1958
sVDCC1221
p1959
g3
((lp1960
VJ01
p1961
aVA01
p1962
atRp1963
sVDCC0128
p1964
g3
((lp1965
VL01
p1966
atRp1967
sVDCC0206
p1968
g3
((lp1969
VN01
p1970
atRp1971
sVDCC0113
p1972
g3
((lp1973
VA02
p1974
atRp1975
sVDCC0112
p1976
g3
((lp1977
VN02
p1978
atRp1979
sVDCC0111
p1980
g3
((lp1981
VJ05
p1982
atRp1983
sVDCC0110
p1984
g3
((lp1985
VN04
p1986
atRp1987
sVDCC0117
p1988
g3
((lp1989
VL01
p1990
atRp1991
sVDCC0116
p1992
g3
((lp1993
VN07
p1994
aVR05
p1995
atRp1996
sVDCC0115
p1997
g3
((lp1998
VJ01
p1999
aVA07
p2000
atRp2001
sVDCC0114
p2002
g3
((lp2003
VJ05
p2004
atRp2005
sVDCC0052
p2006
g3
((lp2007
VJ01
p2008
atRp2009
sVDCC0053
p2010
g3
((lp2011
VN06
p2012
atRp2013
sVDCC0119
p2014
g3
((lp2015
VC09
p2016
atRp2017
sVDCC0051
p2018
g3
((lp2019
VR05
p2020
aVN02
p2021
atRp2022
sVDCC0056
p2023
g3
((lp2024
VJ04
p2025
atRp2026
sVDCC0057
p2027
g3
((lp2028
VA10
p2029
atRp2030
sVDCC0054
p2031
g3
((lp2032
VC02
p2033
atRp2034
sVDCC0055
p2035
g3
((lp2036
VC01
p2037
aVM02
p2038
aVS01
p2039
aVM01
p2040
atRp2041
sVDCC0232
p2042
g3
((lp2043
VC01
p2044
atRp2045
sVDCC1227
p2046
g3
((lp2047
VB01
p2048
atRp2049
sVDCC0230
p2050
g3
((lp2051
VS01
p2052
atRp2053
sVDCC0231
p2054
g3
((lp2055
VN03
p2056
atRp2057
sVDCC0236
p2058
g3
((lp2059
VN07
p2060
aVN02
p2061
atRp2062
sVDCC0237
p2063
g3
((lp2064
VA02
p2065
atRp2066
sVDCC0234
p2067
g3
((lp2068
VN04
p2069
atRp2070
sVDCC0235
p2071
g3
((lp2072
VD06
p2073
aVA02
p2074
aVA01
p2075
aVP01
p2076
aVJ01
p2077
aVG01
p2078
atRp2079
sVDCC1384
p2080
g3
((lp2081
VV03
p2082
atRp2083
sVDCC0238
p2084
g3
((lp2085
VA02
p2086
aVG02
p2087
aVM01
p2088
atRp2089
sVDCC0239
p2090
g3
((lp2091
VR03
p2092
atRp2093
sVDCC1381
p2094
g3
((lp2095
VB05
p2096
aVA06
p2097
aVR05
p2098
aVV08
p2099
atRp2100
sVDCC1380
p2101
g3
((lp2102
VN07
p2103
atRp2104
sVDCC0089
p2105
g3
((lp2106
VN05
p2107
atRp2108
sVDCC0628
p2109
g3
((lp2110
VL01
p2111
atRp2112
sVDCC0338
p2113
g3
((lp2114
VA02
p2115
atRp2116
sVDCC1548
p2117
g3
((lp2118
VN06
p2119
atRp2120
sVDCC0333
p2121
g3
((lp2122
VA10
p2123
atRp2124
sVDCC1546
p2125
g3
((lp2126
VN05
p2127
atRp2128
sVDCC0331
p2129
g3
((lp2130
VC09
p2131
atRp2132
sVDCC0330
p2133
g3
((lp2134
VL01
p2135
atRp2136
sVDCC0337
p2137
g3
((lp2138
VC02
p2139
atRp2140
sVDCC1542
p2141
g3
((lp2142
VB01
p2143
atRp2144
sVDCC1541
p2145
g3
((lp2146
VN05
p2147
atRp2148
sVDCC0334
p2149
g3
((lp2150
VL01
p2151
atRp2152
sVDCC0287
p2153
g3
((lp2154
VD04
p2155
aVV03
p2156
aVR06
p2157
atRp2158
sVDCC0088
p2159
g3
((lp2160
VS01
p2161
aVL01
p2162
atRp2163
sVDCC0303
p2164
g3
((lp2165
VA10
p2166
atRp2167
sVDCC1258
p2168
g3
((lp2169
VR06
p2170
atRp2171
sVDCC1574
p2172
g3
((lp2173
VN05
p2174
aVD11
p2175
atRp2176
sVDCC0247
p2177
g3
((lp2178
VC09
p2179
atRp2180
sVDCC0246
p2181
g3
((lp2182
VN01
p2183
atRp2184
sVDCC0245
p2185
g3
((lp2186
VL01
p2187
atRp2188
sVDCC0244
p2189
g3
((lp2190
VG03
p2191
atRp2192
sVDCC0243
p2193
g3
((lp2194
VR05
p2195
atRp2196
sVDCC1641
p2197
g3
((lp2198
VC07
p2199
atRp2200
sVDCC1314
p2201
g3
((lp2202
VD05
p2203
atRp2204
sVDCC0240
p2205
g3
((lp2206
VB01
p2207
aVA01
p2208
aVC10
p2209
aVN02
p2210
aVM01
p2211
atRp2212
sVDCC1545
p2213
g3
((lp2214
VA03
p2215
atRp2216
sVDCC1097
p2217
g3
((lp2218
VL02
p2219
aVG02
p2220
aVG03
p2221
atRp2222
sVDCC0248
p2223
g3
((lp2224
VR06
p2225
atRp2226
sVDCC0336
p2227
g3
((lp2228
VL01
p2229
atRp2230
sVDCC0335
p2231
g3
((lp2232
VJ02
p2233
atRp2234
sVDCC1165
p2235
g3
((lp2236
VL03
p2237
atRp2238
sVDCC1164
p2239
g3
((lp2240
VH01
p2241
atRp2242
sVDCC1166
p2243
g3
((lp2244
VH01
p2245
aVG02
p2246
atRp2247
sVDCC1567
p2248
g3
((lp2249
VA10
p2250
atRp2251
sVDCC1160
p2252
g3
((lp2253
VG03
p2254
atRp2255
sVDCC1162
p2256
g3
((lp2257
VL03
p2258
atRp2259
sVDCC1488
p2260
g3
((lp2261
VN03
p2262
atRp2263
sVDCC1367
p2264
g3
((lp2265
VN06
p2266
atRp2267
sVDCC1365
p2268
g3
((lp2269
VJ01
p2270
atRp2271
sVDCC0802
p2272
g3
((lp2273
VJ05
p2274
atRp2275
sVDCC1363
p2276
g3
((lp2277
VM05
p2278
atRp2279
sVDCC1361
p2280
g3
((lp2281
VG04
p2282
atRp2283
sVDCC1368
p2284
g3
((lp2285
VJ05
p2286
atRp2287
sVDCC0148
p2288
g3
((lp2289
VL01
p2290
atRp2291
sVDCC0149
p2292
g3
((lp2293
VD07
p2294
aVR01
p2295
aVR03
p2296
aVH02
p2297
aVS02
p2298
aVA01
p2299
aVS01
p2300
aVC05
p2301
atRp2302
sVDCC0144
p2303
g3
((lp2304
VJ01
p2305
atRp2306
sVDCC0145
p2307
g3
((lp2308
VC09
p2309
aVC07
p2310
atRp2311
sVDCC0146
p2312
g3
((lp2313
VP01
p2314
atRp2315
sVDCC0147
p2316
g3
((lp2317
VJ04
p2318
atRp2319
sVDCC0140
p2320
g3
((lp2321
VD07
p2322
aVS01
p2323
aVS02
p2324
aVC05
p2325
atRp2326
sVDCC0141
p2327
g3
((lp2328
VN03
p2329
atRp2330
sVDCC0142
p2331
g3
((lp2332
VC03
p2333
atRp2334
sVDCC0143
p2335
g3
((lp2336
VJ01
p2337
aVD06
p2338
aVG01
p2339
aVS01
p2340
atRp2341
sVDCC1353
p2342
g3
((lp2343
VN05
p2344
atRp2345
sVDCC0156
p2346
g3
((lp2347
VH02
p2348
aVA07
p2349
atRp2350
sVDCC1525
p2351
g3
((lp2352
VL01
p2353
atRp2354
sVDCC1471
p2355
g3
((lp2356
VL01
p2357
atRp2358
sVDCC1524
p2359
g3
((lp2360
VN06
p2361
atRp2362
sVDCC1503
p2363
g3
((lp2364
VC02
p2365
atRp2366
sVDCC1502
p2367
g3
((lp2368
VC08
p2369
atRp2370
sVDCC1501
p2371
g3
((lp2372
VG04
p2373
aVA03
p2374
atRp2375
sVDCC1500
p2376
g3
((lp2377
VJ01
p2378
aVS01
p2379
atRp2380
sVDCC1507
p2381
g3
((lp2382
VG04
p2383
atRp2384
sVDCC1505
p2385
g3
((lp2386
VA10
p2387
atRp2388
sVDCC0665
p2389
g3
((lp2390
VG03
p2391
atRp2392
sVDCC1833
p2393
g3
((lp2394
VD08
p2395
atRp2396
sVDCC1509
p2397
g3
((lp2398
VC07
p2399
atRp2400
sVDCC1508
p2401
g3
((lp2402
VL02
p2403
atRp2404
sVDCC1267
p2405
g3
((lp2406
VL02
p2407
aVG03
p2408
atRp2409
sVDCC1468
p2410
g3
((lp2411
VL04
p2412
atRp2413
sVDCC0468
p2414
g3
((lp2415
VD10
p2416
atRp2417
sVDCC0467
p2418
g3
((lp2419
VS01
p2420
aVD04
p2421
aVN01
p2422
aVC05
p2423
atRp2424
sVDCC1465
p2425
g3
((lp2426
VN06
p2427
atRp2428
sVDCC1466
p2429
g3
((lp2430
VL02
p2431
atRp2432
sVDCC1830
p2433
g3
((lp2434
VC03
p2435
atRp2436
sVDCC0463
p2437
g3
((lp2438
VR06
p2439
atRp2440
sVDCC1461
p2441
g3
((lp2442
VD10
p2443
atRp2444
sVDCC0818
p2445
g3
((lp2446
VN05
p2447
aVD11
p2448
atRp2449
sVDCC0063
p2450
g3
((lp2451
VR06
p2452
atRp2453
sVDCC0062
p2454
g3
((lp2455
VJ04
p2456
atRp2457
sVDCC0388
p2458
g3
((lp2459
VD11
p2460
atRp2461
sVDCC0060
p2462
g3
((lp2463
VC07
p2464
atRp2465
sVDCC0067
p2466
g3
((lp2467
VL01
p2468
atRp2469
sVDCC0066
p2470
g3
((lp2471
VP01
p2472
atRp2473
sVDCC0065
p2474
g3
((lp2475
VJ01
p2476
atRp2477
sVDCC0064
p2478
g3
((lp2479
VC08
p2480
aVC05
p2481
atRp2482
sVDCC0069
p2483
g3
((lp2484
VN05
p2485
atRp2486
sVDCC0068
p2487
g3
((lp2488
VJ02
p2489
atRp2490
sVDCC0385
p2491
g3
((lp2492
VA02
p2493
atRp2494
sVDCC0209
p2495
g3
((lp2496
VN05
p2497
atRp2498
sVDCC1649
p2499
g3
((lp2500
VB01
p2501
atRp2502
sVDCC0361
p2503
g3
((lp2504
VL01
p2505
atRp2506
sVDCC0362
p2507
g3
((lp2508
VJ01
p2509
aVD06
p2510
aVD09
p2511
aVS01
p2512
atRp2513
sVDCC1218
p2514
g3
((lp2515
VN05
p2516
atRp2517
sVDCC0203
p2518
g3
((lp2519
VJ05
p2520
atRp2521
sVDCC0202
p2522
g3
((lp2523
VS01
p2524
atRp2525
sVDCC0201
p2526
g3
((lp2527
VC09
p2528
aVC03
p2529
atRp2530
sVDCC0200
p2531
g3
((lp2532
VJ01
p2533
aVA07
p2534
atRp2535
sVDCC0207
p2536
g3
((lp2537
VG03
p2538
atRp2539
sVDCC0191
p2540
g3
((lp2541
VL01
p2542
atRp2543
sVDCC1210
p2544
g3
((lp2545
VN03
p2546
atRp2547
sVDCC1599
p2548
g3
((lp2549
VV03
p2550
atRp2551
sVDCC1590
p2552
g3
((lp2553
VN07
p2554
aVN02
p2555
atRp2556
sVDCC1593
p2557
g3
((lp2558
VN06
p2559
atRp2560
sVDCC1594
p2561
g3
((lp2562
VA05
p2563
atRp2564
sVDCC1595
p2565
g3
((lp2566
VG04
p2567
atRp2568
sVDCC1693
p2569
g3
((lp2570
VL04
p2571
atRp2572
sVDCC1692
p2573
g3
((lp2574
VL04
p2575
atRp2576
sVDCC1690
p2577
g3
((lp2578
VA10
p2579
atRp2580
sVDCC1699
p2581
g3
((lp2582
VG03
p2583
atRp2584
sVDCC1417
p2585
g3
((lp2586
VL01
p2587
atRp2588
sVDCC0013
p2589
g3
((lp2590
VB03
p2591
atRp2592
sVDCC0151
p2593
g3
((lp2594
VJ01
p2595
aVD06
p2596
aVR02
p2597
atRp2598
sVDCC0010
p2599
g3
((lp2600
VJ01
p2601
atRp2602
sVDCC0741
p2603
g3
((lp2604
VA10
p2605
atRp2606
sVDCC1285
p2607
g3
((lp2608
VC02
p2609
atRp2610
sVDCC1411
p2611
g3
((lp2612
VG03
p2613
atRp2614
sVDCC1329
p2615
g3
((lp2616
VN05
p2617
aVN01
p2618
atRp2619
sVDCC1736
p2620
g3
((lp2621
VS01
p2622
aVL01
p2623
atRp2624
sVDCC1737
p2625
g3
((lp2626
VL01
p2627
atRp2628
sVDCC1733
p2629
g3
((lp2630
VL04
p2631
atRp2632
sVDCC0204
p2633
g3
((lp2634
VN01
p2635
aVN02
p2636
atRp2637
sVDCC1412
p2638
g3
((lp2639
VC01
p2640
atRp2641
sVDCC0849
p2642
g3
((lp2643
VB01
p2644
atRp2645
sVDCC1284
p2646
g3
((lp2647
VN02
p2648
atRp2649
sVDCC1644
p2650
g3
((lp2651
VA10
p2652
atRp2653
sVDCC0150
p2654
g3
((lp2655
VJ05
p2656
atRp2657
sVDCC1328
p2658
g3
((lp2659
VC07
p2660
atRp2661
sVDCC1280
p2662
g3
((lp2663
VJ05
p2664
atRp2665
sVDCC1282
p2666
g3
((lp2667
VN05
p2668
atRp2669
sVDCC1224
p2670
g3
((lp2671
VL01
p2672
atRp2673
sVDCC1321
p2674
g3
((lp2675
VL01
p2676
atRp2677
sVDCC1288
p2678
g3
((lp2679
VS01
p2680
atRp2681
sVDCC0390
p2682
g3
((lp2683
VL01
p2684
atRp2685
sVDCC0429
p2686
g3
((lp2687
VL01
p2688
atRp2689
sVDCC0242
p2690
g3
((lp2691
VJ04
p2692
atRp2693
sVDCC0241
p2694
g3
((lp2695
VR06
p2696
atRp2697
sVDCC0168
p2698
g3
((lp2699
VL02
p2700
atRp2701
sVDCC0369
p2702
g3
((lp2703
VL01
p2704
atRp2705
sVDCC1136
p2706
g3
((lp2707
VH01
p2708
atRp2709
sVDCC1137
p2710
g3
((lp2711
VB01
p2712
atRp2713
sVDCC1135
p2714
g3
((lp2715
VH01
p2716
atRp2717
sVDCC1132
p2718
g3
((lp2719
VA10
p2720
atRp2721
sVDCC1133
p2722
g3
((lp2723
VA10
p2724
atRp2725
sVDCC1131
p2726
g3
((lp2727
VR03
p2728
atRp2729
sVDCC0165
p2730
g3
((lp2731
VC08
p2732
aVC09
p2733
atRp2734
sVDCC0520
p2735
g3
((lp2736
VA09
p2737
aVA16
p2738
atRp2739
sVDCC0162
p2740
g3
((lp2741
VV03
p2742
atRp2743
sVDCC0163
p2744
g3
((lp2745
VN02
p2746
atRp2747
sVDCC1819
p2748
g3
((lp2749
VA07
p2750
atRp2751
sVDCC1422
p2752
g3
((lp2753
VR03
p2754
atRp2755
sVDCC1423
p2756
g3
((lp2757
VC03
p2758
atRp2759
sVDCC0038
p2760
g3
((lp2761
VC09
p2762
atRp2763
sVDCC0039
p2764
g3
((lp2765
VR03
p2766
atRp2767
sVDCC1427
p2768
g3
((lp2769
VA04
p2770
atRp2771
sVDCC1811
p2772
g3
((lp2773
VS01
p2774
aVC07
p2775
atRp2776
sVDCC1810
p2777
g3
((lp2778
VR06
p2779
atRp2780
sVDCC1813
p2781
g3
((lp2782
VD06
p2783
aVD10
p2784
aVS01
p2785
aVS02
p2786
aVS03
p2787
aVJ01
p2788
aVG01
p2789
atRp2790
sVDCC0037
p2791
g3
((lp2792
VN03
p2793
atRp2794
sVDCC0030
p2795
g3
((lp2796
VJ05
p2797
atRp2798
sVDCC1814
p2799
g3
((lp2800
VC03
p2801
atRp2802
sVDCC1817
p2803
g3
((lp2804
VR05
p2805
atRp2806
sVDCC1816
p2807
g3
((lp2808
VC02
p2809
atRp2810
sVDCC1842
p2811
g3
((lp2812
VC02
p2813
atRp2814
sVDCC0332
p2815
g3
((lp2816
VL01
p2817
atRp2818
sVDCC1846
p2819
g3
((lp2820
VC03
p2821
atRp2822
sVDCC0100
p2823
g3
((lp2824
VN06
p2825
atRp2826
sVDCC0101
p2827
g3
((lp2828
VN05
p2829
atRp2830
sVDCC0102
p2831
g3
((lp2832
VJ01
p2833
aVD06
p2834
aVS01
p2835
atRp2836
sVDCC0103
p2837
g3
((lp2838
VL04
p2839
atRp2840
sVDCC0104
p2841
g3
((lp2842
VG03
p2843
atRp2844
sVDCC0105
p2845
g3
((lp2846
VL01
p2847
aVM01
p2848
atRp2849
sVDCC1386
p2850
g3
((lp2851
VM01
p2852
atRp2853
sVDCC0107
p2854
g3
((lp2855
VJ01
p2856
atRp2857
sVDCC0108
p2858
g3
((lp2859
VL01
p2860
atRp2861
sVDCC0109
p2862
g3
((lp2863
VC09
p2864
atRp2865
sVDCC0169
p2866
g3
((lp2867
VC09
p2868
atRp2869
sVDCC1252
p2870
g3
((lp2871
VN05
p2872
atRp2873
sVDCC1399
p2874
g3
((lp2875
VA07
p2876
atRp2877
sVDCC1256
p2878
g3
((lp2879
VJ01
p2880
aVD06
p2881
atRp2882
sVDCC1393
p2883
g3
((lp2884
VD07
p2885
aVR01
p2886
aVR03
p2887
atRp2888
sVDCC1259
p2889
g3
((lp2890
VC01
p2891
atRp2892
sVDCC0370
p2893
g3
((lp2894
VL03
p2895
atRp2896
sVDCC1396
p2897
g3
((lp2898
VB01
p2899
atRp2900
sVDCC1395
p2901
g3
((lp2902
VG04
p2903
aVC01
p2904
atRp2905
sVDCC1495
p2906
g3
((lp2907
VL04
p2908
atRp2909
sVDCC1494
p2910
g3
((lp2911
VC10
p2912
atRp2913
sVDCC0083
p2914
g3
((lp2915
VJ01
p2916
aVS01
p2917
atRp2918
sVDCC0226
p2919
g3
((lp2920
VC09
p2921
atRp2922
sVDCC1491
p2923
g3
((lp2924
VS01
p2925
aVN07
p2926
atRp2927
sVDCC1559
p2928
g3
((lp2929
VR03
p2930
atRp2931
sVDCC1493
p2932
g3
((lp2933
VP01
p2934
atRp2935
sVDCC0086
p2936
g3
((lp2937
VM03
p2938
atRp2939
sVDCC0320
p2940
g3
((lp2941
VN01
p2942
atRp2943
sVDCC1555
p2944
g3
((lp2945
VL01
p2946
atRp2947
sVDCC0322
p2948
g3
((lp2949
VR03
p2950
atRp2951
sVDCC0323
p2952
g3
((lp2953
VL01
p2954
atRp2955
sVDCC0324
p2956
g3
((lp2957
VJ05
p2958
atRp2959
sVDCC1551
p2960
g3
((lp2961
VN06
p2962
atRp2963
sVDCC0326
p2964
g3
((lp2965
VN04
p2966
atRp2967
sVDCC0327
p2968
g3
((lp2969
VN01
p2970
atRp2971
sVDCC0270
p2972
g3
((lp2973
VC09
p2974
atRp2975
sVDCC0378
p2976
g3
((lp2977
VL04
p2978
atRp2979
sVDCC0138
p2980
g3
((lp2981
VS01
p2982
aVM02
p2983
aVD11
p2984
aVM01
p2985
atRp2986
sVDCC1084
p2987
g3
((lp2988
VL01
p2989
atRp2990
sVDCC1106
p2991
g3
((lp2992
VL01
p2993
atRp2994
sVDCC1556
p2995
g3
((lp2996
VS01
p2997
atRp2998
sVDCC0254
p2999
g3
((lp3000
VS01
p3001
atRp3002
sVDCC0255
p3003
g3
((lp3004
VR03
p3005
atRp3006
sVDCC0256
p3007
g3
((lp3008
VL01
p3009
atRp3010
sVDCC0257
p3011
g3
((lp3012
VR01
p3013
aVD06
p3014
aVR02
p3015
aVS01
p3016
aVS02
p3017
aVA01
p3018
aVA07
p3019
aVD09
p3020
aVB05
p3021
aVJ01
p3022
aVS03
p3023
atRp3024
sVDCC0250
p3025
g3
((lp3026
VC10
p3027
atRp3028
sVDCC0251
p3029
g3
((lp3030
VB01
p3031
aVC01
p3032
atRp3033
sVDCC0252
p3034
g3
((lp3035
VL02
p3036
aVG03
p3037
atRp3038
sVDCC0253
p3039
g3
((lp3040
VJ01
p3041
aVS01
p3042
atRp3043
sVDCC1679
p3044
g3
((lp3045
VN05
p3046
atRp3047
sVDCC1678
p3048
g3
((lp3049
VL01
p3050
atRp3051
sVDCC0551
p3052
g3
((lp3053
VB01
p3054
atRp3055
sVDCC0258
p3056
g3
((lp3057
VN03
p3058
atRp3059
sVDCC0259
p3060
g3
((lp3061
VL01
p3062
atRp3063
sVDCC0887
p3064
g3
((lp3065
VM05
p3066
aVA11
p3067
atRp3068
sVDCC1535
p3069
g3
((lp3070
VL01
p3071
atRp3072
sVDCC1240
p3073
g3
((lp3074
VJ01
p3075
atRp3076
sVDCC0314
p3077
g3
((lp3078
VS01
p3079
atRp3080
sVDCC0317
p3081
g3
((lp3082
VC07
p3083
atRp3084
sVDCC1172
p3085
g3
((lp3086
VB05
p3087
atRp3088
sVDCC0346
p3089
g3
((lp3090
VN02
p3091
atRp3092
sVDCC0316
p3093
g3
((lp3094
VN03
p3095
atRp3096
sVDCC0311
p3097
g3
((lp3098
VL01
p3099
atRp3100
sVDCC1374
p3101
g3
((lp3102
VA10
p3103
atRp3104
sVDCC1376
p3105
g3
((lp3106
VN05
p3107
atRp3108
sVDCC1377
p3109
g3
((lp3110
VA02
p3111
aVM01
p3112
atRp3113
sVDCC1370
p3114
g3
((lp3115
VD04
p3116
aVS01
p3117
aVJ01
p3118
aVC01
p3119
aVN01
p3120
aVC05
p3121
atRp3122
sVDCC0313
p3123
g3
((lp3124
VJ01
p3125
aVD10
p3126
aVG01
p3127
atRp3128
sVDCC1372
p3129
g3
((lp3130
VC01
p3131
aVC05
p3132
atRp3133
sVDCC0342
p3134
g3
((lp3135
VM04
p3136
atRp3137
sVDCC0312
p3138
g3
((lp3139
VV03
p3140
atRp3141
sVDCC1234
p3142
g3
((lp3143
VL01
p3144
atRp3145
sVDCC0371
p3146
g3
((lp3147
VA10
p3148
atRp3149
sVDCC0341
p3150
g3
((lp3151
VB05
p3152
atRp3153
sVDCC0179
p3154
g3
((lp3155
VJ05
p3156
atRp3157
sVDCC0178
p3158
g3
((lp3159
VJ05
p3160
atRp3161
sVDCC1552
p3162
g3
((lp3163
VJ05
p3164
atRp3165
sVDCC0058
p3166
g3
((lp3167
VR01
p3168
aVR03
p3169
atRp3170
sVDCC0171
p3171
g3
((lp3172
VB01
p3173
atRp3174
sVDCC0170
p3175
g3
((lp3176
VJ02
p3177
aVA01
p3178
aVA07
p3179
aVG01
p3180
atRp3181
sVDCC0173
p3182
g3
((lp3183
VL04
p3184
atRp3185
sVDCC0172
p3186
g3
((lp3187
VJ01
p3188
aVS01
p3189
atRp3190
sVDCC0175
p3191
g3
((lp3192
VN02
p3193
atRp3194
sVDCC0174
p3195
g3
((lp3196
VC03
p3197
atRp3198
sVDCC0177
p3199
g3
((lp3200
VA08
p3201
aVN07
p3202
atRp3203
sVDCC0176
p3204
g3
((lp3205
VJ01
p3206
atRp3207
sVDCC0414
p3208
g3
((lp3209
VR05
p3210
aVV03
p3211
atRp3212
sVDCC1569
p3213
g3
((lp3214
VA10
p3215
atRp3216
sVDCC0233
p3217
g3
((lp3218
VA10
p3219
atRp3220
sVDCC1108
p3221
g3
((lp3222
VR05
p3223
atRp3224
sVDCC0249
p3225
g3
((lp3226
VC02
p3227
atRp3228
s.