(dp1
VDCC0770
p2
c__builtin__
set
p3
((lp4
VA
atRp5
sVDCC0777
p6
g3
((lp7
VL
atRp8
sVDCC1515
p9
g3
((lp10
VN
atRp11
sVDCC0779
p12
g3
((lp13
VA
atRp14
sVDCC0099
p15
g3
((lp16
VR
atRp17
sVDCC1459
p18
g3
((lp19
VS
aVR
atRp20
sVDCC1561
p21
g3
((lp22
VH
atRp23
sVDCC1560
p24
g3
((lp25
VA
atRp26
sVDCC1450
p27
g3
((lp28
VL
atRp29
sVDCC1453
p30
g3
((lp31
VS
aVJ
atRp32
sVDCC0470
p33
g3
((lp34
VN
atRp35
sVDCC1454
p36
g3
((lp37
VH
aVS
aVD
atRp38
sVDCC1489
p39
g3
((lp40
VJ
atRp41
sVDCC1498
p42
g3
((lp43
VN
atRp44
sVDCC1564
p45
g3
((lp46
VL
atRp47
sVDCC0070
p48
g3
((lp49
VG
atRp50
sVDCC0071
p51
g3
((lp52
VN
atRp53
sVDCC0072
p54
g3
((lp55
VC
aVS
atRp56
sVDCC0073
p57
g3
((lp58
VC
atRp59
sVDCC0074
p60
g3
((lp61
VC
atRp62
sVDCC0075
p63
g3
((lp64
VC
aVR
aVS
atRp65
sVDCC0076
p66
g3
((lp67
VC
atRp68
sVDCC0077
p69
g3
((lp70
VA
aVR
aVD
atRp71
sVDCC1855
p72
g3
((lp73
VJ
atRp74
sVDCC0079
p75
g3
((lp76
VL
atRp77
sVDCC1857
p78
g3
((lp79
VJ
atRp80
sVDCC1856
p81
g3
((lp82
VC
atRp83
sVDCC1850
p84
g3
((lp85
VC
atRp86
sVDCC1852
p87
g3
((lp88
VC
atRp89
sVDCC1637
p90
g3
((lp91
VJ
atRp92
sVDCC1639
p93
g3
((lp94
VL
atRp95
sVDCC0351
p96
g3
((lp97
VJ
atRp98
sVDCC0350
p99
g3
((lp100
VJ
atRp101
sVDCC0353
p102
g3
((lp103
VJ
atRp104
sVDCC0352
p105
g3
((lp106
VJ
atRp107
sVDCC1208
p108
g3
((lp109
VS
aVJ
atRp110
sVDCC1209
p111
g3
((lp112
VJ
atRp113
sVDCC1204
p114
g3
((lp115
VA
aVG
atRp116
sVDCC1205
p117
g3
((lp118
VC
atRp119
sVDCC0212
p120
g3
((lp121
VJ
atRp122
sVDCC1207
p123
g3
((lp124
VN
atRp125
sVDCC0603
p126
g3
((lp127
VG
atRp128
sVDCC0215
p129
g3
((lp130
VL
atRp131
sVDCC0216
p132
g3
((lp133
VA
aVC
aVD
aVH
aVS
aVR
aVV
atRp134
sVDCC1203
p135
g3
((lp136
VB
atRp137
sVDCC0452
p138
g3
((lp139
VV
atRp140
sVDCC0283
p141
g3
((lp142
VC
atRp143
sVDCC1681
p144
g3
((lp145
VL
atRp146
sVDCC1682
p147
g3
((lp148
VL
atRp149
sVDCC0280
p150
g3
((lp151
VJ
atRp152
sVDCC1684
p153
g3
((lp154
VJ
atRp155
sVDCC0286
p156
g3
((lp157
VA
atRp158
sVDCC1686
p159
g3
((lp160
VB
atRp161
sVDCC1687
p162
g3
((lp163
VL
atRp164
sVDCC1688
p165
g3
((lp166
VL
atRp167
sVDCC1689
p168
g3
((lp169
VM
atRp170
sVDCC0289
p171
g3
((lp172
VR
aVD
atRp173
sVDCC0288
p174
g3
((lp175
VL
atRp176
sVDCC1199
p177
g3
((lp178
VA
atRp179
sVDCC0421
p180
g3
((lp181
VA
atRp182
sVDCC0850
p183
g3
((lp184
VA
atRp185
sVDCC1702
p186
g3
((lp187
VA
atRp188
sVDCC1705
p189
g3
((lp190
VA
atRp191
sVDCC1704
p192
g3
((lp193
VA
atRp194
sVDCC1707
p195
g3
((lp196
VL
atRp197
sVDCC1424
p198
g3
((lp199
VG
atRp200
sVDCC1425
p201
g3
((lp202
VM
atRp203
sVDCC1338
p204
g3
((lp205
VC
atRp206
sVDCC1339
p207
g3
((lp208
VP
atRp209
sVDCC1666
p210
g3
((lp211
VB
atRp212
sVDCC1330
p213
g3
((lp214
VP
aVD
atRp215
sVDCC1455
p216
g3
((lp217
VC
atRp218
sVDCC1332
p219
g3
((lp220
VJ
atRp221
sVDCC1333
p222
g3
((lp223
VP
atRp224
sVDCC0917
p225
g3
((lp226
VL
atRp227
sVDCC1335
p228
g3
((lp229
VG
atRp230
sVDCC1336
p231
g3
((lp232
VM
atRp233
sVDCC0034
p234
g3
((lp235
VJ
atRp236
sVDCC0035
p237
g3
((lp238
VS
aVJ
atRp239
sVDCC0036
p240
g3
((lp241
VC
atRp242
sVDCC1812
p243
g3
((lp244
VR
atRp245
sVDCC0271
p246
g3
((lp247
VL
atRp248
sVDCC0885
p249
g3
((lp250
VA
atRp251
sVDCC0032
p252
g3
((lp253
VN
atRp254
sVDCC0033
p255
g3
((lp256
VA
aVD
aVG
atRp257
sVDCC1149
p258
g3
((lp259
VL
atRp260
sVDCC1021
p261
g3
((lp262
VA
atRp263
sVDCC1143
p264
g3
((lp265
VL
atRp266
sVDCC1142
p267
g3
((lp268
VB
atRp269
sVDCC1140
p270
g3
((lp271
VL
atRp272
sVDCC1145
p273
g3
((lp274
VH
atRp275
sVDCC1144
p276
g3
((lp277
VG
atRp278
sVDCC0081
p279
g3
((lp280
VR
atRp281
sVDCC0009
p282
g3
((lp283
VL
atRp284
sVDCC0008
p285
g3
((lp286
VL
atRp287
sVDCC0001
p288
g3
((lp289
VL
atRp290
sVDCC1414
p291
g3
((lp292
VN
atRp293
sVDCC0003
p294
g3
((lp295
VL
atRp296
sVDCC0002
p297
g3
((lp298
VL
atRp299
sVDCC0005
p300
g3
((lp301
VR
atRp302
sVDCC0004
p303
g3
((lp304
VL
atRp305
sVDCC0007
p306
g3
((lp307
VL
atRp308
sVDCC0006
p309
g3
((lp310
VL
atRp311
sVDCC1740
p312
g3
((lp313
VJ
atRp314
sVDCC0139
p315
g3
((lp316
VR
aVD
atRp317
sVDCC1710
p318
g3
((lp319
VL
atRp320
sVDCC0413
p321
g3
((lp322
VJ
atRp323
sVDCC0135
p324
g3
((lp325
VA
aVS
aVN
atRp326
sVDCC0134
p327
g3
((lp328
VC
atRp329
sVDCC0137
p330
g3
((lp331
VC
atRp332
sVDCC0136
p333
g3
((lp334
VC
aVS
aVN
atRp335
sVDCC0131
p336
g3
((lp337
VL
atRp338
sVDCC0130
p339
g3
((lp340
VJ
atRp341
sVDCC0133
p342
g3
((lp343
VJ
atRp344
sVDCC0132
p345
g3
((lp346
VN
atRp347
sVDCC0315
p348
g3
((lp349
VC
atRp350
sVDCC1241
p351
g3
((lp352
VG
atRp353
sVDCC1242
p354
g3
((lp355
VL
atRp356
sVDCC0640
p357
g3
((lp358
VV
atRp359
sVDCC1244
p360
g3
((lp361
VN
atRp362
sVDCC0310
p363
g3
((lp364
VM
aVN
atRp365
sVDCC1246
p366
g3
((lp367
VS
aVC
aVD
atRp368
sVDCC1247
p369
g3
((lp370
VN
atRp371
sVDCC1249
p372
g3
((lp373
VD
atRp374
sVDCC0319
p375
g3
((lp376
VJ
atRp377
sVDCC0318
p378
g3
((lp379
VA
aVJ
atRp380
sVDCC0417
p381
g3
((lp382
VN
atRp383
sVDCC1482
p384
g3
((lp385
VA
atRp386
sVDCC0078
p387
g3
((lp388
VM
atRp389
sVDCC1481
p390
g3
((lp391
VN
atRp392
sVDCC1486
p393
g3
((lp394
VC
aVR
aVD
atRp395
sVDCC0118
p396
g3
((lp397
VP
atRp398
sVDCC0098
p399
g3
((lp400
VC
aVR
atRp401
sVDCC1854
p402
g3
((lp403
VJ
aVD
atRp404
sVDCC0096
p405
g3
((lp406
VL
atRp407
sVDCC0097
p408
g3
((lp409
VA
atRp410
sVDCC0094
p411
g3
((lp412
VL
atRp413
sVDCC0095
p414
g3
((lp415
VA
aVC
aVD
aVH
aVS
aVR
atRp416
sVDCC0092
p417
g3
((lp418
VC
atRp419
sVDCC0093
p420
g3
((lp421
VJ
atRp422
sVDCC0090
p423
g3
((lp424
VC
atRp425
sVDCC0091
p426
g3
((lp427
VJ
atRp428
sVDCC1745
p429
g3
((lp430
VL
atRp431
sVDCC1744
p432
g3
((lp433
VN
atRp434
sVDCC0893
p435
g3
((lp436
VJ
atRp437
sVDCC1743
p438
g3
((lp439
VA
atRp440
sVDCC1742
p441
g3
((lp442
VR
atRp443
sVDCC1844
p444
g3
((lp445
VG
atRp446
sVDCC1749
p447
g3
((lp448
VA
aVL
atRp449
sVDCC0261
p450
g3
((lp451
VR
atRp452
sVDCC0260
p453
g3
((lp454
VC
atRp455
sVDCC0263
p456
g3
((lp457
VL
atRp458
sVDCC0262
p459
g3
((lp460
VS
aVJ
atRp461
sVDCC0265
p462
g3
((lp463
VM
atRp464
sVDCC0264
p465
g3
((lp466
VL
atRp467
sVDCC0267
p468
g3
((lp469
VA
atRp470
sVDCC0266
p471
g3
((lp472
VJ
atRp473
sVDCC0269
p474
g3
((lp475
VC
atRp476
sVDCC0268
p477
g3
((lp478
VA
aVJ
atRp479
sVDCC1664
p480
g3
((lp481
VL
atRp482
sVDCC1662
p483
g3
((lp484
VS
aVR
aVV
atRp485
sVDCC1661
p486
g3
((lp487
VJ
atRp488
sVDCC0793
p489
g3
((lp490
VG
atRp491
sVDCC0794
p492
g3
((lp493
VA
aVB
aVV
atRp494
sVDCC0106
p495
g3
((lp496
VS
aVD
atRp497
sVDCC1188
p498
g3
((lp499
VA
atRp500
sVDCC1183
p501
g3
((lp502
VB
atRp503
sVDCC1182
p504
g3
((lp505
VA
atRp506
sVDCC1181
p507
g3
((lp508
VC
atRp509
sVDCC0218
p510
g3
((lp511
VD
aVL
atRp512
sVDCC1345
p513
g3
((lp514
VN
atRp515
sVDCC1347
p516
g3
((lp517
VJ
atRp518
sVDCC0219
p519
g3
((lp520
VS
atRp521
sVDCC0949
p522
g3
((lp523
VL
atRp524
sVDCC1845
p525
g3
((lp526
VR
atRp527
sVDCC0354
p528
g3
((lp529
VR
aVD
atRp530
sVDCC0210
p531
g3
((lp532
VR
atRp533
sVDCC0635
p534
g3
((lp535
VA
atRp536
sVDCC0211
p537
g3
((lp538
VA
atRp539
sVDCC1116
p540
g3
((lp541
VL
atRp542
sVDCC1117
p543
g3
((lp544
VB
atRp545
sVDCC1110
p546
g3
((lp547
VL
atRp548
sVDCC1112
p549
g3
((lp550
VL
atRp551
sVDCC1200
p552
g3
((lp553
VJ
aVD
atRp554
sVDCC1118
p555
g3
((lp556
VB
atRp557
sVDCC0881
p558
g3
((lp559
VG
atRp560
sVDCC0217
p561
g3
((lp562
VA
atRp563
sVDCC1390
p564
g3
((lp565
VB
atRp566
sVDCC1446
p567
g3
((lp568
VS
aVR
atRp569
sVDCC1444
p570
g3
((lp571
VC
atRp572
sVDCC1445
p573
g3
((lp574
VJ
atRp575
sVDCC0764
p576
g3
((lp577
VJ
atRp578
sVDCC1443
p579
g3
((lp580
VL
atRp581
sVDCC1838
p582
g3
((lp583
VC
atRp584
sVDCC0768
p585
g3
((lp586
VL
atRp587
sVDCC1836
p588
g3
((lp589
VD
atRp590
sVDCC1521
p591
g3
((lp592
VJ
atRp593
sVDCC1520
p594
g3
((lp595
VB
atRp596
sVDCC1523
p597
g3
((lp598
VN
atRp599
sVDCC1522
p600
g3
((lp601
VL
atRp602
sVDCC0199
p603
g3
((lp604
VS
aVJ
aVD
atRp605
sVDCC0198
p606
g3
((lp607
VC
atRp608
sVDCC0193
p609
g3
((lp610
VA
aVS
aVJ
atRp611
sVDCC0192
p612
g3
((lp613
VN
atRp614
sVDCC0443
p615
g3
((lp616
VJ
atRp617
sVDCC0197
p618
g3
((lp619
VC
atRp620
sVDCC0196
p621
g3
((lp622
VM
aVG
atRp623
sVDCC0195
p624
g3
((lp625
VS
aVJ
aVD
atRp626
sVDCC0194
p627
g3
((lp628
VL
aVG
atRp629
sVDCC0328
p630
g3
((lp631
VC
atRp632
sVDCC0329
p633
g3
((lp634
VL
atRp635
sVDCC0166
p636
g3
((lp637
VA
aVR
aVC
aVB
aVS
atRp638
sVDCC0167
p639
g3
((lp640
VN
atRp641
sVDCC0164
p642
g3
((lp643
VS
atRp644
sVDCC1849
p645
g3
((lp646
VR
aVD
atRp647
sVDCC0049
p648
g3
((lp649
VN
atRp650
sVDCC0048
p651
g3
((lp652
VN
atRp653
sVDCC0160
p654
g3
((lp655
VN
atRp656
sVDCC0161
p657
g3
((lp658
VJ
atRp659
sVDCC0045
p660
g3
((lp661
VJ
atRp662
sVDCC0044
p663
g3
((lp664
VN
atRp665
sVDCC0047
p666
g3
((lp667
VC
atRp668
sVDCC0046
p669
g3
((lp670
VL
atRp671
sVDCC0041
p672
g3
((lp673
VR
aVD
atRp674
sVDCC0040
p675
g3
((lp676
VA
aVC
aVD
aVN
aVS
aVR
atRp677
sVDCC0043
p678
g3
((lp679
VA
aVD
aVG
aVN
aVS
aVR
atRp680
sVDCC0042
p681
g3
((lp682
VG
atRp683
sVDCC0225
p684
g3
((lp685
VJ
atRp686
sVDCC0224
p687
g3
((lp688
VA
aVR
aVB
aVS
aVD
atRp689
sVDCC0227
p690
g3
((lp691
VC
aVD
atRp692
sVDCC0990
p693
g3
((lp694
VC
atRp695
sVDCC0221
p696
g3
((lp697
VR
atRp698
sVDCC0220
p699
g3
((lp700
VS
atRp701
sVDCC0223
p702
g3
((lp703
VS
aVL
atRp704
sVDCC0222
p705
g3
((lp706
VC
atRp707
sVDCC1628
p708
g3
((lp709
VL
atRp710
sVDCC0738
p711
g3
((lp712
VR
atRp713
sVDCC0229
p714
g3
((lp715
VR
atRp716
sVDCC0228
p717
g3
((lp718
VJ
atRp719
sVDCC1239
p720
g3
((lp721
VJ
atRp722
sVDCC1238
p723
g3
((lp724
VN
atRp725
sVDCC0705
p726
g3
((lp727
VA
atRp728
sVDCC0348
p729
g3
((lp730
VL
atRp731
sVDCC0321
p732
g3
((lp733
VA
aVR
aVD
atRp734
sVDCC1231
p735
g3
((lp736
VN
atRp737
sVDCC0347
p738
g3
((lp739
VN
atRp740
sVDCC0344
p741
g3
((lp742
VJ
atRp743
sVDCC0345
p744
g3
((lp745
VN
atRp746
sVDCC1235
p747
g3
((lp748
VL
atRp749
sVDCC0343
p750
g3
((lp751
VG
atRp752
sVDCC0612
p753
g3
((lp754
VJ
atRp755
sVDCC0613
p756
g3
((lp757
VL
atRp758
sVDCC1680
p759
g3
((lp760
VA
atRp761
sVDCC0700
p762
g3
((lp763
VC
atRp764
sVDCC0282
p765
g3
((lp766
VC
aVR
aVM
aVG
atRp767
sVDCC0281
p768
g3
((lp769
VJ
atRp770
sVDCC0325
p771
g3
((lp772
VA
aVC
aVD
aVH
aVS
aVR
atRp773
sVDCC0290
p774
g3
((lp775
VC
atRp776
sVDCC0291
p777
g3
((lp778
VA
atRp779
sVDCC0292
p780
g3
((lp781
VA
aVS
aVJ
atRp782
sVDCC0293
p783
g3
((lp784
VB
atRp785
sVDCC0294
p786
g3
((lp787
VC
atRp788
sVDCC0295
p789
g3
((lp790
VL
atRp791
sVDCC0296
p792
g3
((lp793
VC
aVB
aVS
atRp794
sVDCC0297
p795
g3
((lp796
VA
aVS
aVJ
aVD
aVG
atRp797
sVDCC0298
p798
g3
((lp799
VR
atRp800
sVDCC0299
p801
g3
((lp802
VP
atRp803
sVDCC0285
p804
g3
((lp805
VA
aVJ
atRp806
sVDCC0284
p807
g3
((lp808
VP
atRp809
sVDCC1657
p810
g3
((lp811
VL
atRp812
sVDCC1677
p813
g3
((lp814
VH
atRp815
sVDCC1719
p816
g3
((lp817
VB
atRp818
sVDCC1659
p819
g3
((lp820
VP
atRp821
sVDCC1658
p822
g3
((lp823
VJ
atRp824
sVDCC0908
p825
g3
((lp826
VL
aVG
atRp827
sVDCC0903
p828
g3
((lp829
VJ
atRp830
sVDCC0907
p831
g3
((lp832
VB
atRp833
sVDCC0454
p834
g3
((lp835
VP
atRp836
sVDCC1828
p837
g3
((lp838
VD
atRp839
sVDCC1829
p840
g3
((lp841
VC
aVS
atRp842
sVDCC0834
p843
g3
((lp844
VL
atRp845
sVDCC0464
p846
g3
((lp847
VP
atRp848
sVDCC0029
p849
g3
((lp850
VC
atRp851
sVDCC1434
p852
g3
((lp853
VA
atRp854
sVDCC0026
p855
g3
((lp856
VA
atRp857
sVDCC0025
p858
g3
((lp859
VD
atRp860
sVDCC0024
p861
g3
((lp862
VS
aVJ
atRp863
sVDCC0159
p864
g3
((lp865
VA
aVD
aVG
atRp866
sVDCC0158
p867
g3
((lp868
VL
atRp869
sVDCC0157
p870
g3
((lp871
VA
aVC
atRp872
sVDCC0023
p873
g3
((lp874
VP
atRp875
sVDCC1400
p876
g3
((lp877
VD
atRp878
sVDCC0154
p879
g3
((lp880
VN
atRp881
sVDCC0153
p882
g3
((lp883
VL
atRp884
sVDCC1407
p885
g3
((lp886
VG
atRp887
sVDCC0403
p888
g3
((lp889
VL
atRp890
sVDCC0022
p891
g3
((lp892
VG
atRp893
sVDCC1534
p894
g3
((lp895
VJ
atRp896
sVDCC0020
p897
g3
((lp898
VS
aVJ
aVD
atRp899
sVDCC1703
p900
g3
((lp901
VL
atRp902
sVDCC0213
p903
g3
((lp904
VN
atRp905
sVDCC0129
p906
g3
((lp907
VN
atRp908
sVDCC0122
p909
g3
((lp910
VL
atRp911
sVDCC0123
p912
g3
((lp913
VL
atRp914
sVDCC0120
p915
g3
((lp916
VL
atRp917
sVDCC0121
p918
g3
((lp919
VC
atRp920
sVDCC0126
p921
g3
((lp922
VL
atRp923
sVDCC0127
p924
g3
((lp925
VC
atRp926
sVDCC0124
p927
g3
((lp928
VS
aVJ
atRp929
sVDCC0125
p930
g3
((lp931
VL
atRp932
sVDCC0302
p933
g3
((lp934
VP
atRp935
sVDCC1577
p936
g3
((lp937
VA
aVC
aVB
aVD
aVG
aVJ
aVM
aVN
aVR
aVV
atRp938
sVDCC0300
p939
g3
((lp940
VC
aVV
atRp941
sVDCC0301
p942
g3
((lp943
VA
aVM
atRp944
sVDCC0306
p945
g3
((lp946
VA
aVN
atRp947
sVDCC0307
p948
g3
((lp949
VP
atRp950
sVDCC0304
p951
g3
((lp952
VA
aVS
aVJ
atRp953
sVDCC0305
p954
g3
((lp955
VJ
atRp956
sVDCC0308
p957
g3
((lp958
VL
atRp959
sVDCC0309
p960
g3
((lp961
VA
aVS
aVJ
atRp962
sVDCC1273
p963
g3
((lp964
VN
atRp965
sVDCC1579
p966
g3
((lp967
VA
aVC
aVB
aVD
aVG
aVV
atRp968
sVDCC0214
p969
g3
((lp970
VR
atRp971
sVDCC0494
p972
g3
((lp973
VJ
aVV
atRp974
sVDCC1478
p975
g3
((lp976
VJ
aVD
aVG
atRp977
sVDCC1477
p978
g3
((lp979
VL
atRp980
sVDCC1474
p981
g3
((lp982
VD
atRp983
sVDCC1473
p984
g3
((lp985
VH
atRp986
sVDCC0717
p987
g3
((lp988
VB
atRp989
sVDCC1860
p990
g3
((lp991
VB
aVD
atRp992
sVDCC1861
p993
g3
((lp994
VJ
aVD
atRp995
sVDCC0061
p996
g3
((lp997
VA
atRp998
sVDCC0016
p999
g3
((lp1000
VL
atRp1001
sVDCC0014
p1002
g3
((lp1003
VC
atRp1004
sVDCC0015
p1005
g3
((lp1006
VC
atRp1007
sVDCC0012
p1008
g3
((lp1009
VL
atRp1010
sVDCC0398
p1011
g3
((lp1012
VM
atRp1013
sVDCC0358
p1014
g3
((lp1015
VD
atRp1016
sVDCC0011
p1017
g3
((lp1018
VS
aVL
atRp1019
sVDCC0395
p1020
g3
((lp1021
VC
aVD
atRp1022
sVDCC0155
p1023
g3
((lp1024
VS
aVD
atRp1025
sVDCC0018
p1026
g3
((lp1027
VN
atRp1028
sVDCC0019
p1029
g3
((lp1030
VJ
atRp1031
sVDCC1302
p1032
g3
((lp1033
VP
atRp1034
sVDCC0152
p1035
g3
((lp1036
VC
atRp1037
sVDCC0377
p1038
g3
((lp1039
VR
atRp1040
sVDCC0376
p1041
g3
((lp1042
VD
atRp1043
sVDCC0375
p1044
g3
((lp1045
VS
aVR
atRp1046
sVDCC0374
p1047
g3
((lp1048
VP
atRp1049
sVDCC0372
p1050
g3
((lp1051
VP
atRp1052
sVDCC0278
p1053
g3
((lp1054
VL
atRp1055
sVDCC0279
p1056
g3
((lp1057
VS
aVJ
atRp1058
sVDCC0276
p1059
g3
((lp1060
VC
atRp1061
sVDCC0277
p1062
g3
((lp1063
VL
atRp1064
sVDCC0275
p1065
g3
((lp1066
VC
atRp1067
sVDCC0272
p1068
g3
((lp1069
VM
atRp1070
sVDCC0273
p1071
g3
((lp1072
VL
atRp1073
sVDCC1615
p1074
g3
((lp1075
VA
atRp1076
sVDCC1614
p1077
g3
((lp1078
VH
atRp1079
sVDCC1589
p1080
g3
((lp1081
VA
aVM
atRp1082
sVDCC0787
p1083
g3
((lp1084
VL
atRp1085
sVDCC0784
p1086
g3
((lp1087
VL
atRp1088
sVDCC1587
p1089
g3
((lp1090
VA
atRp1091
sVDCC0920
p1092
g3
((lp1093
VS
aVM
atRp1094
sVDCC1584
p1095
g3
((lp1096
VR
atRp1097
sVDCC1262
p1098
g3
((lp1099
VA
atRp1100
sVDCC0080
p1101
g3
((lp1102
VM
atRp1103
sVDCC1479
p1104
g3
((lp1105
VG
atRp1106
sVDCC1334
p1107
g3
((lp1108
VG
atRp1109
sVDCC1676
p1110
g3
((lp1111
VL
atRp1112
sVDCC1727
p1113
g3
((lp1114
VJ
atRp1115
sVDCC1726
p1116
g3
((lp1117
VC
atRp1118
sVDCC1723
p1119
g3
((lp1120
VV
atRp1121
sVDCC1722
p1122
g3
((lp1123
VC
atRp1124
sVDCC0552
p1125
g3
((lp1126
VG
atRp1127
sVDCC1194
p1128
g3
((lp1129
VN
atRp1130
sVDCC1197
p1131
g3
((lp1132
VN
atRp1133
sVDCC1191
p1134
g3
((lp1135
VC
atRp1136
sVDCC1728
p1137
g3
((lp1138
VL
atRp1139
sVDCC1297
p1140
g3
((lp1141
VJ
atRp1142
sVDCC1293
p1143
g3
((lp1144
VN
atRp1145
sVDCC1356
p1146
g3
((lp1147
VC
aVV
atRp1148
sVDCC1357
p1149
g3
((lp1150
VL
atRp1151
sVDCC1354
p1152
g3
((lp1153
VH
aVS
atRp1154
sVDCC1355
p1155
g3
((lp1156
VC
atRp1157
sVDCC0875
p1158
g3
((lp1159
VC
atRp1160
sVDCC1351
p1161
g3
((lp1162
VA
atRp1163
sVDCC0059
p1164
g3
((lp1165
VN
atRp1166
sVDCC0082
p1167
g3
((lp1168
VA
atRp1169
sVDCC0085
p1170
g3
((lp1171
VC
atRp1172
sVDCC0050
p1173
g3
((lp1174
VL
atRp1175
sVDCC1121
p1176
g3
((lp1177
VL
atRp1178
sVDCC1120
p1179
g3
((lp1180
VL
atRp1181
sVDCC1122
p1182
g3
((lp1183
VL
atRp1184
sVDCC1124
p1185
g3
((lp1186
VA
atRp1187
sVDCC1127
p1188
g3
((lp1189
VL
atRp1190
sVDCC1129
p1191
g3
((lp1192
VV
atRp1193
sVDCC0366
p1194
g3
((lp1195
VR
atRp1196
sVDCC0084
p1197
g3
((lp1198
VJ
atRp1199
sVDCC1433
p1200
g3
((lp1201
VC
atRp1202
sVDCC1432
p1203
g3
((lp1204
VN
atRp1205
sVDCC1431
p1206
g3
((lp1207
VD
aVV
atRp1208
sVDCC1539
p1209
g3
((lp1210
VL
atRp1211
sVDCC1437
p1212
g3
((lp1213
VH
atRp1214
sVDCC1436
p1215
g3
((lp1216
VN
atRp1217
sVDCC0450
p1218
g3
((lp1219
VL
atRp1220
sVDCC0028
p1221
g3
((lp1222
VJ
atRp1223
sVDCC0027
p1224
g3
((lp1225
VA
atRp1226
sVDCC1825
p1227
g3
((lp1228
VN
atRp1229
sVDCC1826
p1230
g3
((lp1231
VB
atRp1232
sVDCC1827
p1233
g3
((lp1234
VB
atRp1235
sVDCC1820
p1236
g3
((lp1237
VN
atRp1238
sVDCC1537
p1239
g3
((lp1240
VL
atRp1241
sVDCC0021
p1242
g3
((lp1243
VV
aVN
atRp1244
sVDCC1823
p1245
g3
((lp1246
VG
atRp1247
sVDCC0188
p1248
g3
((lp1249
VJ
atRp1250
sVDCC0189
p1251
g3
((lp1252
VL
atRp1253
sVDCC0087
p1254
g3
((lp1255
VR
atRp1256
sVDCC1601
p1257
g3
((lp1258
VP
atRp1259
sVDCC0180
p1260
g3
((lp1261
VG
atRp1262
sVDCC0181
p1263
g3
((lp1264
VC
atRp1265
sVDCC0182
p1266
g3
((lp1267
VA
atRp1268
sVDCC0183
p1269
g3
((lp1270
VV
atRp1271
sVDCC0184
p1272
g3
((lp1273
VA
aVC
aVD
aVH
aVS
aVR
atRp1274
sVDCC0185
p1275
g3
((lp1276
VN
atRp1277
sVDCC0186
p1278
g3
((lp1279
VD
aVL
atRp1280
sVDCC0187
p1281
g3
((lp1282
VA
aVS
aVJ
aVD
aVG
atRp1283
sVDCC0368
p1284
g3
((lp1285
VP
aVS
aVD
aVG
atRp1286
sVDCC1221
p1287
g3
((lp1288
VA
aVJ
atRp1289
sVDCC0128
p1290
g3
((lp1291
VL
atRp1292
sVDCC0206
p1293
g3
((lp1294
VN
atRp1295
sVDCC0113
p1296
g3
((lp1297
VA
atRp1298
sVDCC0112
p1299
g3
((lp1300
VN
atRp1301
sVDCC0111
p1302
g3
((lp1303
VJ
atRp1304
sVDCC0110
p1305
g3
((lp1306
VN
atRp1307
sVDCC0117
p1308
g3
((lp1309
VL
atRp1310
sVDCC0116
p1311
g3
((lp1312
VR
aVN
atRp1313
sVDCC0115
p1314
g3
((lp1315
VA
aVJ
atRp1316
sVDCC0114
p1317
g3
((lp1318
VJ
atRp1319
sVDCC0052
p1320
g3
((lp1321
VJ
atRp1322
sVDCC0053
p1323
g3
((lp1324
VN
atRp1325
sVDCC0119
p1326
g3
((lp1327
VC
atRp1328
sVDCC0051
p1329
g3
((lp1330
VR
aVN
atRp1331
sVDCC0056
p1332
g3
((lp1333
VJ
atRp1334
sVDCC0057
p1335
g3
((lp1336
VA
atRp1337
sVDCC0054
p1338
g3
((lp1339
VC
atRp1340
sVDCC0055
p1341
g3
((lp1342
VC
aVM
aVS
atRp1343
sVDCC0232
p1344
g3
((lp1345
VC
atRp1346
sVDCC1227
p1347
g3
((lp1348
VB
atRp1349
sVDCC0230
p1350
g3
((lp1351
VS
atRp1352
sVDCC0231
p1353
g3
((lp1354
VN
atRp1355
sVDCC0236
p1356
g3
((lp1357
VN
atRp1358
sVDCC0237
p1359
g3
((lp1360
VA
atRp1361
sVDCC0234
p1362
g3
((lp1363
VN
atRp1364
sVDCC0235
p1365
g3
((lp1366
VA
aVP
aVJ
aVD
aVG
atRp1367
sVDCC1384
p1368
g3
((lp1369
VV
atRp1370
sVDCC0238
p1371
g3
((lp1372
VA
aVM
aVG
atRp1373
sVDCC0239
p1374
g3
((lp1375
VR
atRp1376
sVDCC1381
p1377
g3
((lp1378
VA
aVR
aVB
aVV
atRp1379
sVDCC1380
p1380
g3
((lp1381
VN
atRp1382
sVDCC0089
p1383
g3
((lp1384
VN
atRp1385
sVDCC0628
p1386
g3
((lp1387
VL
atRp1388
sVDCC0338
p1389
g3
((lp1390
VA
atRp1391
sVDCC1548
p1392
g3
((lp1393
VN
atRp1394
sVDCC0333
p1395
g3
((lp1396
VA
atRp1397
sVDCC1546
p1398
g3
((lp1399
VN
atRp1400
sVDCC0331
p1401
g3
((lp1402
VC
atRp1403
sVDCC0330
p1404
g3
((lp1405
VL
atRp1406
sVDCC0337
p1407
g3
((lp1408
VC
atRp1409
sVDCC1542
p1410
g3
((lp1411
VB
atRp1412
sVDCC1541
p1413
g3
((lp1414
VN
atRp1415
sVDCC0334
p1416
g3
((lp1417
VL
atRp1418
sVDCC0287
p1419
g3
((lp1420
VR
aVD
aVV
atRp1421
sVDCC0088
p1422
g3
((lp1423
VS
aVL
atRp1424
sVDCC0303
p1425
g3
((lp1426
VA
atRp1427
sVDCC1258
p1428
g3
((lp1429
VR
atRp1430
sVDCC1574
p1431
g3
((lp1432
VD
aVN
atRp1433
sVDCC0247
p1434
g3
((lp1435
VC
atRp1436
sVDCC0246
p1437
g3
((lp1438
VN
atRp1439
sVDCC0245
p1440
g3
((lp1441
VL
atRp1442
sVDCC0244
p1443
g3
((lp1444
VG
atRp1445
sVDCC0243
p1446
g3
((lp1447
VR
atRp1448
sVDCC1641
p1449
g3
((lp1450
VC
atRp1451
sVDCC1314
p1452
g3
((lp1453
VD
atRp1454
sVDCC0240
p1455
g3
((lp1456
VA
aVC
aVB
aVM
aVN
atRp1457
sVDCC1545
p1458
g3
((lp1459
VA
atRp1460
sVDCC1097
p1461
g3
((lp1462
VL
aVG
atRp1463
sVDCC0248
p1464
g3
((lp1465
VR
atRp1466
sVDCC0336
p1467
g3
((lp1468
VL
atRp1469
sVDCC0335
p1470
g3
((lp1471
VJ
atRp1472
sVDCC1165
p1473
g3
((lp1474
VL
atRp1475
sVDCC1164
p1476
g3
((lp1477
VH
atRp1478
sVDCC1166
p1479
g3
((lp1480
VH
aVG
atRp1481
sVDCC1567
p1482
g3
((lp1483
VA
atRp1484
sVDCC1160
p1485
g3
((lp1486
VG
atRp1487
sVDCC1162
p1488
g3
((lp1489
VL
atRp1490
sVDCC1488
p1491
g3
((lp1492
VN
atRp1493
sVDCC1367
p1494
g3
((lp1495
VN
atRp1496
sVDCC1365
p1497
g3
((lp1498
VJ
atRp1499
sVDCC0802
p1500
g3
((lp1501
VJ
atRp1502
sVDCC1363
p1503
g3
((lp1504
VM
atRp1505
sVDCC1361
p1506
g3
((lp1507
VG
atRp1508
sVDCC1368
p1509
g3
((lp1510
VJ
atRp1511
sVDCC0148
p1512
g3
((lp1513
VL
atRp1514
sVDCC0149
p1515
g3
((lp1516
VA
aVC
aVD
aVH
aVS
aVR
atRp1517
sVDCC0144
p1518
g3
((lp1519
VJ
atRp1520
sVDCC0145
p1521
g3
((lp1522
VC
atRp1523
sVDCC0146
p1524
g3
((lp1525
VP
atRp1526
sVDCC0147
p1527
g3
((lp1528
VJ
atRp1529
sVDCC0140
p1530
g3
((lp1531
VS
aVC
aVD
atRp1532
sVDCC0141
p1533
g3
((lp1534
VN
atRp1535
sVDCC0142
p1536
g3
((lp1537
VC
atRp1538
sVDCC0143
p1539
g3
((lp1540
VS
aVJ
aVD
aVG
atRp1541
sVDCC1353
p1542
g3
((lp1543
VN
atRp1544
sVDCC0156
p1545
g3
((lp1546
VA
aVH
atRp1547
sVDCC1525
p1548
g3
((lp1549
VL
atRp1550
sVDCC1471
p1551
g3
((lp1552
VL
atRp1553
sVDCC1524
p1554
g3
((lp1555
VN
atRp1556
sVDCC1503
p1557
g3
((lp1558
VC
atRp1559
sVDCC1502
p1560
g3
((lp1561
VC
atRp1562
sVDCC1501
p1563
g3
((lp1564
VA
aVG
atRp1565
sVDCC1500
p1566
g3
((lp1567
VS
aVJ
atRp1568
sVDCC1507
p1569
g3
((lp1570
VG
atRp1571
sVDCC1505
p1572
g3
((lp1573
VA
atRp1574
sVDCC0665
p1575
g3
((lp1576
VG
atRp1577
sVDCC1833
p1578
g3
((lp1579
VD
atRp1580
sVDCC1509
p1581
g3
((lp1582
VC
atRp1583
sVDCC1508
p1584
g3
((lp1585
VL
atRp1586
sVDCC1267
p1587
g3
((lp1588
VL
aVG
atRp1589
sVDCC1468
p1590
g3
((lp1591
VL
atRp1592
sVDCC0468
p1593
g3
((lp1594
VD
atRp1595
sVDCC0467
p1596
g3
((lp1597
VS
aVC
aVD
aVN
atRp1598
sVDCC1465
p1599
g3
((lp1600
VN
atRp1601
sVDCC1466
p1602
g3
((lp1603
VL
atRp1604
sVDCC1830
p1605
g3
((lp1606
VC
atRp1607
sVDCC0463
p1608
g3
((lp1609
VR
atRp1610
sVDCC1461
p1611
g3
((lp1612
VD
atRp1613
sVDCC0818
p1614
g3
((lp1615
VD
aVN
atRp1616
sVDCC0063
p1617
g3
((lp1618
VR
atRp1619
sVDCC0062
p1620
g3
((lp1621
VJ
atRp1622
sVDCC0388
p1623
g3
((lp1624
VD
atRp1625
sVDCC0060
p1626
g3
((lp1627
VC
atRp1628
sVDCC0067
p1629
g3
((lp1630
VL
atRp1631
sVDCC0066
p1632
g3
((lp1633
VP
atRp1634
sVDCC0065
p1635
g3
((lp1636
VJ
atRp1637
sVDCC0064
p1638
g3
((lp1639
VC
atRp1640
sVDCC0069
p1641
g3
((lp1642
VN
atRp1643
sVDCC0068
p1644
g3
((lp1645
VJ
atRp1646
sVDCC0385
p1647
g3
((lp1648
VA
atRp1649
sVDCC0209
p1650
g3
((lp1651
VN
atRp1652
sVDCC1649
p1653
g3
((lp1654
VB
atRp1655
sVDCC0361
p1656
g3
((lp1657
VL
atRp1658
sVDCC0362
p1659
g3
((lp1660
VS
aVJ
aVD
atRp1661
sVDCC1218
p1662
g3
((lp1663
VN
atRp1664
sVDCC0203
p1665
g3
((lp1666
VJ
atRp1667
sVDCC0202
p1668
g3
((lp1669
VS
atRp1670
sVDCC0201
p1671
g3
((lp1672
VC
atRp1673
sVDCC0200
p1674
g3
((lp1675
VA
aVJ
atRp1676
sVDCC0207
p1677
g3
((lp1678
VG
atRp1679
sVDCC0191
p1680
g3
((lp1681
VL
atRp1682
sVDCC1210
p1683
g3
((lp1684
VN
atRp1685
sVDCC1599
p1686
g3
((lp1687
VV
atRp1688
sVDCC1590
p1689
g3
((lp1690
VN
atRp1691
sVDCC1593
p1692
g3
((lp1693
VN
atRp1694
sVDCC1594
p1695
g3
((lp1696
VA
atRp1697
sVDCC1595
p1698
g3
((lp1699
VG
atRp1700
sVDCC1693
p1701
g3
((lp1702
VL
atRp1703
sVDCC1692
p1704
g3
((lp1705
VL
atRp1706
sVDCC1690
p1707
g3
((lp1708
VA
atRp1709
sVDCC1699
p1710
g3
((lp1711
VG
atRp1712
sVDCC1417
p1713
g3
((lp1714
VL
atRp1715
sVDCC0013
p1716
g3
((lp1717
VB
atRp1718
sVDCC0151
p1719
g3
((lp1720
VR
aVJ
aVD
atRp1721
sVDCC0010
p1722
g3
((lp1723
VJ
atRp1724
sVDCC0741
p1725
g3
((lp1726
VA
atRp1727
sVDCC1285
p1728
g3
((lp1729
VC
atRp1730
sVDCC1411
p1731
g3
((lp1732
VG
atRp1733
sVDCC1329
p1734
g3
((lp1735
VN
atRp1736
sVDCC1736
p1737
g3
((lp1738
VS
aVL
atRp1739
sVDCC1737
p1740
g3
((lp1741
VL
atRp1742
sVDCC1733
p1743
g3
((lp1744
VL
atRp1745
sVDCC0204
p1746
g3
((lp1747
VN
atRp1748
sVDCC1412
p1749
g3
((lp1750
VC
atRp1751
sVDCC0849
p1752
g3
((lp1753
VB
atRp1754
sVDCC1284
p1755
g3
((lp1756
VN
atRp1757
sVDCC1644
p1758
g3
((lp1759
VA
atRp1760
sVDCC0150
p1761
g3
((lp1762
VJ
atRp1763
sVDCC1328
p1764
g3
((lp1765
VC
atRp1766
sVDCC1280
p1767
g3
((lp1768
VJ
atRp1769
sVDCC1282
p1770
g3
((lp1771
VN
atRp1772
sVDCC1224
p1773
g3
((lp1774
VL
atRp1775
sVDCC1321
p1776
g3
((lp1777
VL
atRp1778
sVDCC1288
p1779
g3
((lp1780
VS
atRp1781
sVDCC0390
p1782
g3
((lp1783
VL
atRp1784
sVDCC0429
p1785
g3
((lp1786
VL
atRp1787
sVDCC0242
p1788
g3
((lp1789
VJ
atRp1790
sVDCC0241
p1791
g3
((lp1792
VR
atRp1793
sVDCC0168
p1794
g3
((lp1795
VL
atRp1796
sVDCC0369
p1797
g3
((lp1798
VL
atRp1799
sVDCC1136
p1800
g3
((lp1801
VH
atRp1802
sVDCC1137
p1803
g3
((lp1804
VB
atRp1805
sVDCC1135
p1806
g3
((lp1807
VH
atRp1808
sVDCC1132
p1809
g3
((lp1810
VA
atRp1811
sVDCC1133
p1812
g3
((lp1813
VA
atRp1814
sVDCC1131
p1815
g3
((lp1816
VR
atRp1817
sVDCC0165
p1818
g3
((lp1819
VC
atRp1820
sVDCC0520
p1821
g3
((lp1822
VA
atRp1823
sVDCC0162
p1824
g3
((lp1825
VV
atRp1826
sVDCC0163
p1827
g3
((lp1828
VN
atRp1829
sVDCC1819
p1830
g3
((lp1831
VA
atRp1832
sVDCC1422
p1833
g3
((lp1834
VR
atRp1835
sVDCC1423
p1836
g3
((lp1837
VC
atRp1838
sVDCC0038
p1839
g3
((lp1840
VC
atRp1841
sVDCC0039
p1842
g3
((lp1843
VR
atRp1844
sVDCC1427
p1845
g3
((lp1846
VA
atRp1847
sVDCC1811
p1848
g3
((lp1849
VC
aVS
atRp1850
sVDCC1810
p1851
g3
((lp1852
VR
atRp1853
sVDCC1813
p1854
g3
((lp1855
VS
aVJ
aVD
aVG
atRp1856
sVDCC0037
p1857
g3
((lp1858
VN
atRp1859
sVDCC0030
p1860
g3
((lp1861
VJ
atRp1862
sVDCC1814
p1863
g3
((lp1864
VC
atRp1865
sVDCC1817
p1866
g3
((lp1867
VR
atRp1868
sVDCC1816
p1869
g3
((lp1870
VC
atRp1871
sVDCC1842
p1872
g3
((lp1873
VC
atRp1874
sVDCC0332
p1875
g3
((lp1876
VL
atRp1877
sVDCC1846
p1878
g3
((lp1879
VC
atRp1880
sVDCC0100
p1881
g3
((lp1882
VN
atRp1883
sVDCC0101
p1884
g3
((lp1885
VN
atRp1886
sVDCC0102
p1887
g3
((lp1888
VS
aVJ
aVD
atRp1889
sVDCC0103
p1890
g3
((lp1891
VL
atRp1892
sVDCC0104
p1893
g3
((lp1894
VG
atRp1895
sVDCC0105
p1896
g3
((lp1897
VM
aVL
atRp1898
sVDCC1386
p1899
g3
((lp1900
VM
atRp1901
sVDCC0107
p1902
g3
((lp1903
VJ
atRp1904
sVDCC0108
p1905
g3
((lp1906
VL
atRp1907
sVDCC0109
p1908
g3
((lp1909
VC
atRp1910
sVDCC0169
p1911
g3
((lp1912
VC
atRp1913
sVDCC1252
p1914
g3
((lp1915
VN
atRp1916
sVDCC1399
p1917
g3
((lp1918
VA
atRp1919
sVDCC1256
p1920
g3
((lp1921
VJ
aVD
atRp1922
sVDCC1393
p1923
g3
((lp1924
VR
aVD
atRp1925
sVDCC1259
p1926
g3
((lp1927
VC
atRp1928
sVDCC0370
p1929
g3
((lp1930
VL
atRp1931
sVDCC1396
p1932
g3
((lp1933
VB
atRp1934
sVDCC1395
p1935
g3
((lp1936
VC
aVG
atRp1937
sVDCC1495
p1938
g3
((lp1939
VL
atRp1940
sVDCC1494
p1941
g3
((lp1942
VC
atRp1943
sVDCC0083
p1944
g3
((lp1945
VS
aVJ
atRp1946
sVDCC0226
p1947
g3
((lp1948
VC
atRp1949
sVDCC1491
p1950
g3
((lp1951
VS
aVN
atRp1952
sVDCC1559
p1953
g3
((lp1954
VR
atRp1955
sVDCC1493
p1956
g3
((lp1957
VP
atRp1958
sVDCC0086
p1959
g3
((lp1960
VM
atRp1961
sVDCC0320
p1962
g3
((lp1963
VN
atRp1964
sVDCC1555
p1965
g3
((lp1966
VL
atRp1967
sVDCC0322
p1968
g3
((lp1969
VR
atRp1970
sVDCC0323
p1971
g3
((lp1972
VL
atRp1973
sVDCC0324
p1974
g3
((lp1975
VJ
atRp1976
sVDCC1551
p1977
g3
((lp1978
VN
atRp1979
sVDCC0326
p1980
g3
((lp1981
VN
atRp1982
sVDCC0327
p1983
g3
((lp1984
VN
atRp1985
sVDCC0270
p1986
g3
((lp1987
VC
atRp1988
sVDCC0378
p1989
g3
((lp1990
VL
atRp1991
sVDCC0138
p1992
g3
((lp1993
VS
aVM
aVD
atRp1994
sVDCC1084
p1995
g3
((lp1996
VL
atRp1997
sVDCC1106
p1998
g3
((lp1999
VL
atRp2000
sVDCC1556
p2001
g3
((lp2002
VS
atRp2003
sVDCC0254
p2004
g3
((lp2005
VS
atRp2006
sVDCC0255
p2007
g3
((lp2008
VR
atRp2009
sVDCC0256
p2010
g3
((lp2011
VL
atRp2012
sVDCC0257
p2013
g3
((lp2014
VA
aVB
aVD
aVJ
aVS
aVR
atRp2015
sVDCC0250
p2016
g3
((lp2017
VC
atRp2018
sVDCC0251
p2019
g3
((lp2020
VC
aVB
atRp2021
sVDCC0252
p2022
g3
((lp2023
VL
aVG
atRp2024
sVDCC0253
p2025
g3
((lp2026
VS
aVJ
atRp2027
sVDCC1679
p2028
g3
((lp2029
VN
atRp2030
sVDCC1678
p2031
g3
((lp2032
VL
atRp2033
sVDCC0551
p2034
g3
((lp2035
VB
atRp2036
sVDCC0258
p2037
g3
((lp2038
VN
atRp2039
sVDCC0259
p2040
g3
((lp2041
VL
atRp2042
sVDCC0887
p2043
g3
((lp2044
VA
aVM
atRp2045
sVDCC1535
p2046
g3
((lp2047
VL
atRp2048
sVDCC1240
p2049
g3
((lp2050
VJ
atRp2051
sVDCC0314
p2052
g3
((lp2053
VS
atRp2054
sVDCC0317
p2055
g3
((lp2056
VC
atRp2057
sVDCC1172
p2058
g3
((lp2059
VB
atRp2060
sVDCC0346
p2061
g3
((lp2062
VN
atRp2063
sVDCC0316
p2064
g3
((lp2065
VN
atRp2066
sVDCC0311
p2067
g3
((lp2068
VL
atRp2069
sVDCC1374
p2070
g3
((lp2071
VA
atRp2072
sVDCC1376
p2073
g3
((lp2074
VN
atRp2075
sVDCC1377
p2076
g3
((lp2077
VA
aVM
atRp2078
sVDCC1370
p2079
g3
((lp2080
VC
aVJ
aVS
aVD
aVN
atRp2081
sVDCC0313
p2082
g3
((lp2083
VJ
aVD
aVG
atRp2084
sVDCC1372
p2085
g3
((lp2086
VC
atRp2087
sVDCC0342
p2088
g3
((lp2089
VM
atRp2090
sVDCC0312
p2091
g3
((lp2092
VV
atRp2093
sVDCC1234
p2094
g3
((lp2095
VL
atRp2096
sVDCC0371
p2097
g3
((lp2098
VA
atRp2099
sVDCC0341
p2100
g3
((lp2101
VB
atRp2102
sVDCC0179
p2103
g3
((lp2104
VJ
atRp2105
sVDCC0178
p2106
g3
((lp2107
VJ
atRp2108
sVDCC1552
p2109
g3
((lp2110
VJ
atRp2111
sVDCC0058
p2112
g3
((lp2113
VR
atRp2114
sVDCC0171
p2115
g3
((lp2116
VB
atRp2117
sVDCC0170
p2118
g3
((lp2119
VA
aVJ
aVG
atRp2120
sVDCC0173
p2121
g3
((lp2122
VL
atRp2123
sVDCC0172
p2124
g3
((lp2125
VS
aVJ
atRp2126
sVDCC0175
p2127
g3
((lp2128
VN
atRp2129
sVDCC0174
p2130
g3
((lp2131
VC
atRp2132
sVDCC0177
p2133
g3
((lp2134
VA
aVN
atRp2135
sVDCC0176
p2136
g3
((lp2137
VJ
atRp2138
sVDCC0414
p2139
g3
((lp2140
VR
aVV
atRp2141
sVDCC1569
p2142
g3
((lp2143
VA
atRp2144
sVDCC0233
p2145
g3
((lp2146
VA
atRp2147
sVDCC1108
p2148
g3
((lp2149
VR
atRp2150
sVDCC0249
p2151
g3
((lp2152
VC
atRp2153
s.