(dp1
VDCC0777
p2
c__builtin__
set
p3
((lp4
I10019
aI5156
aI2246
aI5159
aI3815
aI3791
aI2321
aI2324
aI2261
aI3702
atRp5
sVDCC1515
p6
g3
((lp7
I6530
aI6532
aI3269
aI1128
aI1129
aI6609
aI146
aI1813
aI3350
aI153
aI154
aI3356
aI3358
atRp8
sVDCC1459
p9
g3
((lp10
I3269
atRp11
sVDCC1561
p12
g3
((lp13
I3480
aI3482
aI3643
aI3486
atRp14
sVDCC1560
p15
g3
((lp16
I2740
atRp17
sVDCC1450
p18
g3
((lp19
I2099
atRp20
sVDCC1131
p21
g3
((lp22
I2205
aI2206
atRp23
sVDCC1455
p24
g3
((lp25
I153
aI154
aI3350
aI3351
atRp26
sVDCC1454
p27
g3
((lp28
I2908
atRp29
sVDCC1564
p30
g3
((lp31
I941
aI942
atRp32
sVDCC0070
p33
g3
((lp34
I5241
aI2099
aI6462
aI367
atRp35
sVDCC0071
p36
g3
((lp37
I2554
aI2555
aI2556
aI2557
aI2559
atRp38
sVDCC0072
p39
g3
((lp40
I153
aI154
atRp41
sVDCC0073
p42
g3
((lp43
I774
aI775
aI776
aI779
aI781
aI783
aI6609
aI759
atRp44
sVDCC0074
p45
g3
((lp46
I6337
aI6338
aI6339
aI6340
atRp47
sVDCC0075
p48
g3
((lp49
I146
aI147
aI148
atRp50
sVDCC0076
p51
g3
((lp52
I196
aI775
aI776
aI779
aI782
aI783
aI784
aI785
aI4306
atRp53
sVDCC0077
p54
g3
((lp55
I2908
atRp56
sVDCC0078
p57
g3
((lp58
I2561
aI2554
aI2566
atRp59
sVDCC0079
p60
g3
((lp61
I673
aI5894
aI5159
aI3815
aI3791
aI2321
aI2322
aI2324
aI2260
aI5979
atRp62
sVDCC1857
p63
g3
((lp64
I7153
atRp65
sVDCC1856
p66
g3
((lp67
I760
aI762
aI476
aI6557
aI759
atRp68
sVDCC1850
p69
g3
((lp70
I760
aI759
aI6557
aI6558
aI6559
atRp71
sVDCC1852
p72
g3
((lp73
I6571
aI332
atRp74
sVDCC1637
p75
g3
((lp76
I1234
atRp77
sVDCC1639
p78
g3
((lp79
I10381
atRp80
sVDCC0218
p81
g3
((lp82
I2280
atRp83
sVDCC0219
p84
g3
((lp85
I760
aI761
aI762
aI759
atRp86
sVDCC0355
p87
g3
((lp88
I10499
aI2852
aI8648
aI1545
aI207
aI7153
aI2099
aI2100
aI2101
aI2103
aI8856
aI2185
aI6462
atRp89
sVDCC0354
p90
g3
((lp91
I9970
aI3269
atRp92
sVDCC0357
p93
g3
((lp94
I6257
atRp95
sVDCC0210
p96
g3
((lp97
I1128
aI1129
aI3269
atRp98
sVDCC0211
p99
g3
((lp100
I801
aI5443
aI805
aI808
aI9970
aI4985
aI4986
aI4988
aI773
atRp101
sVDCC0213
p102
g3
((lp103
I808
aI801
aI1812
aI1813
aI805
atRp104
sVDCC0214
p105
g3
((lp106
I6530
aI6531
aI6532
aI3558
aI3725
aI4772
aI148
aI150
aI153
aI154
aI7124
atRp107
sVDCC0216
p108
g3
((lp109
I2908
atRp110
sVDCC0217
p111
g3
((lp112
I43
aI590
atRp113
sVDCC0283
p114
g3
((lp115
I9254
aI775
aI776
aI779
aI781
aI783
aI786
atRp116
sVDCC0282
p117
g3
((lp118
I6564
aI5327
aI7056
aI596
aI5465
aI1080
aI2169
aI5468
atRp119
sVDCC1682
p120
g3
((lp121
I3552
aI3553
aI3557
atRp122
sVDCC0280
p123
g3
((lp124
I8856
aI1595
aI213
atRp125
sVDCC0287
p126
g3
((lp127
I801
aI3269
aI808
aI1129
aI1128
aI148
aI1813
aI3356
aI805
atRp128
sVDCC0286
p129
g3
((lp130
I5468
atRp131
sVDCC1686
p132
g3
((lp133
I2159
atRp134
sVDCC1687
p135
g3
((lp136
I4067
aI5604
aI5605
aI3055
aI818
aI1017
aI25
aI6714
aI10746
aI613
atRp137
sVDCC1688
p138
g3
((lp139
I2321
aI2324
aI3791
atRp140
sVDCC1689
p141
g3
((lp142
I8600
atRp143
sVDCC0289
p144
g3
((lp145
I1129
aI3269
atRp146
sVDCC0288
p147
g3
((lp148
I6240
aI1633
aI5422
atRp149
sVDCC1199
p150
g3
((lp151
I6530
aI6531
aI6532
atRp152
sVDCC0421
p153
g3
((lp154
I1803
atRp155
sVDCC1703
p156
g3
((lp157
I3973
aI2798
atRp158
sVDCC1707
p159
g3
((lp160
I81027
aI7277
atRp161
sVDCC0038
p162
g3
((lp163
I185
atRp164
sVDCC0426
p165
g3
((lp166
I1312
aI1545
aI3091
aI1543
atRp167
sVDCC1338
p168
g3
((lp169
I136
aI134
aI135
atRp170
sVDCC1339
p171
g3
((lp172
I7846
aI10383
atRp173
sVDCC1330
p174
g3
((lp175
I2562
atRp176
sVDCC1333
p177
g3
((lp178
I54106
aI2939
aI7124
atRp179
sVDCC0917
p180
g3
((lp181
I2209
aI2212
aI2213
aI2214
aI2215
aI712
aI713
aI714
aI715
aI9103
atRp182
sVDCC1335
p183
g3
((lp184
I2099
aI367
atRp185
sVDCC1336
p186
g3
((lp187
I2224
aI5802
aI523
aI5775
aI5791
atRp188
sVDCC1659
p189
g3
((lp190
I7150
atRp191
sVDCC0429
p192
g3
((lp193
I2064
aI2066
aI1956
atRp194
sVDCC0037
p195
g3
((lp196
I2897
aI6323
aI759
aI760
aI761
aI2554
aI762
atRp197
sVDCC0031
p198
g3
((lp199
I89832
aI2891
aI1137
aI2898
aI1139
aI2554
aI2555
aI2556
aI2557
aI2559
atRp200
sVDCC0033
p201
g3
((lp202
I8856
aI9970
aI3783
atRp203
sVDCC1149
p204
g3
((lp205
I2209
aI2212
aI2213
aI2214
aI2215
aI712
aI713
aI714
aI715
aI716
aI9103
aI3560
aI3559
atRp206
sVDCC1143
p207
g3
((lp208
I7124
atRp209
sVDCC1142
p210
g3
((lp211
I3690
atRp212
sVDCC1140
p213
g3
((lp214
I3454
aI3455
atRp215
sVDCC1145
p216
g3
((lp217
I552
aI554
atRp218
sVDCC1144
p219
g3
((lp220
I2492
atRp221
sVDCC0009
p222
g3
((lp223
I2209
aI931
aI2212
aI2213
aI2214
aI2215
aI712
aI713
aI714
aI715
aI716
aI9103
atRp224
sVDCC0008
p225
g3
((lp226
I2209
aI1956
aI2213
aI2214
aI2215
aI712
aI713
aI714
aI715
aI716
aI9103
aI2064
aI2212
atRp227
sVDCC0435
p228
g3
((lp229
I196
atRp230
sVDCC1414
p231
g3
((lp232
I43
aI3356
atRp233
sVDCC1417
p234
g3
((lp235
I23649
aI5226
atRp236
sVDCC0002
p237
g3
((lp238
I3454
aI3455
atRp239
sVDCC1411
p240
g3
((lp241
I8856
aI5241
aI354
aI2908
atRp242
sVDCC0007
p243
g3
((lp244
I2209
aI2212
aI2213
aI2214
aI2215
aI712
aI713
aI714
aI715
aI716
aI9103
aI7124
atRp245
sVDCC1353
p246
g3
((lp247
I2560
aI2561
aI2562
aI2563
aI2565
aI2566
aI2567
aI2569
aI2570
aI2554
aI2555
aI2556
aI2557
aI2559
atRp248
sVDCC0139
p249
g3
((lp250
I5241
aI4306
aI2908
aI5321
atRp251
sVDCC0138
p252
g3
((lp253
I5320
aI3785
aI3786
aI5743
aI240
aI41
aI6329
atRp254
sVDCC0135
p255
g3
((lp256
I1128
aI1129
aI1141
aI1137
atRp257
sVDCC0134
p258
g3
((lp259
I153
aI154
aI3350
aI3351
atRp260
sVDCC0137
p261
g3
((lp262
I1636
atRp263
sVDCC0136
p264
g3
((lp265
I146
aI147
aI148
aI150
aI151
atRp266
sVDCC0410
p267
g3
((lp268
I100529261
aI2342
atRp269
sVDCC1858
p270
g3
((lp271
I6898
aI51067
aI8565
aI7054
atRp272
sVDCC0315
p273
g3
((lp274
I4048
aI4313
aI1636
aI4318
aI623
atRp275
sVDCC0314
p276
g3
((lp277
I760
aI761
aI762
aI759
atRp278
sVDCC0317
p279
g3
((lp280
I153
aI154
atRp281
sVDCC0316
p282
g3
((lp283
I9900
aI774
atRp284
sVDCC0311
p285
g3
((lp286
I8856
atRp287
sVDCC0310
p288
g3
((lp289
I6336
aI6530
aI3269
aI2902
aI2906
aI116443
aI116444
atRp290
sVDCC1246
p291
g3
((lp292
I2908
atRp293
sVDCC0312
p294
g3
((lp295
I1385
aI1066
aI2099
aI4985
aI4986
aI7099
aI4988
atRp296
sVDCC1249
p297
g3
((lp298
I2280
aI2475
atRp299
sVDCC0318
p300
g3
((lp301
I3757
atRp302
sVDCC1482
p303
g3
((lp304
I1181
atRp305
sVDCC1481
p306
g3
((lp307
I2904
aI116443
aI1813
aI2902
aI2903
atRp308
sVDCC1486
p309
g3
((lp310
I6647
aI5295
aI5296
aI8503
aI153
aI154
aI5594
atRp311
sVDCC0098
p312
g3
((lp313
I3269
aI3757
atRp314
sVDCC0099
p315
g3
((lp316
I240
aI10800
atRp317
sVDCC0096
p318
g3
((lp319
I7153
aI1105
atRp320
sVDCC0097
p321
g3
((lp322
I4137
aI495
atRp323
sVDCC0094
p324
g3
((lp325
I6240
aI7298
aI51727
atRp326
sVDCC0095
p327
g3
((lp328
I2908
atRp329
sVDCC0092
p330
g3
((lp331
I3156
atRp332
sVDCC0093
p333
g3
((lp334
I7298
aI1719
atRp335
sVDCC0090
p336
g3
((lp337
I760
aI3778
aI6559
aI762
aI759
atRp338
sVDCC0723
p339
g3
((lp340
I3791
atRp341
sVDCC1745
p342
g3
((lp343
I51185
aI7124
aI5743
atRp344
sVDCC1744
p345
g3
((lp346
I9817
aI5970
atRp347
sVDCC1742
p348
g3
((lp349
I2908
atRp350
sVDCC1749
p351
g3
((lp352
I3560
aI3561
aI3559
aI3454
aI3455
atRp353
sVDCC0261
p354
g3
((lp355
I153
aI154
atRp356
sVDCC0260
p357
g3
((lp358
I768
aI3778
aI771
aI759
aI760
aI762
aI6559
atRp359
sVDCC0263
p360
g3
((lp361
I6240
atRp362
sVDCC0265
p363
g3
((lp364
I3577
aI5742
aI5743
atRp365
sVDCC0267
p366
g3
((lp367
I1080
aI3762
aI19
aI10060
aI1374
atRp368
sVDCC0266
p369
g3
((lp370
I2950
atRp371
sVDCC0269
p372
g3
((lp373
I5153
aI805
aI9254
aI775
aI776
aI779
aI781
aI783
aI5136
aI808
aI4306
aI7125
aI801
aI7134
atRp374
sVDCC0268
p375
g3
((lp376
I3553
aI834
aI836
aI240
aI7422
aI54205
aI4318
atRp377
sVDCC1664
p378
g3
((lp379
I3553
atRp380
sVDCC1662
p381
g3
((lp382
I116443
aI23657
aI95
aI2902
aI2903
aI2904
aI2937
aI2906
aI1147
aI3551
atRp383
sVDCC0797
p384
g3
((lp385
I154
atRp386
sVDCC0105
p387
g3
((lp388
I760
aI761
aI5170
aI5743
atRp389
sVDCC1188
p390
g3
((lp391
I8566
atRp392
sVDCC1183
p393
g3
((lp394
I2352
aI2348
atRp395
sVDCC1182
p396
g3
((lp397
I7421
atRp398
sVDCC1181
p399
g3
((lp400
I1152
aI2593
aI1158
aI6535
aI1160
aI1159
aI548596
atRp401
sVDCC0944
p402
g3
((lp403
I10203
aI796
atRp404
sVDCC1345
p405
g3
((lp406
I2915
aI116444
atRp407
sVDCC1208
p408
g3
((lp409
I7153
atRp410
sVDCC1204
p411
g3
((lp412
I1128
atRp413
sVDCC0358
p414
g3
((lp415
I7421
atRp416
sVDCC1116
p417
g3
((lp418
I3973
aI2798
atRp419
sVDCC1117
p420
g3
((lp421
I5329
aI2243
aI5340
aI5054
atRp422
sVDCC1110
p423
g3
((lp424
I2209
aI2212
aI2213
aI2214
aI2215
aI712
aI713
aI714
aI715
aI716
aI9103
aI4049
aI7124
aI7133
atRp425
sVDCC1112
p426
g3
((lp427
I2798
atRp428
sVDCC0036
p429
g3
((lp430
I153
aI154
atRp431
sVDCC0603
p432
g3
((lp433
I2492
atRp434
sVDCC1118
p435
g3
((lp436
I2057
atRp437
sVDCC0881
p438
g3
((lp439
I5241
aI367
atRp440
sVDCC1446
p441
g3
((lp442
I146
aI147
aI148
aI150
aI151
atRp443
sVDCC1443
p444
g3
((lp445
I1786
atRp446
sVDCC1838
p447
g3
((lp448
I760
aI762
aI6557
aI759
atRp449
sVDCC0768
p450
g3
((lp451
I9734
atRp452
sVDCC1524
p453
g3
((lp454
I6530
aI6531
aI6532
aI3269
aI1128
aI148
atRp455
sVDCC1521
p456
g3
((lp457
I1595
atRp458
sVDCC1520
p459
g3
((lp460
I5139
atRp461
sVDCC1522
p462
g3
((lp463
I4129
atRp464
sVDCC0199
p465
g3
((lp466
I4036
aI1719
atRp467
sVDCC0198
p468
g3
((lp469
I185
atRp470
sVDCC0192
p471
g3
((lp472
I6331
atRp473
sVDCC0191
p474
g3
((lp475
I7153
aI7155
atRp476
sVDCC0442
p477
g3
((lp478
I1457
aI196
atRp479
sVDCC0197
p480
g3
((lp481
I6424
aI1636
atRp482
sVDCC0196
p483
g3
((lp484
I5742
aI5743
atRp485
sVDCC0194
p486
g3
((lp487
I10499
aI2852
aI8678
aI8856
aI1137
aI2099
aI2100
aI2104
aI4508
atRp488
sVDCC1495
p489
g3
((lp490
I2185
aI1723
aI196
atRp491
sVDCC1494
p492
g3
((lp493
I3156
atRp494
sVDCC0166
p495
g3
((lp496
I6647
aI146
aI147
aI148
aI150
aI151
aI153
aI154
aI7124
aI5053
atRp497
sVDCC0167
p498
g3
((lp499
I3350
aI3351
atRp500
sVDCC0165
p501
g3
((lp502
I6532
aI773
aI774
aI775
aI776
aI779
aI3757
aI782
aI783
aI784
aI785
aI146
aI147
aI148
aI8913
aI6331
aI8911
atRp503
sVDCC0049
p504
g3
((lp505
I7442
aI2166
aI2950
aI5742
aI5743
atRp506
sVDCC0163
p507
g3
((lp508
I10280
aI4986
aI4988
atRp509
sVDCC0160
p510
g3
((lp511
I4985
aI4986
aI4988
aI1066
atRp512
sVDCC1842
p513
g3
((lp514
I4129
atRp515
sVDCC0044
p516
g3
((lp517
I6336
aI5731
atRp518
sVDCC0047
p519
g3
((lp520
I6557
atRp521
sVDCC0041
p522
g3
((lp523
I3269
atRp524
sVDCC0040
p525
g3
((lp526
I6336
aI1956
aI5004
aI5005
aI6329
aI6331
atRp527
sVDCC0168
p528
g3
((lp529
I3757
aI367
aI8856
aI2099
aI2100
aI5590
aI2104
aI10682
aI6462
atRp530
sVDCC1845
p531
g3
((lp532
I153
aI154
aI1812
atRp533
sVDCC1622
p534
g3
((lp535
I4069
atRp536
sVDCC0227
p537
g3
((lp538
I4881
atRp539
sVDCC0226
p540
g3
((lp541
I1636
atRp542
sVDCC0220
p543
g3
((lp544
I2908
atRp545
sVDCC0223
p546
g3
((lp547
I2280
aI2475
aI2247
atRp548
sVDCC0222
p549
g3
((lp550
I185
atRp551
sVDCC1628
p552
g3
((lp553
I7296
atRp554
sVDCC0086
p555
g3
((lp556
I759
atRp557
sVDCC0229
p558
g3
((lp559
I3269
atRp560
sVDCC0228
p561
g3
((lp562
I4860
atRp563
sVDCC0320
p564
g3
((lp565
I6530
aI1813
aI4985
aI4986
aI116443
aI4988
aI3358
aI6869
atRp566
sVDCC0348
p567
g3
((lp568
I2475
atRp569
sVDCC0321
p570
g3
((lp571
I2908
atRp572
sVDCC1231
p573
g3
((lp574
I6530
aI6531
aI6532
atRp575
sVDCC0347
p576
g3
((lp577
I4129
aI6530
aI6531
aI6532
aI6571
aI150
aI151
atRp578
sVDCC0345
p579
g3
((lp580
I2560
aI79581
atRp581
sVDCC0342
p582
g3
((lp583
I81027
aI203068
atRp584
sVDCC0343
p585
g3
((lp586
I5241
aI4306
aI367
atRp587
sVDCC0340
p588
g3
((lp589
I2099
atRp590
sVDCC0613
p591
g3
((lp592
I1586
atRp593
sVDCC1680
p594
g3
((lp595
I1803
atRp596
sVDCC0700
p597
g3
((lp598
I185
atRp599
sVDCC1681
p600
g3
((lp601
I2064
atRp602
sVDCC1551
p603
g3
((lp604
I6531
aI147
atRp605
sVDCC0290
p606
g3
((lp607
I3156
aI1803
aI196
atRp608
sVDCC0291
p609
g3
((lp610
I4985
aI4988
atRp611
sVDCC0292
p612
g3
((lp613
I23569
atRp614
sVDCC0293
p615
g3
((lp616
I5731
aI5739
aI5327
aI5141
aI5142
aI5143
aI5144
atRp617
sVDCC0294
p618
g3
((lp619
I3156
atRp620
sVDCC0295
p621
g3
((lp622
I7298
atRp623
sVDCC0296
p624
g3
((lp625
I6403
aI2246
aI2247
aI2249
aI3082
aI9965
aI462
aI2159
aI2260
aI2263
aI2264
atRp626
sVDCC0297
p627
g3
((lp628
I3778
aI3779
aI3781
aI3783
aI4843
aI3757
aI4846
aI90134
aI8856
atRp629
sVDCC0298
p630
g3
((lp631
I6530
aI6531
aI6532
aI3269
atRp632
sVDCC0299
p633
g3
((lp634
I1723
atRp635
sVDCC1657
p636
g3
((lp637
I5753
aI7010
aI5979
aI1956
aI7422
atRp638
sVDCC1710
p639
g3
((lp640
I7852
atRp641
sVDCC0908
p642
g3
((lp643
I5241
aI2099
atRp644
sVDCC0329
p645
g3
((lp646
I81027
aI4133
aI4134
aI4137
aI596
aI8856
atRp647
sVDCC0904
p648
g3
((lp649
I1956
atRp650
sVDCC1437
p651
g3
((lp652
I7421
atRp653
sVDCC0453
p654
g3
((lp655
I6720
aI6256
aI6257
aI6258
aI5465
aI5468
atRp656
sVDCC0834
p657
g3
((lp658
I2798
atRp659
sVDCC0450
p660
g3
((lp661
I5243
atRp662
sVDCC1434
p663
g3
((lp664
I3360
aI4988
aI3350
aI3351
atRp665
sVDCC0025
p666
g3
((lp667
I6256
aI6257
aI6258
aI5914
aI5915
aI5916
atRp668
sVDCC0158
p669
g3
((lp670
I2618
aI471
aI7298
aI1719
atRp671
sVDCC0157
p672
g3
((lp673
I3689
aI3683
aI3156
atRp674
sVDCC1820
p675
g3
((lp676
I3357
aI150
aI3351
atRp677
sVDCC1400
p678
g3
((lp679
I6257
aI5914
aI5915
aI5916
atRp680
sVDCC0154
p681
g3
((lp682
I150
atRp683
sVDCC0153
p684
g3
((lp685
I6240
aI5422
atRp686
sVDCC1407
p687
g3
((lp688
I8654
atRp689
sVDCC0151
p690
g3
((lp691
I3416
aI2
atRp692
sVDCC1537
p693
g3
((lp694
I81551
atRp695
sVDCC0021
p696
g3
((lp697
I134
aI135
aI5290
aI5291
aI5293
aI6261
aI5142
aI5591
aI472
aI3710
atRp698
sVDCC1535
p699
g3
((lp700
I7153
atRp701
sVDCC0328
p702
g3
((lp703
I5465
atRp704
sVDCC0129
p705
g3
((lp706
I6325
aI6326
atRp707
sVDCC0122
p708
g3
((lp709
I8856
aI1956
atRp710
sVDCC0123
p711
g3
((lp712
I8856
atRp713
sVDCC0121
p714
g3
((lp715
I786
atRp716
sVDCC0126
p717
g3
((lp718
I203068
aI7277
atRp719
sVDCC0127
p720
g3
((lp721
I1636
atRp722
sVDCC0124
p723
g3
((lp724
I7153
aI3757
atRp725
sVDCC0125
p726
g3
((lp727
I2099
aI6462
atRp728
sVDCC0302
p729
g3
((lp730
I1719
atRp731
sVDCC0303
p732
g3
((lp733
I4129
aI5467
aI5468
aI5465
atRp734
sVDCC0300
p735
g3
((lp736
I760
aI3778
aI6559
aI476
aI759
atRp737
sVDCC0301
p738
g3
((lp739
I495
atRp740
sVDCC0306
p741
g3
((lp742
I1136
aI6530
aI6531
atRp743
sVDCC0307
p744
g3
((lp745
I1719
atRp746
sVDCC0304
p747
g3
((lp748
I7153
atRp749
sVDCC0308
p750
g3
((lp751
I7296
aI1026
aI5371
aI3725
aI207
aI595
aI3065
aI5594
aI5595
aI3551
atRp752
sVDCC1273
p753
g3
((lp754
I6530
aI6531
aI6532
atRp755
sVDCC1579
p756
g3
((lp757
I476
atRp758
sVDCC1479
p759
g3
((lp760
I1128
aI1129
atRp761
sVDCC1478
p762
g3
((lp763
I8856
aI9970
aI3757
aI367
atRp764
sVDCC1477
p765
g3
((lp766
I3614
aI3615
atRp767
sVDCC1474
p768
g3
((lp769
I2908
atRp770
sVDCC1473
p771
g3
((lp772
I846
atRp773
sVDCC0043
p774
g3
((lp775
I4985
aI4986
aI23643
aI4988
atRp776
sVDCC0717
p777
g3
((lp778
I4352
atRp779
sVDCC0063
p780
g3
((lp781
I3269
atRp782
sVDCC0016
p783
g3
((lp784
I5689
aI5693
atRp785
sVDCC0017
p786
g3
((lp787
I1644
atRp788
sVDCC0014
p789
g3
((lp790
I185
atRp791
sVDCC0015
p792
g3
((lp793
I1636
aI623
atRp794
sVDCC0012
p795
g3
((lp796
I2209
aI2212
aI2213
aI2214
aI2215
aI712
aI713
aI714
aI715
aI9103
aI7422
atRp797
sVDCC0013
p798
g3
((lp799
I4552
aI166785
aI4524
aI25974
aI4548
atRp800
sVDCC0011
p801
g3
((lp802
I10105
aI819
aI5478
aI5535
atRp803
sVDCC0396
p804
g3
((lp805
I5292
aI5294
atRp806
sVDCC0018
p807
g3
((lp808
I6530
aI6532
aI4985
aI4986
aI116443
aI4988
aI3358
atRp809
sVDCC0019
p810
g3
((lp811
I1066
aI4758
aI4759
atRp812
sVDCC1822
p813
g3
((lp814
I43
aI590
atRp815
sVDCC0152
p816
g3
((lp817
I23475
aI4837
atRp818
sVDCC0377
p819
g3
((lp820
I3269
atRp821
sVDCC0376
p822
g3
((lp823
I8856
aI9970
aI5468
aI367
atRp824
sVDCC0375
p825
g3
((lp826
I148
aI150
atRp827
sVDCC0938
p828
g3
((lp829
I6277
aI7178
aI6284
aI6285
aI9104
aI6678
aI10519
aI2201
aI23578
aI553115
aI10016
aI801
aI9378
aI805
aI808
aI8618
aI811
aI821
aI4924
aI6717
aI140576
aI25801
aI846
aI93664
aI4925
aI84467
aI23413
aI11261
atRp830
sVDCC0371
p831
g3
((lp832
I1803
atRp833
sVDCC0370
p834
g3
((lp835
I3123
atRp836
sVDCC0276
p837
g3
((lp838
I8856
aI5465
aI5467
aI5468
atRp839
sVDCC0277
p840
g3
((lp841
I51185
aI7124
aI5005
aI4790
aI2263
atRp842
sVDCC0274
p843
g3
((lp844
I2194
atRp845
sVDCC0275
p846
g3
((lp847
I1786
aI6331
aI3757
atRp848
sVDCC0272
p849
g3
((lp850
I24145
atRp851
sVDCC0273
p852
g3
((lp853
I5471
aI3251
aI3615
atRp854
sVDCC0270
p855
g3
((lp856
I185
aI3725
atRp857
sVDCC0271
p858
g3
((lp859
I7150
aI116447
atRp860
sVDCC1589
p861
g3
((lp862
I6256
aI7421
atRp863
sVDCC0256
p864
g3
((lp865
I5423
atRp866
sVDCC1584
p867
g3
((lp868
I1128
aI1129
atRp869
sVDCC1828
p870
g3
((lp871
I2908
atRp872
sVDCC0252
p873
g3
((lp874
I8856
aI2099
aI6462
atRp875
sVDCC0253
p876
g3
((lp877
I7153
atRp878
sVDCC1727
p879
g3
((lp880
I8856
atRp881
sVDCC1726
p882
g3
((lp883
I3156
atRp884
sVDCC1722
p885
g3
((lp886
I185
atRp887
sVDCC0552
p888
g3
((lp889
I2099
atRp890
sVDCC1194
p891
g3
((lp892
I4129
aI6530
aI6531
aI6532
aI9607
aI6571
aI1813
atRp893
sVDCC1191
p894
g3
((lp895
I3156
atRp896
sVDCC1728
p897
g3
((lp898
I943
atRp899
sVDCC1297
p900
g3
((lp901
I213
atRp902
sVDCC1293
p903
g3
((lp904
I6530
aI6531
aI6532
atRp905
sVDCC1356
p906
g3
((lp907
I146
aI147
aI148
aI150
atRp908
sVDCC1357
p909
g3
((lp910
I7153
aI7155
atRp911
sVDCC1354
p912
g3
((lp913
I4306
aI2908
aI367
atRp914
sVDCC1355
p915
g3
((lp916
I59272
aI1636
atRp917
sVDCC0111
p918
g3
((lp919
I7015
atRp920
sVDCC1351
p921
g3
((lp922
I6869
atRp923
sVDCC0169
p924
g3
((lp925
I185
atRp926
sVDCC0085
p927
g3
((lp928
I2908
aI367
aI4306
aI8856
aI5241
aI8911
aI79644
aI6462
atRp929
sVDCC0119
p930
g3
((lp931
I1636
atRp932
sVDCC1121
p933
g3
((lp934
I5553
aI6383
aI3563
aI1438
aI1439
atRp935
sVDCC1120
p936
g3
((lp937
I1441
aI1991
atRp938
sVDCC0118
p939
g3
((lp940
I7846
aI10383
atRp941
sVDCC1124
p942
g3
((lp943
I3490
aI4036
aI5925
aI94121
aI4856
aI3480
aI1363
aI3416
aI3643
aI1509
atRp944
sVDCC1127
p945
g3
((lp946
I3454
aI3455
atRp947
sVDCC1126
p948
g3
((lp949
I3459
aI3460
atRp950
sVDCC1129
p951
g3
((lp952
I3339
aI2260
aI2261
aI2263
aI2264
aI8829
atRp953
sVDCC0084
p954
g3
((lp955
I6564
atRp956
sVDCC1433
p957
g3
((lp958
I51176
aI476
aI6557
aI2950
atRp959
sVDCC1432
p960
g3
((lp961
I4985
aI4986
aI4988
atRp962
sVDCC1431
p963
g3
((lp964
I2560
aI10369
aI2562
aI2563
aI2565
aI775
aI776
aI779
aI782
aI786
aI7412
aI2567
aI3760
aI3762
aI3763
aI2742
aI3897
aI2890
aI2891
aI2892
aI2893
aI116443
aI89832
aI3177
aI2030
aI1136
aI1137
aI1138
aI1139
aI2561
aI1141
aI2554
aI2555
aI2556
aI2557
aI2559
atRp965
sVDCC1122
p966
g3
((lp967
I3554
atRp968
sVDCC0452
p969
g3
((lp970
I2977
aI4842
atRp971
sVDCC1829
p972
g3
((lp973
I6530
atRp974
sVDCC0029
p975
g3
((lp976
I3066
aI3683
aI3156
atRp977
sVDCC0451
p978
g3
((lp979
I51564
aI55869
atRp980
sVDCC0027
p981
g3
((lp982
I3758
atRp983
sVDCC0026
p984
g3
((lp985
I495
atRp986
sVDCC1530
p987
g3
((lp988
I4985
aI4988
atRp989
sVDCC0024
p990
g3
((lp991
I23569
atRp992
sVDCC0023
p993
g3
((lp994
I3074
aI1719
atRp995
sVDCC0022
p996
g3
((lp997
I5148
aI5149
aI8654
atRp998
sVDCC0458
p999
g3
((lp1000
I10495
atRp1001
sVDCC0020
p1002
g3
((lp1003
I213
aI3757
atRp1004
sVDCC0189
p1005
g3
((lp1006
I7150
aI116447
atRp1007
sVDCC0087
p1008
g3
((lp1009
I3269
atRp1010
sVDCC0202
p1011
g3
((lp1012
I1128
aI1129
atRp1013
sVDCC0180
p1014
g3
((lp1015
I5241
atRp1016
sVDCC0181
p1017
g3
((lp1018
I1636
atRp1019
sVDCC0182
p1020
g3
((lp1021
I1128
aI1129
atRp1022
sVDCC0183
p1023
g3
((lp1024
I43
aI590
atRp1025
sVDCC0184
p1026
g3
((lp1027
I3291
aI2908
aI301
atRp1028
sVDCC0185
p1029
g3
((lp1030
I6331
atRp1031
sVDCC0186
p1032
g3
((lp1033
I5916
aI27306
aI5166
aI6256
aI6257
aI6258
aI5950
aI8854
aI216
aI5914
aI5915
aI9052
aI190
atRp1034
sVDCC0187
p1035
g3
((lp1036
I23569
aI5621
atRp1037
sVDCC0235
p1038
g3
((lp1039
I1595
atRp1040
sVDCC0112
p1041
g3
((lp1042
I4985
aI4986
aI4988
aI5005
atRp1043
sVDCC0058
p1044
g3
((lp1045
I1128
aI1129
atRp1046
sVDCC0059
p1047
g3
((lp1048
I3351
aI3362
aI3350
aI1128
aI1129
aI151
aI3358
aI147
aI1812
aI1813
aI1814
aI1815
aI1816
aI148
aI3354
aI3356
aI3357
aI150
aI3269
atRp1049
sVDCC0117
p1050
g3
((lp1051
I7018
aI475
aI2
aI4350
atRp1052
sVDCC0116
p1053
g3
((lp1054
I6530
aI6532
aI10280
aI10857
aI89832
aI1136
aI1137
aI1139
aI1141
aI5880
aI4985
aI4986
aI116443
aI4988
atRp1055
sVDCC0114
p1056
g3
((lp1057
I8856
atRp1058
sVDCC0053
p1059
g3
((lp1060
I6530
aI6532
aI3350
aI146
aI147
aI148
aI150
aI3351
aI3736
aI3356
aI3358
aI3362
aI3751
aI10280
aI4914
aI4915
aI3269
aI3785
aI3786
aI1128
aI1129
aI3752
aI4985
aI4986
aI4988
atRp1061
sVDCC0050
p1062
g3
((lp1063
I1956
atRp1064
sVDCC0051
p1065
g3
((lp1066
I4985
aI4986
aI4988
atRp1067
sVDCC0057
p1068
g3
((lp1069
I5564
atRp1070
sVDCC0054
p1071
g3
((lp1072
I4881
atRp1073
sVDCC0055
p1074
g3
((lp1075
I8644
aI5320
aI5742
aI5743
aI2739
aI5465
aI5468
atRp1076
sVDCC0232
p1077
g3
((lp1078
I3757
aI146
aI147
aI148
aI6331
aI3775
atRp1079
sVDCC0233
p1080
g3
((lp1081
I5468
atRp1082
sVDCC0230
p1083
g3
((lp1084
I5731
aI8644
aI5733
atRp1085
sVDCC0239
p1086
g3
((lp1087
I153
aI154
atRp1088
sVDCC0236
p1089
g3
((lp1090
I4985
aI4986
aI4987
aI4988
atRp1091
sVDCC0234
p1092
g3
((lp1093
I116443
aI1813
atRp1094
sVDCC1221
p1095
g3
((lp1096
I23569
aI567
atRp1097
sVDCC1384
p1098
g3
((lp1099
I351
atRp1100
sVDCC0238
p1101
g3
((lp1102
I5733
aI5734
atRp1103
sVDCC1386
p1104
g3
((lp1105
I6256
aI5742
aI5743
atRp1106
sVDCC1380
p1107
g3
((lp1108
I23657
aI6331
atRp1109
sVDCC1548
p1110
g3
((lp1111
I6530
aI6532
aI2950
aI3356
aI3357
aI3358
atRp1112
sVDCC0333
p1113
g3
((lp1114
I1803
atRp1115
sVDCC0620
p1116
g3
((lp1117
I2950
atRp1118
sVDCC1545
p1119
g3
((lp1120
I3360
aI1128
aI43
aI1813
atRp1121
sVDCC0330
p1122
g3
((lp1123
I2050
aI2444
aI1432
aI25
aI27
aI1445
aI5159
aI2268
aI1969
aI695
aI6714
aI51776
aI7525
aI8013
aI3932
aI5471
aI4067
aI613
aI2534
aI3815
aI3312
aI6777
atRp1124
sVDCC0337
p1125
g3
((lp1126
I5033
aI8639
atRp1127
sVDCC0336
p1128
g3
((lp1129
I5156
aI3815
aI5159
aI3791
aI2321
aI2322
aI2324
aI1436
atRp1130
sVDCC1541
p1131
g3
((lp1132
I3362
aI3358
aI3350
aI1128
aI1129
aI3351
aI151
aI146
aI147
aI1812
aI1813
aI1814
aI1815
aI1816
aI148
aI3354
aI3356
aI150
aI3269
atRp1133
sVDCC0334
p1134
g3
((lp1135
I1786
atRp1136
sVDCC0325
p1137
g3
((lp1138
I8856
aI4843
aI2908
aI301
aI190
atRp1139
sVDCC1577
p1140
g3
((lp1141
I10016
aI6273
aI1356
aI805
aI775
aI6280
aI652
aI6279
aI6284
aI6285
aI808
aI7125
aI6711
aI27032
aI250
aI26
aI831
aI801
aI7134
aI1311
atRp1142
sVDCC1574
p1143
g3
((lp1144
I2932
aI2892
aI3613
aI3612
atRp1145
sVDCC1644
p1146
g3
((lp1147
I8972
atRp1148
sVDCC1098
p1149
g3
((lp1150
I9900
atRp1151
sVDCC0244
p1152
g3
((lp1153
I5241
aI2099
aI367
atRp1154
sVDCC0243
p1155
g3
((lp1156
I4985
aI4988
atRp1157
sVDCC1641
p1158
g3
((lp1159
I153
aI154
atRp1160
sVDCC0241
p1161
g3
((lp1162
I3269
atRp1163
sVDCC1546
p1164
g3
((lp1165
I3362
aI150
aI1128
aI1129
aI3351
aI151
aI1814
aI147
aI1812
aI1813
aI3350
aI1815
aI1816
aI148
aI3354
aI3356
aI3358
aI3269
atRp1166
sVDCC0331
p1167
g3
((lp1168
I5972
atRp1169
sVDCC1097
p1170
g3
((lp1171
I10499
aI2852
aI8678
aI8856
aI1137
aI2099
aI2100
aI2104
aI4508
atRp1172
sVDCC0248
p1173
g3
((lp1174
I3269
atRp1175
sVDCC1542
p1176
g3
((lp1177
I462
aI2159
atRp1178
sVDCC0258
p1179
g3
((lp1180
I9568
aI774
aI9254
aI781
aI2550
aI116444
aI134
atRp1181
sVDCC0039
p1182
g3
((lp1183
I134
aI135
aI136
aI26140
aI8654
aI8904
aI5139
aI142
aI5142
aI3066
aI23420
aI81502
aI5141
atRp1184
sVDCC1165
p1185
g3
((lp1186
I3454
aI3455
atRp1187
sVDCC1164
p1188
g3
((lp1189
I6752
aI6755
aI6751
atRp1190
sVDCC1166
p1191
g3
((lp1192
I5020
atRp1193
sVDCC1567
p1194
g3
((lp1195
I3643
atRp1196
sVDCC1160
p1197
g3
((lp1198
I2492
aI3973
atRp1199
sVDCC1162
p1200
g3
((lp1201
I1441
aI1991
atRp1202
sVDCC1488
p1203
g3
((lp1204
I8856
atRp1205
sVDCC1367
p1206
g3
((lp1207
I1128
aI1129
aI6530
aI6532
aI3356
atRp1208
sVDCC1363
p1209
g3
((lp1210
I2224
atRp1211
sVDCC1361
p1212
g3
((lp1213
I146
aI147
aI148
atRp1214
sVDCC0148
p1215
g3
((lp1216
I5156
aI5159
aI3815
aI780
aI4914
aI25
aI1436
atRp1217
sVDCC0149
p1218
g3
((lp1219
I2908
atRp1220
sVDCC0145
p1221
g3
((lp1222
I153
aI154
atRp1223
sVDCC0146
p1224
g3
((lp1225
I3176
atRp1226
sVDCC0147
p1227
g3
((lp1228
I7184
aI3320
atRp1229
sVDCC0140
p1230
g3
((lp1231
I2908
atRp1232
sVDCC0141
p1233
g3
((lp1234
I8913
atRp1235
sVDCC0142
p1236
g3
((lp1237
I6337
aI6338
aI6339
aI6340
aI40
aI41
aI5328
aI6548
atRp1238
sVDCC0156
p1239
g3
((lp1240
I3290
aI2908
atRp1241
sVDCC1525
p1242
g3
((lp1243
I7153
atRp1244
sVDCC0932
p1245
g3
((lp1246
I142
aI10038
aI10039
atRp1247
sVDCC1502
p1248
g3
((lp1249
I801
aI805
aI775
aI776
aI8856
aI779
aI781
aI783
aI808
aI3736
atRp1250
sVDCC1501
p1251
g3
((lp1252
I10846
aI5142
atRp1253
sVDCC1505
p1254
g3
((lp1255
I7422
atRp1256
sVDCC0665
p1257
g3
((lp1258
I2099
aI2100
atRp1259
sVDCC1509
p1260
g3
((lp1261
I3091
aI2697
aI3757
aI4879
aI3761
aI146
aI147
aI148
aI150
aI151
aI153
aI7412
aI154
aI7422
atRp1262
sVDCC1508
p1263
g3
((lp1264
I367
atRp1265
sVDCC1267
p1266
g3
((lp1267
I5004
aI367
aI4306
aI2099
aI8856
aI5241
aI4986
aI2908
aI6462
atRp1268
sVDCC1468
p1269
g3
((lp1270
I3251
aI5879
atRp1271
sVDCC0467
p1272
g3
((lp1273
I6261
aI6262
atRp1274
sVDCC1465
p1275
g3
((lp1276
I43
aI590
atRp1277
sVDCC1830
p1278
g3
((lp1279
I768
aI3778
aI771
aI759
aI760
aI762
aI476
aI6557
atRp1280
sVDCC0463
p1281
g3
((lp1282
I3269
atRp1283
sVDCC1461
p1284
g3
((lp1285
I5914
atRp1286
sVDCC0460
p1287
g3
((lp1288
I1813
atRp1289
sVDCC0818
p1290
g3
((lp1291
I2932
aI2892
aI3613
aI3612
atRp1292
sVDCC1860
p1293
g3
((lp1294
I760
aI1499
aI383
atRp1295
sVDCC0061
p1296
g3
((lp1297
I196
aI495
atRp1298
sVDCC0060
p1299
g3
((lp1300
I153
aI154
atRp1301
sVDCC0067
p1302
g3
((lp1303
I203068
atRp1304
sVDCC0066
p1305
g3
((lp1306
I3040
aI135
aI3039
atRp1307
sVDCC1205
p1308
g3
((lp1309
I146
aI147
aI148
atRp1310
sVDCC0064
p1311
g3
((lp1312
I786
atRp1313
sVDCC0069
p1314
g3
((lp1315
I3351
aI3362
aI3350
aI2950
aI50632
aI1129
aI151
aI1128
aI3358
aI147
aI1812
aI1813
aI1814
aI1815
aI148
aI3354
aI3356
aI150
aI3269
atRp1316
sVDCC0431
p1317
g3
((lp1318
I873
aI5468
aI7421
aI2950
aI10057
atRp1319
sVDCC0364
p1320
g3
((lp1321
I1024
aI1025
aI1956
aI5834
aI5836
aI5837
aI983
aI1017
aI1019
aI1020
aI1021
aI1022
atRp1322
sVDCC0209
p1323
g3
((lp1324
I2560
aI2561
aI2562
aI2563
aI2565
aI2566
aI2567
aI2569
aI2570
aI2554
aI2555
aI2556
atRp1325
sVDCC0361
p1326
g3
((lp1327
I8841
aI3066
aI10013
aI55869
aI3065
atRp1328
sVDCC1218
p1329
g3
((lp1330
I3351
aI3362
aI3350
aI1128
aI1129
aI151
aI1814
aI147
aI1812
aI1813
aI150
aI1815
aI1816
aI148
aI3354
aI3356
aI3358
aI3269
atRp1331
sVDCC0203
p1332
g3
((lp1333
I22978
aI3614
aI3615
atRp1334
sVDCC1601
p1335
g3
((lp1336
I54106
aI51284
atRp1337
sVDCC0201
p1338
g3
((lp1339
I3784
aI3753
atRp1340
sVDCC0207
p1341
g3
((lp1342
I5241
aI2099
atRp1343
sVDCC0206
p1344
g3
((lp1345
I2561
aI2562
aI6325
aI6326
aI6329
atRp1346
sVDCC1210
p1347
g3
((lp1348
I773
atRp1349
sVDCC1590
p1350
g3
((lp1351
I4985
aI1066
aI4988
aI4986
atRp1352
sVDCC1593
p1353
g3
((lp1354
I148
aI6530
aI6531
aI147
aI6571
atRp1355
sVDCC1594
p1356
g3
((lp1357
I9971
aI1646
atRp1358
sVDCC1595
p1359
g3
((lp1360
I1128
aI1129
atRp1361
sVDCC1693
p1362
g3
((lp1363
I941
aI942
atRp1364
sVDCC1692
p1365
g3
((lp1366
I7124
atRp1367
sVDCC1207
p1368
g3
((lp1369
I1128
aI148
aI3269
aI3358
atRp1370
sVDCC1690
p1371
g3
((lp1372
I2740
atRp1373
sVDCC1699
p1374
g3
((lp1375
I5241
aI213
aI367
atRp1376
sVDCC1285
p1377
g3
((lp1378
I150
aI3757
aI146
aI147
aI148
aI90134
aI151
atRp1379
sVDCC1227
p1380
g3
((lp1381
I2147
atRp1382
sVDCC1736
p1383
g3
((lp1384
I5228
aI7422
aI7423
atRp1385
sVDCC1737
p1386
g3
((lp1387
I5696
aI5698
aI5699
aI5689
aI5690
aI5693
atRp1388
sVDCC1046
p1389
g3
((lp1390
I2159
atRp1391
sVDCC1733
p1392
g3
((lp1393
I1723
atRp1394
sVDCC0204
p1395
g3
((lp1396
I4985
aI4986
aI4988
atRp1397
sVDCC1412
p1398
g3
((lp1399
I153
aI154
aI2099
atRp1400
sVDCC0849
p1401
g3
((lp1402
I5104
aI2147
aI2153
aI1356
aI2157
aI10544
aI7056
aI5269
aI5627
aI5054
aI2677
atRp1403
sVDCC1284
p1404
g3
((lp1405
I6530
aI6531
aI6532
aI1066
aI2902
aI2903
aI2904
aI2905
aI4986
aI4988
aI2906
atRp1406
sVDCC0247
p1407
g3
((lp1408
I185
aI5468
atRp1409
sVDCC1329
p1410
g3
((lp1411
I89832
aI2891
aI1137
aI2898
aI1139
aI2166
aI2554
aI2555
aI2556
aI2557
aI2559
atRp1412
sVDCC1328
p1413
g3
((lp1414
I153
aI154
aI146
atRp1415
sVDCC1282
p1416
g3
((lp1417
I148
aI1813
atRp1418
sVDCC0246
p1419
g3
((lp1420
I6336
atRp1421
sVDCC1224
p1422
g3
((lp1423
I2936
atRp1424
sVDCC1321
p1425
g3
((lp1426
I7283
aI203068
aI51174
aI7846
aI3725
atRp1427
sVDCC0240
p1428
g3
((lp1429
I53632
aI1645
aI5742
aI3309
aI7157
aI4790
aI1909
aI4792
aI5743
aI6197
aI3551
atRp1430
sVDCC1138
p1431
g3
((lp1432
I2209
aI2212
aI2213
aI2214
aI2215
aI712
aI713
aI714
aI715
aI716
aI9103
aI945
atRp1433
sVDCC1136
p1434
g3
((lp1435
I2690
aI5618
atRp1436
sVDCC1137
p1437
g3
((lp1438
I2209
aI2212
aI2213
aI2214
aI2215
aI712
aI713
aI714
aI715
aI716
aI9103
aI7448
aI3674
aI3690
atRp1439
sVDCC1135
p1440
g3
((lp1441
I3973
aI2798
atRp1442
sVDCC1132
p1443
g3
((lp1444
I3480
aI3643
atRp1445
sVDCC1133
p1446
g3
((lp1447
I3480
aI3643
atRp1448
sVDCC1649
p1449
g3
((lp1450
I136
aI134
aI135
atRp1451
sVDCC1849
p1452
g3
((lp1453
I3269
atRp1454
sVDCC0249
p1455
g3
((lp1456
I1644
aI150
atRp1457
sVDCC0048
p1458
g3
((lp1459
I36
aI9734
aI4967
aI7915
aI18
aI5465
aI3066
aI5467
aI5468
atRp1460
sVDCC1436
p1461
g3
((lp1462
I768
aI4129
aI771
aI8913
aI761
aI8911
aI23632
aI6328
aI6323
aI6325
aI6326
aI759
aI760
aI6329
aI762
aI6331
aI765
aI767
atRp1463
sVDCC1422
p1464
g3
((lp1465
I153
aI154
atRp1466
sVDCC1423
p1467
g3
((lp1468
I552
aI554
atRp1469
sVDCC1424
p1470
g3
((lp1471
I2099
aI6462
atRp1472
sVDCC1425
p1473
g3
((lp1474
I2224
atRp1475
sVDCC1811
p1476
g3
((lp1477
I153
aI154
atRp1478
sVDCC1810
p1479
g3
((lp1480
I3269
atRp1481
sVDCC1813
p1482
g3
((lp1483
I1604
atRp1484
sVDCC1812
p1485
g3
((lp1486
I3269
atRp1487
sVDCC1814
p1488
g3
((lp1489
I760
aI762
aI6559
aI759
atRp1490
sVDCC0032
p1491
g3
((lp1492
I8856
aI6328
aI6323
aI6331
atRp1493
sVDCC1816
p1494
g3
((lp1495
I6571
atRp1496
sVDCC0332
p1497
g3
((lp1498
I2064
aI1956
atRp1499
sVDCC1846
p1500
g3
((lp1501
I6559
atRp1502
sVDCC0875
p1503
g3
((lp1504
I10060
atRp1505
sVDCC0100
p1506
g3
((lp1507
I1163
aI6532
aI3757
aI3358
atRp1508
sVDCC0103
p1509
g3
((lp1510
I8600
aI51185
aI1003
aI5743
atRp1511
sVDCC0104
p1512
g3
((lp1513
I5272
aI2099
aI2100
aI7031
atRp1514
sVDCC1844
p1515
g3
((lp1516
I6323
atRp1517
sVDCC0106
p1518
g3
((lp1519
I150
aI151
atRp1520
sVDCC0107
p1521
g3
((lp1522
I7153
atRp1523
sVDCC0109
p1524
g3
((lp1525
I1636
atRp1526
sVDCC0042
p1527
g3
((lp1528
I5241
aI2099
atRp1529
sVDCC1399
p1530
g3
((lp1531
I38
aI5319
aI23657
aI5742
aI5743
aI240
aI1147
aI5468
aI3551
atRp1532
sVDCC1614
p1533
g3
((lp1534
I552
aI554
atRp1535
sVDCC1393
p1536
g3
((lp1537
I5241
aI2908
atRp1538
sVDCC1259
p1539
g3
((lp1540
I6571
aI146
aI147
aI148
aI150
aI151
aI153
aI154
aI5053
atRp1541
sVDCC1258
p1542
g3
((lp1543
I1128
aI9970
aI3269
atRp1544
sVDCC1396
p1545
g3
((lp1546
I3690
aI3674
atRp1547
sVDCC1395
p1548
g3
((lp1549
I5731
atRp1550
sVDCC0081
p1551
g3
((lp1552
I3269
atRp1553
sVDCC0080
p1554
g3
((lp1555
I2224
aI9453
atRp1556
sVDCC0083
p1557
g3
((lp1558
I7010
atRp1559
sVDCC0082
p1560
g3
((lp1561
I2182
aI6256
aI6257
aI6258
aI5465
aI5467
aI5468
atRp1562
sVDCC1491
p1563
g3
((lp1564
I1128
aI1129
atRp1565
sVDCC1559
p1566
g3
((lp1567
I154
atRp1568
sVDCC1493
p1569
g3
((lp1570
I4835
aI3855
atRp1571
sVDCC0738
p1572
g3
((lp1573
I154
atRp1574
sVDCC0089
p1575
g3
((lp1576
I1813
atRp1577
sVDCC0088
p1578
g3
((lp1579
I7298
atRp1580
sVDCC0322
p1581
g3
((lp1582
I3066
aI5139
aI134
atRp1583
sVDCC0323
p1584
g3
((lp1585
I81027
aI4133
aI4134
aI4137
aI596
aI8856
atRp1586
sVDCC1498
p1587
g3
((lp1588
I6531
aI6532
atRp1589
sVDCC0326
p1590
g3
((lp1591
I1816
aI1812
aI1813
aI1814
aI1815
atRp1592
sVDCC0327
p1593
g3
((lp1594
I513
aI2890
aI27032
aI4535
aI3736
aI2554
atRp1595
sVDCC1624
p1596
g3
((lp1597
I54963
aI1806
atRp1598
sVDCC1555
p1599
g3
((lp1600
I1956
atRp1601
sVDCC1615
p1602
g3
((lp1603
I3939
aI683
aI142
atRp1604
sVDCC0378
p1605
g3
((lp1606
I3065
atRp1607
sVDCC1556
p1608
g3
((lp1609
I7422
atRp1610
sVDCC0254
p1611
g3
((lp1612
I1128
atRp1613
sVDCC0255
p1614
g3
((lp1615
I153
aI154
atRp1616
sVDCC0920
p1617
g3
((lp1618
I5742
aI5743
atRp1619
sVDCC0257
p1620
g3
((lp1621
I7852
aI846
atRp1622
sVDCC0250
p1623
g3
((lp1624
I6646
atRp1625
sVDCC0251
p1626
g3
((lp1627
I1827
aI100
aI5004
aI8654
aI5141
aI10846
atRp1628
sVDCC1677
p1629
g3
((lp1630
I5745
atRp1631
sVDCC1676
p1632
g3
((lp1633
I3570
atRp1634
sVDCC1679
p1635
g3
((lp1636
I3356
aI1813
aI1814
atRp1637
sVDCC1678
p1638
g3
((lp1639
I2475
atRp1640
sVDCC0885
p1641
g3
((lp1642
I1803
atRp1643
sVDCC0259
p1644
g3
((lp1645
I7153
aI9221
atRp1646
sVDCC0887
p1647
g3
((lp1648
I7421
atRp1649
sVDCC0886
p1650
g3
((lp1651
I8200
aI5645
aI51181
aI2760
aI2643
aI6035
aI7124
aI54
aI55256
aI9588
aI7919
aI5320
aI191
atRp1652
sVDCC1238
p1653
g3
((lp1654
I6336
atRp1655
sVDCC0520
p1656
g3
((lp1657
I596
atRp1658
sVDCC0132
p1659
g3
((lp1660
I8856
aI1137
aI6331
aI1141
atRp1661
sVDCC1241
p1662
g3
((lp1663
I5241
aI2099
atRp1664
sVDCC0349
p1665
g3
((lp1666
I1800
atRp1667
sVDCC1242
p1668
g3
((lp1669
I6256
aI6257
aI6258
atRp1670
sVDCC1172
p1671
g3
((lp1672
I384
aI4843
aI113451
aI6541
aI4846
aI435
aI445
atRp1673
sVDCC0640
p1674
g3
((lp1675
I2209
aI931
aI2212
aI2213
aI2214
aI2215
aI712
aI713
aI714
aI715
aI716
aI9103
atRp1676
sVDCC1244
p1677
g3
((lp1678
I89832
aI2556
aI2891
aI1137
aI2898
aI1139
aI8856
aI2554
aI2555
aI116444
aI2557
aI2559
atRp1679
sVDCC1245
p1680
g3
((lp1681
I7298
atRp1682
sVDCC1374
p1683
g3
((lp1684
I5468
atRp1685
sVDCC1376
p1686
g3
((lp1687
I3269
aI1815
aI1814
aI147
aI148
aI1813
aI3350
aI151
aI1812
aI3358
aI3356
aI150
atRp1688
sVDCC1377
p1689
g3
((lp1690
I495
atRp1691
sVDCC1370
p1692
g3
((lp1693
I6336
aI4129
aI6531
aI116443
atRp1694
sVDCC1372
p1695
g3
((lp1696
I4881
atRp1697
sVDCC1247
p1698
g3
((lp1699
I4985
aI4986
aI4988
atRp1700
sVDCC1234
p1701
g3
((lp1702
I3978
aI3980
atRp1703
sVDCC0171
p1704
g3
((lp1705
I8856
aI79001
atRp1706
sVDCC0173
p1707
g3
((lp1708
I3614
aI3615
atRp1709
sVDCC0175
p1710
g3
((lp1711
I6530
aI3350
aI3351
aI146
aI147
aI148
aI1813
aI150
aI151
aI1816
aI3356
aI3357
aI3358
atRp1712
sVDCC0174
p1713
g3
((lp1714
I760
aI6557
atRp1715
sVDCC0177
p1716
g3
((lp1717
I4985
aI4986
aI4988
atRp1718
sVDCC1569
p1719
g3
((lp1720
I3643
atRp1721
sVDCC1161
p1722
g3
((lp1723
I3683
aI3140
aI2213
aI3688
aI3690
aI909
aI942
aI9103
aI920
aI7449
aI3685
atRp1724
s.