(dp1
VDCC0777
p2
c__builtin__
set
p3
((lp4
VCN(C1=CC2=NN(C)C(C)=C2C=C1)C1=CC=NC(NC2=CC=C(C)C(=C2)S(N)(=O)=O)=N1
p5
atRp6
sVDCC1515
p7
g3
((lp8
VCNCCCN1C2=CC=CC=C2CCC2=CC=CC=C12
p9
atRp10
sVDCC1459
p11
g3
((lp12
VCN1CCCC(CC1)N1N=C(CC2=CC=C(Cl)C=C2)C2=CC=CC=C2C1=O
p13
atRp14
sVDCC1450
p15
g3
((lp16
V[H][C@@]12CC[C@H](O)[C@@]1(C)CC[C@@]1([H])C2[C@H](CCCCCCCCCS(=O)CCCC(F)(F)C(F)(F)F)CC2=CC(O)=CC=C12
p17
atRp18
sVDCC1455
p19
g3
((lp20
VCC(C)NCC(O)COC1=CC=CC2=C1C=CN2
p21
atRp22
sVDCC1454
p23
g3
((lp24
V[H][C@@]12CC[C@](O)(C(=O)CO)[C@@]1(C)C[C@H](O)[C@@]1([H])[C@@]2([H])C[C@H](C)C2=CC(=O)C=C[C@]12C
p25
atRp26
sVDCC0070
p27
g3
((lp28
V[H][C@@]12CC[C@@](O)(C#C)[C@@]1(CC)CC[C@]1([H])[C@@]3([H])CCC(=O)C=C3CC[C@@]21[H]
p29
atRp30
sVDCC0071
p31
g3
((lp32
VCCCC(C)(COC(N)=O)COC(N)=O
p33
atRp34
sVDCC0072
p35
g3
((lp36
V[H][C@](O)(CNC(C)(C)C)COC1=NSN=C1N1CCOCC1
p37
atRp38
sVDCC0073
p39
g3
((lp40
VCCOC(=O)C1=C(COCCN)NC(C)=C(C1C1=CC=CC=C1Cl)C(=O)OC
p41
atRp42
sVDCC0074
p43
g3
((lp44
VNC1=NC(N)=C2N=C(C(N)=NC2=N1)C1=CC=CC=C1
p45
atRp46
sVDCC1858
p47
g3
((lp48
VN[C@@H](CC1=CC=C(O)C=C1)C(O)=O
p49
atRp50
sVDCC0076
p51
g3
((lp52
VCOCCOC(=O)C1=C(C)NC(C)=C(C1C1=CC(=CC=C1)[N+]([O-])=O)C(=O)OC(C)C
p53
atRp54
sVDCC0077
p55
g3
((lp56
V[H][C@@]12C[C@H](C)[C@](OC(=O)CC)(C(=O)COC(=O)CC)[C@@]1(C)C[C@H](O)[C@@]1(Cl)[C@@]2([H])CCC2=CC(=O)C=C[C@]12C
p57
atRp58
sVDCC0078
p59
g3
((lp60
VCCCC(C)(COC(N)=O)COC(=O)NC(C)C
p61
atRp62
sVDCC0079
p63
g3
((lp64
VCNC(=O)C1=NC=CC(OC2=CC=C(NC(=O)NC3=CC(=C(Cl)C=C3)C(F)(F)F)C=C2)=C1
p65
atRp66
sVDCC1857
p67
g3
((lp68
V[H][C@@]12CN(C[C@]1([H])[C@H]2N)C1=NC2=C(C=C1F)C(=O)C(=CN2C1=C(F)C=C(F)C=C1)C(O)=O
p69
atRp70
sVDCC1856
p71
g3
((lp72
VNS(=O)(=O)C1=C(Cl)C=C2NC(NS(=O)(=O)C2=C1)C(Cl)Cl
p73
atRp74
sVDCC1850
p75
g3
((lp76
VCCC1NC(=O)C2=CC(=C(Cl)C=C2N1)S(N)(=O)=O
p77
atRp78
sVDCC1852
p79
g3
((lp80
V[H][C@]12C[C@@H](OC(=O)C3=CC(OC)=C(OC)C(OC)=C3)[C@H](OC)[C@@H](C(=O)OC)[C@@]1([H])C[C@@]1([H])N(CCC3=C1NC1=C3C=CC(OC)=C1)C2
p81
atRp82
sVDCC1637
p83
g3
((lp84
V[H][C@@](CCN1[C@@]2([H])CC[C@]1([H])C[C@]([H])(C2)N1C(C)=NN=C1C(C)C)(N=C(O)C1CCC(F)(F)CC1)C1=CC=CC=C1
p85
atRp86
sVDCC1639
p87
g3
((lp88
V[H][C@]12C[C@H](NC(=O)C[C@H](O)C(C)(C)C(=O)[C@H](C)[C@@H](O)[C@@H](C)CCC[C@@]1(C)O2)C(\u005cC)=C\u005cC1=CSC(C)=N1
p89
atRp90
sVDCC0218
p91
g3
((lp92
VCO[C@@H]1C[C@@H](CC[C@H]1O)\u005cC=C(/C)[C@H]1OC(=O)[C@@H]2CCCCN2C(=O)C(=O)[C@]2(O)O[C@@H]([C@H](C[C@H]2C)OC)[C@H](C[C@@H](C)C\u005cC(C)=C\u005c[C@@H](CC=C)C(=O)C[C@H](O)[C@H]1C)OC
p93
atRp94
sVDCC0219
p95
g3
((lp96
VCCN[C@H]1C[C@H](C)S(=O)(=O)C2=C1C=C(S2)S(N)(=O)=O
p97
atRp98
sVDCC0355
p99
g3
((lp100
VOC1=CC=C(C=C1)C1=COC2=C(C(O)=CC(O)=C2)C1=O
p101
atRp102
sVDCC0354
p103
g3
((lp104
VCN(C)CCC(C1=CC=CC=C1)C1=CC=CC=N1
p105
atRp106
sVDCC0357
p107
g3
((lp108
VCC1=CC2=C(C=C1C1(CC1)C1=CC=C(C=N1)C(O)=O)C(C)(C)CCC2(C)C
p109
atRp110
sVDCC1204
p111
g3
((lp112
V[H][C@]12CC[C@]([H])(C[C@@H](C1)OC(=O)C(O)(C1=CC=CC=C1)C1=CC=CC=C1)[N+]21CCCC1
p113
atRp114
sVDCC0358
p115
g3
((lp116
VO[C@H](\u005cC=C\u005c[C@@H](C)[C@@]1([H])CC[C@@]2([H])\u005cC(CCC[C@]12C)=C\u005cC=C1\u005cC[C@@H](O)C[C@H](O)C1=C)C1CC1
p117
atRp118
sVDCC0213
p119
g3
((lp120
VOCCN1CCN(CCCN2C3=CC=CC=C3SC3=C2C=C(Cl)C=C3)CC1
p121
atRp122
sVDCC0214
p123
g3
((lp124
VCN[C@@H](C)[C@@H](O)C1=CC=CC=C1
p125
atRp126
sVDCC0216
p127
g3
((lp128
V[H][C@@]12CC[C@](O)(C(=O)CO)[C@@]1(C)C[C@H](O)[C@@]1([H])[C@@]2([H])CCC2=CC(=O)C=C[C@]12C
p129
atRp130
sVDCC0217
p131
g3
((lp132
VCN\u005cC(NCCSCC1=CC=C(CN(C)C)O1)=C/[N+]([O-])=O
p133
atRp134
sVDCC0283
p135
g3
((lp136
VCCOC(=O)C1=C(C)NC(C)=C(C1C1=CC(=CC=C1)[N+]([O-])=O)C(=O)OC
p137
atRp138
sVDCC0282
p139
g3
((lp140
VCC(C)CC1=CC=C(C=C1)C(C)C(O)=O
p141
atRp142
sVDCC0280
p143
g3
((lp144
VCO[C@H]1\u005cC=C\u005cO[C@@]2(C)OC3=C(C2=O)C2=C(O)C(\u005cC=N\u005cN4CCN(C)CC4)=C(NC(=O)\u005cC(C)=C/C=C/[C@H](C)[C@H](O)[C@@H](C)[C@@H](O)[C@@H](C)[C@H](OC(C)=O)[C@@H]1C)C(O)=C2C(O)=C3C
p145
atRp146
sVDCC0287
p147
g3
((lp148
VCC(CN1C2=CC=CC=C2SC2=CC=CC=C12)N(C)C
p149
atRp150
sVDCC0286
p151
g3
((lp152
VCC1=CN=C(C=N1)C(=O)NCCC1=CC=C(C=C1)S(=O)(=O)NC(=O)NC1CCCCC1
p153
atRp154
sVDCC1686
p155
g3
((lp156
VCOC1=CC=C(C=C1)N1N=C(C(N)=O)C2=C1C(=O)N(CC2)C1=CC=C(C=C1)N1CCCCC1=O
p157
atRp158
sVDCC1687
p159
g3
((lp160
VCOC1=CC(NC2=C(C=NC3=CC(OCCCN4CCN(C)CC4)=C(OC)C=C23)C#N)=C(Cl)C=C1Cl
p161
atRp162
sVDCC1688
p163
g3
((lp164
V[H]\u005cC(=C(\u005c[H])C1=CC=CC=N1)C1=C2C=CC(SC3=CC=CC=C3C(O)=NC)=CC2=NN1
p165
atRp166
sVDCC0289
p167
g3
((lp168
VCN(C)CCOC(C1=CC=CC=C1)C1=CC=CC=C1
p169
atRp170
sVDCC0288
p171
g3
((lp172
VNC1=NC(F)=NC2=C1N=CN2[C@@H]1O[C@H](CO)[C@@H](O)[C@@H]1O
p173
atRp174
sVDCC1722
p175
g3
((lp176
VCCOC1=NC2=C(N1CC1=CC=C(C=C1)C1=CC=CC=C1C1=NOC(=O)N1)C(=CC=C2)C(=O)OCC1=C(C)OC(=O)O1
p177
atRp178
sVDCC1422
p179
g3
((lp180
VCC(C)(C)NCC(O)C1=CC(O)=CC(O)=C1
p181
atRp182
sVDCC1707
p183
g3
((lp184
V[H][C@@](O)([C@@H](NC(=O)OC(C)(C)C)C1=CC=CC=C1)C(=O)O[C@@]1([H])C[C@@]2(O)[C@@]([H])(OC(=O)C3=CC=CC=C3)[C@]3([H])[C@@]4(CO[C@]4([H])C[C@]([H])(OC)[C@@]3(C)C(=O)[C@]([H])(OC)C(=C1C)C2(C)C)OC(C)=O
p185
atRp186
sVDCC1424
p187
g3
((lp188
VCCN(CC)CCOC1=CC=C(C=C1)C(=C(Cl)C1=CC=CC=C1)C1=CC=CC=C1
p189
atRp190
sVDCC0039
p191
g3
((lp192
VCN1C2=C(NC=N2)C(=O)N(C)C1=O
p193
atRp194
sVDCC1338
p195
g3
((lp196
VNC1=C2N=CN([C@@H]3O[C@H](CO)[C@@H](O)[C@H]3O)C2=NC=N1
p197
atRp198
sVDCC1339
p199
g3
((lp200
VCOC(=O)NC1=NC2=C(N1)C=C(C=C2)C(=O)C1=CC=CC=C1
p201
atRp202
sVDCC1330
p203
g3
((lp204
VCO[C@H]1C[C@@H](O[C@@H](C)[C@@H]1O)O[C@H]1[C@H](C)O[C@H](C[C@@H]1OC)O[C@H]1[C@@H](C)\u005cC=C\u005cC=C2/CO[C@@H]3[C@H](O)C(C)=C[C@@H](C(=O)O[C@H]4C[C@@H](C\u005cC=C1/C)O[C@@]1(CC[C@H](C)[C@@H](C(C)C)O1)C4)[C@]23O.CC[C@@H](C)[C@H]1O[C@@]2(CC[C@@H]1C)O[C@@H]1C\u005cC=C(C)\u005c[C@@
p205
atRp206
sVDCC1333
p207
g3
((lp208
VCCN(CC)CCCC(C)NC1=C2C=CC(Cl)=CC2=NC=C1
p209
atRp210
sVDCC1335
p211
g3
((lp212
V[H][C@@]12CC[C@](C)(O)[C@@]1(C)CC[C@@]1([H])[C@@]2([H])CCC2=CC(=O)CC[C@]12C
p213
atRp214
sVDCC1336
p215
g3
((lp216
VNCCCC(O)(P(O)(O)=O)P(O)(O)=O
p217
atRp218
sVDCC1813
p219
g3
((lp220
VOC[C@@H](NC(=O)C(Cl)Cl)[C@H](O)C1=CC=C(C=C1)[N+]([O-])=O
p221
atRp222
sVDCC1812
p223
g3
((lp224
VCN(C)CCOC(C1=CC=CC=C1)C1=CC=C(Br)C=C1
p225
atRp226
sVDCC0271
p227
g3
((lp228
VCC[C@@]1(O)C(=O)OCC2=C1C=C1N(CC3=CC4=C(C=CC(O)=C4CN(C)C)N=C13)C2=O
p229
atRp230
sVDCC0885
p231
g3
((lp232
VCC#CCN1C(=NC2=C1C(=O)N(CC1=NC3=C(C=CC=C3)C(C)=N1)C(=O)N2C)N1CCC[C@@H](N)C1
p233
atRp234
sVDCC1814
p235
g3
((lp236
VNS(=O)(=O)C1=C(Cl)C=C2NC=NS(=O)(=O)C2=C1
p237
atRp238
sVDCC1816
p239
g3
((lp240
V[H][C@]12C[C@@H](OC(=O)C3=CC(OC)=C(OC)C(OC)=C3)[C@H](OC)[C@@H](C(=O)OC)[C@@]1([H])C[C@@]1([H])N(CCC3=C1NC1=CC=CC=C31)C2
p241
atRp242
sVDCC0431
p243
g3
((lp244
VCOC1=CC(\u005cC=C\u005cC(=O)CC(=O)\u005cC=C\u005cC2=CC(OC)=C(O)C=C2)=CC=C1O
p245
atRp246
sVDCC0435
p247
g3
((lp248
VOC(=O)C1=CC(=O)C2=CC=CC=C2N1
p249
atRp250
sVDCC1414
p251
g3
((lp252
VCOC1=C(OC)C=C2C(=O)C(CC3CCN(CC4=CC=CC=C4)CC3)CC2=C1
p253
atRp254
sVDCC1417
p255
g3
((lp256
VCN(C)\u005cN=N\u005cC1=C(N=CN1)C(N)=O
p257
atRp258
sVDCC1411
p259
g3
((lp260
V[H][C@@]12CC[C@@](O)(C#CC)[C@@]1(C)C[C@H](C1=CC=C(C=C1)N(C)C)C1=C3CCC(=O)C=C3CC[C@@]21[H]
p261
atRp262
sVDCC1412
p263
g3
((lp264
VCC(CCC1=CC=C(O)C=C1)NCCC1=CC(O)=C(O)C=C1
p265
atRp266
sVDCC0139
p267
g3
((lp268
V[H][C@@]12C[C@@H](C)[C@](OC(=O)CC)(C(=O)SCF)[C@@]1(C)C[C@H](O)[C@@]1(F)[C@@]2([H])C[C@H](F)C2=CC(=O)C=C[C@]12C
p269
atRp270
sVDCC1659
p271
g3
((lp272
VO.O.O.O.O.O.O.O.O.[Na+].[Na+].[Na+].[H][C@@]1(O[Sb]2(O)(O[Sb]34([O-])O[C@@H](C([O-])=O)[C@@]([H])(O3)[C@]([H])(O4)[C@H](O)CO)O[C@@H](C([O-])=O)[C@@]1([H])O2)[C@H](O)CO
p273
atRp274
sVDCC0135
p275
g3
((lp276
VCN1[C@H]2CC[C@@H]1C[C@@H](C2)OC(=O)C(CO)C1=CC=CC=C1
p277
atRp278
sVDCC0134
p279
g3
((lp280
VCC(C)NCC(O)COC1=CC=CC2=CC=CC=C12
p281
atRp282
sVDCC0137
p283
g3
((lp284
VCCOC(=O)[C@H](CCC1=CC=CC=C1)N[C@@H](C)C(=O)N1CCC[C@H]1C(O)=O
p285
atRp286
sVDCC0136
p287
g3
((lp288
VClC1=CC=CC(Cl)=C1NC1=NCCN1
p289
atRp290
sVDCC0146
p291
g3
((lp292
VCCN(CC)CC1=C(O)C=CC(NC2=C3C=CC(Cl)=CC3=NC=C2)=C1
p293
atRp294
sVDCC0075
p295
g3
((lp296
VCNC[C@H](O)C1=CC(O)=CC=C1
p297
atRp298
sVDCC0315
p299
g3
((lp300
VC[C@H](CS)C(=O)N1CCC[C@H]1C(O)=O
p301
atRp302
sVDCC0314
p303
g3
((lp304
VCCN[C@H]1CN(CCCOC)S(=O)(=O)C2=C1C=C(S2)S(N)(=O)=O
p305
atRp306
sVDCC0317
p307
g3
((lp308
VCC(C)(C)NCC(O)COC1=CC=CC2=C1C[C@H](O)[C@H](O)C2
p309
atRp310
sVDCC0316
p311
g3
((lp312
VCC[C@H](N1CCCC1=O)C(N)=O
p313
atRp314
sVDCC0311
p315
g3
((lp316
VClCCNP1(=O)OCCCN1CCCl
p317
atRp318
sVDCC0310
p319
g3
((lp320
VCN(C)CCOC(C1=CC=CC=C1)C1=CC=CC=C1C
p321
atRp322
sVDCC1246
p323
g3
((lp324
V[H][C@@]12CC[C@](O)(C(C)=O)[C@@]1(C)C[C@H](O)[C@@]1(F)[C@@]2([H])C[C@H](C)C2=CC(=O)C=C[C@]12C
p325
atRp326
sVDCC0312
p327
g3
((lp328
VOC1=CC=C2C[C@H]3N(CC=C)CC[C@@]45[C@@H](OC1=C24)C(=O)CC[C@@]35O
p329
atRp330
sVDCC1249
p331
g3
((lp332
V[H][C@]1(CC[C@H](Cl)[C@@H](C1)OC)\u005cC=C(/C)[C@@]1([H])OC(=O)[C@]2([H])CCCCN2C(=O)C(=O)[C@]2(O)O[C@@]([H])([C@H](C[C@H]2C)OC)[C@H](C[C@@H](C)C\u005cC(C)=C\u005c[C@@H](CC)C(=O)C[C@H](O)[C@H]1C)OC
p333
atRp334
sVDCC0318
p335
g3
((lp336
V[H][C@@]1(C[C@@](C)(OC)[C@@H](O)[C@H](C)O1)O[C@H]1[C@H](C)[C@@H](O[C@]2([H])O[C@H](C)C[C@@H]([C@H]2O)N(C)C)[C@@](C)(C[C@@H](C)C(=O)[C@H](C)[C@@H](O)[C@](C)(O)[C@@H](CC)OC(=O)[C@@H]1C)OC
p337
atRp338
sVDCC1482
p339
g3
((lp340
V[H][C@@]12CC(=O)[C@H](CCCCCCC(O)=O)[C@@]1([H])CC[C@@](O)(O2)C(F)(F)CCCC
p341
atRp342
sVDCC1481
p343
g3
((lp344
VCC12CC3CC(C)(C1)CC(N)(C3)C2
p345
atRp346
sVDCC1486
p347
g3
((lp348
VCC(C)NCC(O)C1=CC(O)=C(O)C=C1
p349
atRp350
sVDCC0098
p351
g3
((lp352
VCCOC(=O)N1CCC(CC1)=C1C2=C(CCC3=C1N=CC=C3)C=C(Cl)C=C2
p353
atRp354
sVDCC0099
p355
g3
((lp356
VOC(=O)CC1(CC1)CS[C@H](CCC1=CC=CC=C1C(O)(C)C)C1=CC=CC(\u005cC=C\u005cC2=NC3=C(C=CC(Cl)=C3)C=C2)=C1
p357
atRp358
sVDCC0096
p359
g3
((lp360
VCOC1=CC=CC2=C1C(=O)C1=C(O)C3=C(C[C@](O)(C[C@@H]3O[C@H]3C[C@H](N)[C@@H](O)[C@H](C)O3)C(=O)CO)C(O)=C1C2=O
p361
atRp362
sVDCC0097
p363
g3
((lp364
VCC1=C(OCC(F)(F)F)C=CN=C1CS(=O)C1=NC2=CC=CC=C2N1
p365
atRp366
sVDCC0094
p367
g3
((lp368
VNC1=NC(=O)N(C=C1)[C@@H]1O[C@H](CO)[C@@H](O)C1(F)F
p369
atRp370
sVDCC0095
p371
g3
((lp372
V[H][C@@]12C[C@H](C)[C@](O)(C(=O)CO)[C@@]1(C)C[C@H](O)[C@@]1(F)[C@@]2([H])CCC2=CC(=O)C=C[C@]12C
p373
atRp374
sVDCC0092
p375
g3
((lp376
VCOCC1=C(C2=CC=C(F)C=C2)C(\u005cC=C\u005c[C@@H](O)C[C@@H](O)CC(O)=O)=C(C(C)C)N=C1C(C)C
p377
atRp378
sVDCC0093
p379
g3
((lp380
VCOC1=CC(CC2=CN=C(N)N=C2N)=CC(OC)=C1OC
p381
atRp382
sVDCC0090
p383
g3
((lp384
VNS(=O)(=O)C1=CC2=C(NC(CC3=CC=CC=C3)NS2(=O)=O)C=C1C(F)(F)F
p385
atRp386
sVDCC0723
p387
g3
((lp388
VCOC1=CC2=C(C=C1OCCCN1CCCC1)N=CN=C2OC1=C(F)C2=C(NC(C)=C2)C=C1
p389
atRp390
sVDCC1745
p391
g3
((lp392
VNC1=CC=CC2=C1C(=O)N(C1CCC(=O)NC1=O)C2=O
p393
atRp394
sVDCC1744
p395
g3
((lp396
V[H]\u005cC(=C(\u005c[H])C(=O)OC)C(=O)OC
p397
atRp398
sVDCC1742
p399
g3
((lp400
V[H][C@@]12C[C@@H](C)[C@](OC(=O)C3=CC=CO3)(C(=O)SCF)[C@@]1(C)C[C@H](O)[C@@]1(F)[C@@]2([H])C[C@H](F)C2=CC(=O)C=C[C@]12C
p401
atRp402
sVDCC0261
p403
g3
((lp404
VCC(C)(C)NCC(O)C1=CC(CO)=C(O)C=C1
p405
atRp406
sVDCC0260
p407
g3
((lp408
VNS(=O)(=O)C1=C(Cl)C=C2NCNS(=O)(=O)C2=C1
p409
atRp410
sVDCC0263
p411
g3
((lp412
VNC(=O)NO
p413
atRp414
sVDCC0265
p415
g3
((lp416
VCC(C(O)=O)C1=CC(=CC=C1)C(=O)C1=CC=CC=C1
p417
atRp418
sVDCC0267
p419
g3
((lp420
VCOC1=C(C=C(Cl)C=C1)C(=O)NCCC1=CC=C(C=C1)S(=O)(=O)NC(=O)NC1CCCCC1
p421
atRp422
sVDCC0266
p423
g3
((lp424
VCC1=CC(NS(=O)(=O)C2=CC=C(N)C=C2)=NO1
p425
atRp426
sVDCC0269
p427
g3
((lp428
VCCOC(=O)C1=C(C)NC(C)=C(C1C1=C(Cl)C(Cl)=CC=C1)C(=O)OC
p429
atRp430
sVDCC0268
p431
g3
((lp432
V[H][C@@]12CC3=C(C(O)=CC=C3N(C)C)C(=O)C1=C(O)[C@]1(O)C(=O)C(C(N)=O)=C(O)[C@@H](N(C)C)[C@]1([H])C2
p433
atRp434
sVDCC1662
p435
g3
((lp436
VCC(=O)N[C@@H](CS)C(O)=O
p437
atRp438
sVDCC0797
p439
g3
((lp440
V[H][C@](O)(CNCCCCCCOCCOCC1=C(Cl)C=CC=C1Cl)C1=CC(CO)=C(O)C=C1
p441
atRp442
sVDCC1188
p443
g3
((lp444
VCC1=C(O)C(CO)=C(CO)C=N1
p445
atRp446
sVDCC1183
p447
g3
((lp448
VNC1=NC(=O)C2=NC(CNC3=CC=C(C=C3)C(=O)N[C@@H](CCC(O)=O)C(O)=O)=CN=C2N1
p449
atRp450
sVDCC1182
p451
g3
((lp452
VCC(C)[C@@H](C)\u005cC=C\u005c[C@@H](C)[C@@]1([H])CC[C@@]2([H])\u005cC(CCC[C@]12C)=C\u005cC=C1\u005cC[C@@H](O)CCC1=C
p453
atRp454
sVDCC1181
p455
g3
((lp456
VCN(CC(O)=O)C(N)=N
p457
atRp458
sVDCC0944
p459
g3
((lp460
V[H][C@]1(CC[C@@]([H])(N=C(O)N2CCC(CC2)N2C(O)=NC3=C2C=CC=N3)C(=O)N(CC(F)(F)F)C1)C1=C(F)C(F)=CC=C1
p461
atRp462
sVDCC1345
p463
g3
((lp464
VCC(=O)NCCCS(O)(=O)=O
p465
atRp466
sVDCC1208
p467
g3
((lp468
V[H][C@]12CN(C[C@@]1([H])NCCC2)C1=C(F)C=C2C(=O)C(=CN(C3CC3)C2=C1OC)C(O)=O
p469
atRp470
sVDCC0210
p471
g3
((lp472
VCN(C)CCC(C1=CC=C(Br)C=C1)C1=CC=CC=N1
p473
atRp474
sVDCC0211
p475
g3
((lp476
VCN(C)C(=O)C(CCN1CCC(O)(CC1)C1=CC=C(Cl)C=C1)(C1=CC=CC=C1)C1=CC=CC=C1
p477
atRp478
sVDCC1116
p479
g3
((lp480
VCC(C)C[C@H](NC(=O)[C@@H](COC(C)(C)C)NC(=O)[C@H](CC1=CC=C(O)C=C1)NC(=O)[C@H](CO)NC(=O)[C@H](CC1=CNC2=CC=CC=C12)NC(=O)[C@H](CC1=CN=CN1)NC(=O)[C@@H]1CCC(=O)N1)C(=O)N[C@@H](CCCN=C(N)N)C(=O)N1CCC[C@H]1C(=O)NNC(N)=O
p481
atRp482
sVDCC1207
p483
g3
((lp484
VCN(C)CCCC1(OCC2=C1C=CC(=C2)C#N)C1=CC=C(F)C=C1
p485
atRp486
sVDCC1446
p487
g3
((lp488
VCC1=CC(=C(O)C(C)=C1CC1=NCCN1)C(C)(C)C
p489
atRp490
sVDCC1443
p491
g3
((lp492
VNC1=NC(=O)N(C=N1)[C@@H]1O[C@H](CO)[C@@H](O)[C@H]1O
p493
atRp494
sVDCC1838
p495
g3
((lp496
VCN1C(CCl)NC2=CC(Cl)=C(C=C2S1(=O)=O)S(N)(=O)=O
p497
atRp498
sVDCC0768
p499
g3
((lp500
V[H]\u005cC(=C(\u005c[H])C1=CC=C(CNCCC2=C(C)NC3=CC=CC=C23)C=C1)C(O)=NO
p501
atRp502
sVDCC1524
p503
g3
((lp504
VCN(C)CCC[C@]1(OCC2=C1C=CC(=C2)C#N)C1=CC=C(F)C=C1
p505
atRp506
sVDCC1521
p507
g3
((lp508
VCCC(C)N1N=CN(C1=O)C1=CC=C(C=C1)N1CCN(CC1)C1=CC=C(OC[C@H]2CO[C@@](CN3C=NC=N3)(O2)C2=C(Cl)C=C(Cl)C=C2)C=C1
p509
atRp510
sVDCC1520
p511
g3
((lp512
VO=C1CCC2=C(N1)C=CC(OCCCCC1=NN=NN1C1CCCCC1)=C2
p513
atRp514
sVDCC1522
p515
g3
((lp516
VCNNCC1=CC=C(C=C1)C(=O)NC(C)C
p517
atRp518
sVDCC0199
p519
g3
((lp520
VCNC(C)C1CCC(N)C(OC2C(N)CC(N)C(OC3OCC(C)(O)C(NC)C3O)C2O)O1
p521
atRp522
sVDCC0198
p523
g3
((lp524
VCCOC1=NC2=C(N1CC1=CC=C(C=C1)C1=CC=CC=C1C1=NN=NN1)C(=CC=C2)C(=O)OC(C)OC(=O)OC1CCCCC1
p525
aVCCOC1=NC2=CC=CC(C(O)=O)=C2N1CC1=CC=C(C=C1)C1=CC=CC=C1C1=NN=NN1
p526
atRp527
sVDCC0192
p528
g3
((lp529
VNC(=O)N1C2=CC=CC=C2CC(=O)C2=CC=CC=C12
p530
atRp531
sVDCC0191
p532
g3
((lp533
V[H][C@]12COC(=O)[C@]1([H])[C@H](C1=CC(OC)=C(O)C(OC)=C1)C1=CC3=C(OCO3)C=C1[C@H]2O[C@@H]1O[C@]2([H])CO[C@@H](C)O[C@@]2([H])[C@H](O)[C@H]1O
p534
atRp535
sVDCC0442
p536
g3
((lp537
VCC1=CC(O)=C2C(=O)C3=C(C=C(O)C=C3O)C(=O)C2=C1
p538
atRp539
sVDCC0197
p540
g3
((lp541
V[H][C@]12C[C@H](N(C(=O)[C@H](C)N[C@@H](CCC)C(=O)OCC)[C@@]1([H])CCCC2)C(O)=O
p542
atRp543
sVDCC0196
p544
g3
((lp545
VCOC1=CC2=C(C=C1)C=C(C=C2)[C@H](C)C(O)=O
p546
atRp547
sVDCC0194
p548
g3
((lp549
V[H][C@@]12CC[C@H](O)[C@@]1(C)CC[C@]1([H])C3=C(CC[C@@]21[H])C=C(O)C=C3
p550
atRp551
sVDCC0081
p552
g3
((lp553
VCN(C)CC[C@@H](C1=CC=C(Br)C=C1)C1=CC=CC=N1
p554
atRp555
sVDCC1494
p556
g3
((lp557
VCC(C)N1C(\u005cC=C\u005c[C@H](O)C[C@H](O)CC(O)=O)=C(C2=CC=C(F)C=C2)C2=CC=CC=C12
p558
atRp559
sVDCC0166
p560
g3
((lp561
VCNC[C@H](O)C1=CC(O)=C(O)C=C1
p562
atRp563
sVDCC0167
p564
g3
((lp565
VCNS(=O)(=O)CC1=CC2=C(NC=C2CCN(C)C)C=C1
p566
atRp567
sVDCC0165
p568
g3
((lp569
VCOC1=C(OC)C=C(CCN(C)CCCC(C#N)(C(C)C)C2=CC(OC)=C(OC)C=C2)C=C1
p570
atRp571
sVDCC0049
p572
g3
((lp573
VCC(=O)NC1=CC=C(O)C=C1
p574
atRp575
sVDCC0163
p576
g3
((lp577
VC[C@H]1[C@H]2CC3=CC=C(O)C=C3[C@]1(C)CCN2CC=C(C)C
p578
atRp579
sVDCC0160
p580
g3
((lp581
VCCC(=O)O[C@@](CC1=CC=CC=C1)([C@H](C)CN(C)C)C1=CC=CC=C1
p582
atRp583
sVDCC1842
p584
g3
((lp585
VCN(CC#C)CC1=CC=CC=C1
p586
atRp587
sVDCC0044
p588
g3
((lp589
VCCCCN1CCCCC1C(=O)NC1=C(C)C=CC=C1C
p590
atRp591
sVDCC0047
p592
g3
((lp593
VNS(=O)(=O)C1=C(Cl)C=CC(=C1)C1(O)NC(=O)C2=CC=CC=C12
p594
atRp595
sVDCC0041
p596
g3
((lp597
VCN1CCC[C@@H]1CCO[C@](C)(C1=CC=CC=C1)C1=CC=C(Cl)C=C1
p598
atRp599
sVDCC0040
p600
g3
((lp601
VCCN(CC)CC(=O)NC1=C(C)C=CC=C1C
p602
atRp603
sVDCC1844
p604
g3
((lp605
VNC1=NC(N)=C(C=C1)\u005cN=N\u005cC1=CC=CC=C1
p606
atRp607
sVDCC1845
p608
g3
((lp609
VC[C@@H](N)[C@@H](O)C1=CC=CC=C1
p610
atRp611
sVDCC1622
p612
g3
((lp613
VCCCO
p614
atRp615
sVDCC0227
p616
g3
((lp617
V[H][C@]12OC[C@H](O[N+]([O-])=O)[C@@]1([H])OC[C@H]2O[N+]([O-])=O
p618
atRp619
sVDCC0226
p620
g3
((lp621
VCCOC(=O)[C@H](CCC1=CC=CC=C1)N[C@@H](C)C(=O)N1CC2=CC=CC=C2C[C@H]1C(O)=O
p622
atRp623
sVDCC0220
p624
g3
((lp625
V[H][C@@]12CC[C@](O)(C(=O)OCCl)[C@@]1(C)C[C@H](O)[C@@]1([H])[C@@]2([H])CCC2=CC(=O)C=C[C@]12C
p626
atRp627
sVDCC0223
p628
g3
((lp629
V[H][C@@]1(C[C@@H](C)[C@]2([H])CC(=O)[C@H](C)\u005cC=C(C)\u005c[C@@H](O)[C@@H](OC)C(=O)[C@H](C)C[C@H](C)\u005cC=C\u005cC=C\u005cC=C(C)\u005c[C@H](C[C@]3([H])CC[C@@H](C)[C@@](O)(O3)C(=O)C(=O)N3CCCC[C@@]3([H])C(=O)O2)OC)CC[C@@H](O)[C@@H](C1)OC
p630
atRp631
sVDCC0222
p632
g3
((lp633
VCCCCC1=NC=C(\u005cC=C(/CC2=CC=CS2)C(O)=O)N1CC1=CC=C(C=C1)C(O)=O
p634
atRp635
sVDCC1628
p636
g3
((lp637
VCCOP(=O)(OCC)[C@@H](C)NC(=O)N(CCCl)N=O
p638
atRp639
sVDCC0738
p640
g3
((lp641
VCCC1=C(CC)C=C2CC(CC2=C1)NC[C@H](O)C1=C2C=CC(=O)NC2=C(O)C=C1
p642
atRp643
sVDCC0229
p644
g3
((lp645
VCN1CCC(CN2C3=CC=CC=C3SC3=CC=CC=C23)C1
p646
atRp647
sVDCC0228
p648
g3
((lp649
VOC[C@@H]1CC[C@@H](O1)N1C=NC2=C1NC=NC2=O
p650
atRp651
sVDCC0089
p652
g3
((lp653
VCN1CCN(CCCN2C3=CC=CC=C3SC3=C2C=C(Cl)C=C3)CC1
p654
atRp655
sVDCC0348
p656
g3
((lp657
V[H][C@@]1(C[C@@H](C)[C@]2([H])CC(=O)[C@H](C)\u005cC=C(C)\u005c[C@@H](O)[C@@H](OC)C(=O)[C@H](C)C[C@H](C)\u005cC=C\u005cC=C\u005cC=C(C)\u005c[C@H](C[C@]3([H])CC[C@@H](C)[C@@](O)(O3)C(=O)C(=O)N3CCCC[C@@]3([H])C(=O)O2)OC)CC[C@@H](OCCO)[C@@H](C1)OC
p658
atRp659
sVDCC0088
p660
g3
((lp661
VOC[C@H]1O[C@H](C[C@@H]1O)N1C=C(C(=O)NC1=O)C(F)(F)F
p662
atRp663
sVDCC1231
p664
g3
((lp665
VCOC1=CC=C(C=C1)C(CN(C)C)C1(O)CCCCC1
p666
atRp667
sVDCC0347
p668
g3
((lp669
VCN[C@@H](C)CC1=CC=CC=C1
p670
atRp671
sVDCC0345
p672
g3
((lp673
VOCCCC([O-])=O
p674
atRp675
sVDCC0342
p676
g3
((lp677
VCOC1=CC2=C(C(OC)=C1OC)C1=CC=C(OC)C(=O)C=C1C(CC2)NC(C)=O
p678
atRp679
sVDCC0343
p680
g3
((lp681
V[H][C@@]12C[C@]1([H])[C@@]1([H])[C@]3([H])[C@]4([H])C[C@]4([H])[C@@]4(CCC(=O)O4)[C@@]3(C)CC[C@]1([H])[C@@]1(C)CCC(=O)C=C21
p682
atRp683
sVDCC0340
p684
g3
((lp685
V[H][C@@]12CC[C@@](O)(C#C)[C@@]1(C)CC[C@]1([H])C3=C(CC[C@@]21[H])C=C(OC)C=C3
p686
atRp687
sVDCC0613
p688
g3
((lp689
V[H][C@@]12CC=C(C3=CC=CN=C3)[C@@]1(C)CC[C@@]1([H])[C@@]2([H])CC=C2C[C@@H](O)CC[C@]12C
p690
atRp691
sVDCC1680
p692
g3
((lp693
VN[C@H](C(=O)N1[C@H]2C[C@H]2C[C@H]1C#N)C12CC3CC(CC(O)(C3)C1)C2
p694
atRp695
sVDCC1505
p696
g3
((lp697
VCC1=CC=C(C=C1)S(=O)(=O)NC(=O)NN1CC2CCCC2C1
p698
atRp699
sVDCC0325
p700
g3
((lp701
V[H][C@@]12C[C@@H](C)[C@](O)(C(=O)CO)[C@@]1(C)C[C@H](O)[C@@]1(F)[C@@]2([H])CCC2=CC(=O)C=C[C@]12C
p702
atRp703
sVDCC0290
p704
g3
((lp705
VCC(C)C1=C(C(=O)NC2=CC=CC=C2)C(=C(N1CC[C@@H](O)C[C@@H](O)CC(O)=O)C1=CC=C(F)C=C1)C1=CC=CC=C1
p706
atRp707
sVDCC0291
p708
g3
((lp709
VCCOC(=O)C1(CCN(CCC(C#N)(C2=CC=CC=C2)C2=CC=CC=C2)CC1)C1=CC=CC=C1
p710
atRp711
sVDCC0292
p712
g3
((lp713
VCN[C@H]1[C@H](O)[C@@H](O)[C@H](CO)O[C@H]1O[C@H]1[C@H](O[C@H]2[C@H](O)[C@@H](O)[C@H](NC(N)=N)[C@@H](O)[C@@H]2NC(N)=N)O[C@@H](C)[C@]1(O)C=O
p714
atRp715
sVDCC0293
p716
g3
((lp717
V[H][C@]12C[C@@H](O)[C@H](\u005cC=C\u005c[C@@H](O)C(C)CC#CC)[C@@]1([H])C\u005cC(C2)=C\u005cCCCC(O)=O
p718
atRp719
sVDCC0294
p720
g3
((lp721
VCC(C)C1=NC(=NC(C2=CC=C(F)C=C2)=C1\u005cC=C\u005c[C@@H](O)C[C@@H](O)CC(=O)O)N(C)S(C)(=O)=O
p722
atRp723
sVDCC0295
p724
g3
((lp725
VCCCCCOC(=O)NC1=NC(=O)N(C=C1F)[C@@H]1O[C@H](C)[C@@H](O)[C@H]1O
p726
atRp727
sVDCC0297
p728
g3
((lp729
VClC1=CC(Cl)=C(COC(CN2C=CN=C2)C2=C(Cl)C=C(Cl)C=C2)C=C1
p730
atRp731
sVDCC0298
p732
g3
((lp733
VCN(C)CCC(C1=CC=C(Cl)C=C1)C1=CC=CC=N1
p734
atRp735
sVDCC0299
p736
g3
((lp737
VOC1=C([C@H]2CC[C@@H](CC2)C2=CC=C(Cl)C=C2)C(=O)C2=CC=CC=C2C1=O
p738
atRp739
sVDCC1657
p740
g3
((lp741
VCOC1=C(OCC2CCN(C)CC2)C=C2N=CN=C(NC3=C(F)C=C(Br)C=C3)C2=C1
p742
atRp743
sVDCC1710
p744
g3
((lp745
VC(N1CCCNCCNCCCNCC1)C1=CC=C(CN2CCCNCCNCCCNCC2)C=C1
p746
atRp747
sVDCC0908
p748
g3
((lp749
V[H][C@@]12CC[C@](OC(C)=O)(C(C)=O)[C@@]1(C)CC[C@@]1([H])[C@@]2([H])C[C@H](C)C2=CC(=O)CC[C@]12C
p750
atRp751
sVDCC0904
p752
g3
((lp753
VCCOC1=C(NC(=O)\u005cC=C\u005cCN(C)C)C=C2C(NC3=CC=C(OCC4=CC=CC=N4)C(Cl)=C3)=C(C=NC2=C1)C#N
p754
atRp755
sVDCC1679
p756
g3
((lp757
VCCN1CCCC1CNC(=O)C1=CC(=C(N)C=C1OC)S(=O)(=O)CC
p758
atRp759
sVDCC0452
p760
g3
((lp761
V[Cl-].CN(C)C1=CC2=[S+]C3=C(C=CC(=C3)N(C)C)N=C2C=C1
p762
atRp763
sVDCC0453
p764
g3
((lp765
VCC\u005cC=C/C\u005cC=C/C\u005cC=C/C\u005cC=C/C\u005cC=C/C\u005cC=C/CCC(O)=O
p766
atRp767
sVDCC0834
p768
g3
((lp769
VCC(C)C[C@H](NC(=O)[C@@H](CC1=CNC2=CC=CC=C12)NC(=O)[C@H](CC1=CC=C(O)C=C1)NC(=O)[C@H](CO)NC(=O)[C@H](CC1=CNC2=C1C=CC=C2)NC(=O)[C@H](CC1=CNC=N1)NC(=O)[C@@H]1CCC(=O)N1)C(=O)N[C@@H](CCCNC(N)=N)C(=O)N1CCC[C@H]1C(=O)NCC(N)=O
p770
atRp771
sVDCC0450
p772
g3
((lp773
VCCCCCCCCCCCCCCCCOP([O-])(=O)OCC[N+](C)(C)C
p774
atRp775
sVDCC1434
p776
g3
((lp777
VCN1C2=C(C3=CC=CC=C13)C(=O)C(CN1C=CN=C1C)CC2
p778
atRp779
sVDCC0042
p780
g3
((lp781
V[H][C@@]12CC[C@@](O)(C#C)[C@@]1(CC)CC(=C)[C@]1([H])[C@@]3([H])CCC(=O)C=C3CC[C@@]21[H]
p782
atRp783
sVDCC0025
p784
g3
((lp785
VCOC1=C(C=C(C=C1)C1=CC2=C(C=C1)C=C(C=C2)C(O)=O)C12CC3CC(CC(C3)C1)C2
p786
atRp787
sVDCC0158
p788
g3
((lp789
V[H][C@@](CCC(O)=O)(NC(=O)C1=CC=C(CCC2=CNC3=C2C(O)=NC(=N)N3)C=C1)C(O)=O
p790
atRp791
sVDCC0157
p792
g3
((lp793
V[H][C@]12[C@H](C[C@@H](C)C=C1C=C[C@H](C)[C@@H]2CC[C@@H]1C[C@@H](O)CC(=O)O1)OC(=O)C(C)(C)CC
p794
atRp795
sVDCC1820
p796
g3
((lp797
V[H][C@@]12CCCN1C(=O)[C@H](CC1=CC=CC=C1)N1C(=O)[C@](C)(NC(=O)[C@H]3CN(C)[C@]4([H])CC5=CNC6=CC=CC(=C56)[C@@]4([H])C3)O[C@@]21O
p798
atRp799
sVDCC1400
p800
g3
((lp801
VCCOC(=O)C1=CN=C(C=C1)C#CC1=CC2=C(SCCC2(C)C)C=C1
p802
atRp803
sVDCC0154
p804
g3
((lp805
VC[C@H](C1=CNC=N1)C1=C(C)C(C)=CC=C1
p806
atRp807
sVDCC0153
p808
g3
((lp809
V[H][C@]1(F)[C@H](O)[C@@H](CO)O[C@H]1N1C=NC2=C(N)N=C(Cl)N=C12
p810
atRp811
sVDCC0152
p812
g3
((lp813
VOC(=O)C1=CN=CC=C1
p814
atRp815
sVDCC0151
p816
g3
((lp817
VCC[C@H](C)[C@H](N)C1=N[C@@H](CS1)C(=O)N[C@@H](CC(C)C)C(=O)N[C@H](CCC(O)=O)C(=O)N[C@@H]([C@@H](C)CC)C(=O)N[C@H]1CCCCNC(=O)[C@H](CC(N)=O)NC(=O)[C@@H](CC(O)=O)NC(=O)[C@H](CC2=CNC=N2)NC(=O)[C@@H](CC2=CC=CC=C2)NC(=O)[C@@H](NC(=O)[C@@H](CCCN)NC1=O)[C@@H](C)CC
p818
atRp819
sVDCC1537
p820
g3
((lp821
VClCCN(N=O)C(=O)NC1CCCCC1
p822
atRp823
sVDCC0458
p824
g3
((lp825
VOC1=CC=C(C=C1)C1=CC2=C(OC1)C=C(O)C=C2
p826
atRp827
sVDCC0020
p828
g3
((lp829
VCC[C@H]1OC(=O)[C@H](C)[C@@H](O[C@H]2C[C@@](C)(OC)[C@@H](O)[C@H](C)O2)[C@H](C)[C@@H](O[C@@H]2O[C@H](C)C[C@@H]([C@H]2O)N(C)C)[C@](C)(O)C[C@@H](C)C(=O)[C@H](C)[C@@H](O)[C@]1(C)O
p830
atRp831
sVDCC0129
p832
g3
((lp833
VNC1=NC(N)=C(N=N1)C1=C(Cl)C(Cl)=CC=C1
p834
atRp835
sVDCC0122
p836
g3
((lp837
VCOCCOC1=C(OCCOC)C=C2C(NC3=CC=CC(=C3)C#C)=NC=NC2=C1
p838
atRp839
sVDCC0123
p840
g3
((lp841
VClCCN(CCCl)P1(=O)NCCCO1
p842
atRp843
sVDCC0121
p844
g3
((lp845
VCOC(=O)C1=C(C)NC(C)=C(C1C1=CC(=CC=C1)[N+]([O-])=O)C(=O)OC(C)(C)CN(C)CCC(C1=CC=CC=C1)C1=CC=CC=C1
p846
atRp847
sVDCC0126
p848
g3
((lp849
V[H][C@@]12N3CC[C@@]11C4=CC(=C(OC)C=C4N(C=O)[C@@]1([H])[C@](O)([C@H](OC(C)=O)[C@]2(CC)C=CC3)C(=O)OC)[C@]1(C[C@]2([H])CN(C[C@](O)(CC)C2)CCC2=C1NC1=CC=CC=C21)C(=O)OC
p850
atRp851
sVDCC0127
p852
g3
((lp853
VCCOC(=O)[C@H](CCC1=CC=CC=C1)N[C@H]1CCC2=CC=CC=C2N(CC(O)=O)C1=O
p854
atRp855
sVDCC0124
p856
g3
((lp857
VOC(=O)C1=CN(C2CC2)C2=CC(N3CCNCC3)=C(F)C=C2C1=O
p858
atRp859
sVDCC0125
p860
g3
((lp861
VCN(C)CCOC1=CC=C(C=C1)C(=C(\u005cCCCl)C1=CC=CC=C1)\u005cC1=CC=CC=C1
p862
atRp863
sVDCC0302
p864
g3
((lp865
VCC(C)\u005cN=C(/N)N=C(N)NC1=CC=C(Cl)C=C1
p866
atRp867
sVDCC0303
p868
g3
((lp869
VCCC1=CN=C(CCOC2=CC=C(CC3SC(=O)NC3=O)C=C2)C=C1
p870
atRp871
sVDCC0300
p872
g3
((lp873
VCC1=NS(=O)(=O)C2=C(N1)C=CC(Cl)=C2
p874
atRp875
sVDCC0301
p876
g3
((lp877
VCOCCCOC1=C(C)C(CS(=O)C2=NC3=CC=CC=C3N2)=NC=C1
p878
atRp879
sVDCC0306
p880
g3
((lp881
VCC(NC(C)(C)C)C(=O)C1=CC(Cl)=CC=C1
p882
atRp883
sVDCC0307
p884
g3
((lp885
VCOC1=CC(NCC2=C(C)C3=C(C=C2)N=C(N)N=C3N)=CC(OC)=C1OC
p886
atRp887
sVDCC0304
p888
g3
((lp889
VC[C@H]1COC2=C3N1C=C(C(O)=O)C(=O)C3=CC(F)=C2N1CCN(C)CC1
p890
atRp891
sVDCC0308
p892
g3
((lp893
VO=[As]O[As]=O
p894
atRp895
sVDCC1273
p896
g3
((lp897
VCOC(=O)C(C1CCCCN1)C1=CC=CC=C1
p898
atRp899
sVDCC1579
p900
g3
((lp901
V[Mg++]
p902
atRp903
sVDCC1479
p904
g3
((lp905
VCC(C)N(CC[C@H](C1=CC=CC=C1)C1=C(O)C=CC(C)=C1)C(C)C
p906
atRp907
sVDCC1478
p908
g3
((lp909
VCC(=O)N1CCN(CC1)C1=CC=C(OCC2COC(CN3C=CN=C3)(O2)C2=CC=C(Cl)C=C2Cl)C=C1
p910
atRp911
sVDCC1477
p912
g3
((lp913
VCOC1=C(C\u005cC=C(/C)CCC(O)=O)C(O)=C2C(=O)OCC2=C1C
p914
atRp915
sVDCC1474
p916
g3
((lp917
V[H][C@@]12C[C@H](C)[C@](OC(=O)CC)(C(=O)CCl)[C@@]1(C)C[C@H](O)[C@@]1(F)[C@@]2([H])CCC2=CC(=O)C=C[C@]12C
p918
atRp919
sVDCC1473
p920
g3
((lp921
VC[C@@H](NCCCC1=CC(=CC=C1)C(F)(F)F)C1=CC=CC2=CC=CC=C12
p922
atRp923
sVDCC0043
p924
g3
((lp925
V[H][C@@]12OC3=C(O)C=CC4=C3[C@@]11CCN(C)[C@]([H])(C4)[C@]1([H])C=C[C@@H]2O
p926
atRp927
sVDCC1860
p928
g3
((lp929
VNC(N)=O
p930
atRp931
sVDCC0016
p932
g3
((lp933
VCC(C)C[C@H](NC(=O)[C@H](CC1=CC=CC=C1)NC(=O)C1=CN=CC=N1)B(O)O
p934
atRp935
sVDCC0017
p936
g3
((lp937
VC[C@@](CC1=CC(O)=C(O)C=C1)(NN)C(O)=O
p938
atRp939
sVDCC0014
p940
g3
((lp941
VCCCCC(=O)N(CC1=CC=C(C=C1)C1=CC=CC=C1C1=NNN=N1)[C@@H](C(C)C)C(O)=O
p942
atRp943
sVDCC0015
p944
g3
((lp945
V[H][C@@]12CCC[C@]1([H])N([C@@H](C2)C(O)=O)C(=O)[C@H](C)N[C@@H](CCC1=CC=CC=C1)C(=O)OCC
p946
atRp947
sVDCC0013
p948
g3
((lp949
V[C@H]1([C@@H]2[C@H]([C@@H](N3C4=CC(=C(C)C=C4[N+]([Co-3]456(N7C8=C(C9=[N+]4C(C([C@@H]9CCC(N)=O)(C)C)=CC4=[N+]5C(=C(C5=[N+]6[C@@]([C@]7([C@@H]([C@@]8(C)CCC(=O)NC[C@@]([H])(C)OP([O-])(=O)O2)CC(N)=O)[H])([C@@]([C@@H]5CCC(N)=O)(C)CC(N)=O)C)C)[C@@]([C@@H]4CCC(N
p950
atRp951
sVDCC0011
p952
g3
((lp953
VCC[C@@H]1NC(=O)[C@H]([C@H](O)[C@H](C)C\u005cC=C\u005cC)N(C)C(=O)[C@H](C(C)C)N(C)C(=O)[C@H](CC(C)C)N(C)C(=O)[C@H](CC(C)C)N(C)C(=O)[C@@H](C)NC(=O)[C@H](C)NC(=O)[C@H](CC(C)C)N(C)C(=O)[C@@H](NC(=O)[C@H](CC(C)C)N(C)C(=O)CN(C)C1=O)C(C)C
p954
atRp955
sVDCC0396
p956
g3
((lp957
VO=C1C=C(OC2=C1C=CC=C2C1=CC=CC=C1)N1CCOCC1
p958
atRp959
sVDCC0018
p960
g3
((lp961
VCOC1=CC=CC(=C1)[C@@]1(O)CCCC[C@@H]1CN(C)C
p962
atRp963
sVDCC0019
p964
g3
((lp965
VCCOC(=O)C1=C[C@@H](OC(CC)CC)[C@H](NC(C)=O)[C@@H](N)C1
p966
atRp967
sVDCC1407
p968
g3
((lp969
V[H][C@]12CC3=C(NC4=CC=CC=C34)[C@H](N1C(=O)CN(C)C2=O)C1=CC2=C(OCO2)C=C1
p970
atRp971
sVDCC0377
p972
g3
((lp973
VC(N(CC1=CC=CC=C1)C1=CC=CC=C1)C1=NCCN1
p974
atRp975
sVDCC0376
p976
g3
((lp977
VOC1=CC(Cl)=CC=C1OC1=C(Cl)C=C(Cl)C=C1
p978
atRp979
sVDCC0375
p980
g3
((lp981
VC(C1=NCCN1)C1=CC=CC2=CC=CC=C12
p982
atRp983
sVDCC0371
p984
g3
((lp985
VCN1C(=O)C=C(N2CCC[C@@H](N)C2)N(CC2=C(C=CC=C2)C#N)C1=O
p986
atRp987
sVDCC0276
p988
g3
((lp989
VCC(C)OC(=O)C(C)(C)OC1=CC=C(C=C1)C(=O)C1=CC=C(Cl)C=C1
p990
atRp991
sVDCC0277
p992
g3
((lp993
VO=C1N(C2CCC(=O)NC2=O)C(=O)C2=CC=CC=C12
p994
atRp995
sVDCC0274
p996
g3
((lp997
VCC=CCC=CCCC(=O)[C@H]1O[C@H]1C(N)=O
p998
atRp999
sVDCC0275
p1000
g3
((lp1001
VCCN(CC)CCNC(=O)C1=CC=C(N)C=C1
p1002
atRp1003
sVDCC0272
p1004
g3
((lp1005
VCCCN(CCC)S(=O)(=O)C1=CC=C(C=C1)C(O)=O
p1006
atRp1007
sVDCC0273
p1008
g3
((lp1009
VS=C1N=CNC2=C1NC=N2
p1010
atRp1011
sVDCC0270
p1012
g3
((lp1013
VCCCCC1=NC2(CCCC2)C(=O)N1CC1=CC=C(C=C1)C1=CC=CC=C1C1=NNN=N1
p1014
atRp1015
sVDCC0378
p1016
g3
((lp1017
VCCCCCCCCC1=CC=C(CCC(N)(CO)CO)C=C1
p1018
atRp1019
sVDCC1589
p1020
g3
((lp1021
VCC(C)CCC[C@@H](C)[C@@]1([H])CC[C@@]2([H])\u005cC(CCC[C@]12C)=C\u005cC=C1\u005cC[C@@H](O)C[C@H](O)C1=C
p1022
atRp1023
sVDCC0920
p1024
g3
((lp1025
VOC(=O)C1CCN2C1=CC=C2C(=O)C1=CC=CC=C1
p1026
atRp1027
sVDCC1584
p1028
g3
((lp1029
V[H][C@]12O[C@@]1([H])[C@]1([H])C[C@@]([H])(C[C@@]2([H])[N+]1(C)C)OC(=O)C(O)(C1=CC=CS1)C1=CC=CS1
p1030
atRp1031
sVDCC0080
p1032
g3
((lp1033
VOC(CN1C=CN=C1)(P(O)(O)=O)P(O)(O)=O
p1034
atRp1035
sVDCC1727
p1036
g3
((lp1037
VCC1=CC(\u005cC=C\u005cC#N)=CC(C)=C1NC1=CC=NC(NC2=CC=C(C=C2)C#N)=N1
p1038
atRp1039
sVDCC1726
p1040
g3
((lp1041
VO[C@H](C[C@H](O)\u005cC=C\u005cC1=C(N=C2C=CC=CC2=C1C1=CC=C(F)C=C1)C1CC1)CC(O)=O
p1042
atRp1043
sVDCC1199
p1044
g3
((lp1045
VCC(C)(N)CC1=CC=CC=C1
p1046
atRp1047
sVDCC0552
p1048
g3
((lp1049
S'CC12CCC3C(C1CCC2=O)CCC4=C3C=CC(=C4)OS(=O)(=O)[O-].[Na+]'
p1050
atRp1051
sVDCC1194
p1052
g3
((lp1053
VCC(N)CC1=CC=CC=C1
p1054
atRp1055
sVDCC1191
p1056
g3
((lp1057
V[H][C@]12[C@H](C[C@H](O)C=C1C=C[C@H](C)[C@@H]2CC[C@@H](O)C[C@@H](O)CC(O)=O)OC(=O)[C@@H](C)CC
p1058
atRp1059
sVDCC1297
p1060
g3
((lp1061
V[H][C@]12SCC(COC(C)=O)=C(N1C(=O)[C@H]2NC(=O)C(=N/OC)\u005cC1=CSC(N)=N1)C(O)=O
p1062
atRp1063
sVDCC1293
p1064
g3
((lp1065
VCNCC[C@H](OC1=CC=CC2=CC=CC=C12)C1=CC=CS1
p1066
atRp1067
sVDCC1356
p1068
g3
((lp1069
VCC1=CC=C(C=C1)N(CC1=NCCN1)C1=CC(O)=CC=C1
p1070
atRp1071
sVDCC1357
p1072
g3
((lp1073
VCOC1=CC=CC2=C1C(=O)C1=C(O)C3=C(C[C@](O)(C[C@@H]3O[C@H]3C[C@H](N)[C@H](O)[C@H](C)O3)C(C)=O)C(O)=C1C2=O
p1074
atRp1075
sVDCC1354
p1076
g3
((lp1077
V[H][C@@]12CC[C@](O)(C(=O)CO)[C@@]1(C)C[C@H](O)[C@@]1(F)[C@@]2([H])CCC2=CC(=O)CC[C@]12C
p1078
atRp1079
sVDCC1355
p1080
g3
((lp1081
VCCOC(=O)[C@H](CCC1=CC=CC=C1)N[C@@H](C)C(=O)N1CC2=CC(OC)=C(OC)C=C2C[C@H]1C(O)=O
p1082
atRp1083
sVDCC1353
p1084
g3
((lp1085
VCC1=NC=C2CN=C(C3=CC=CC=C3F)C3=C(C=CC(Cl)=C3)N12
p1086
atRp1087
sVDCC1351
p1088
g3
((lp1089
VC[C@@H](O[C@H]1OCCN(CC2=NNC(=O)N2)[C@H]1C1=CC=C(F)C=C1)C1=CC(=CC(=C1)C(F)(F)F)C(F)(F)F
p1090
atRp1091
sVDCC1425
p1092
g3
((lp1093
VOC(CC1=CN=CC=C1)(P(O)(O)=O)P(O)(O)=O
p1094
atRp1095
sVDCC0119
p1096
g3
((lp1097
V[H][C@@]12C[C@H](N(C(=O)[C@H](C)N[C@@H](CCC3=CC=CC=C3)C(=O)OCC)[C@@]1([H])CCCC2)C(O)=O
p1098
atRp1099
sVDCC0051
p1100
g3
((lp1101
V[H][C@@]12OC3=C(OC)C=CC4=C3[C@@]11CCN(C)[C@]([H])(C4)[C@]1([H])C=C[C@@H]2O
p1102
atRp1103
sVDCC1433
p1104
g3
((lp1105
VCCC(=C)C(=O)C1=C(Cl)C(Cl)=C(OCC(O)=O)C=C1
p1106
atRp1107
sVDCC1432
p1108
g3
((lp1109
VCCC(=O)N(C1=CC=CC=C1)C1(CCN(CCC(=O)OC)CC1)C(=O)OC
p1110
atRp1111
sVDCC1431
p1112
g3
((lp1113
VCCO
p1114
atRp1115
sVDCC1828
p1116
g3
((lp1117
V[H][C@@]12C[C@@]3([H])[C@]4([H])C[C@]([H])(F)C5=CC(=O)CC[C@]5(C)[C@@]4([H])[C@@H](O)C[C@]3(C)[C@@]1(OC(C)(C)O2)C(=O)CO
p1118
atRp1119
sVDCC1829
p1120
g3
((lp1121
VNC(N)=NCCN1CCCCCCC1
p1122
atRp1123
sVDCC0029
p1124
g3
((lp1125
V[H][C@]12[C@H](C[C@@H](C)C=C1C=C[C@H](C)[C@@H]2CC[C@@H]1C[C@@H](O)CC(=O)O1)OC(=O)[C@@H](C)CC
p1126
atRp1127
sVDCC0451
p1128
g3
((lp1129
VONC(=O)\u005cC=C\u005cC(\u005cC)=C\u005c[C@](C)([H])C(=O)C1=CC=C(N(C)C)C=C1
p1130
atRp1131
sVDCC0027
p1132
g3
((lp1133
V[H][C@]1(C)CC[C@@]([H])(CC1)N=C(O)NS(=O)(=O)C1=CC=C(CCN=C(O)N2CC(C)=C(CC)C2=O)C=C1
p1134
atRp1135
sVDCC0026
p1136
g3
((lp1137
VCOC1=C(OC)C(CS(=O)C2=NC3=C(N2)C=C(OC(F)F)C=C3)=NC=C1
p1138
atRp1139
sVDCC1530
p1140
g3
((lp1141
V[H][C@@]12OC3=C(O)C=CC4=C3[C@@]11CCN(C)[C@]([H])(C4)[C@]1(O)CCC2=O
p1142
atRp1143
sVDCC0024
p1144
g3
((lp1145
VCC[C@H]1OC(=O)[C@H](C)[C@@H](O[C@H]2C[C@@](C)(OC)[C@@H](O)[C@H](C)O2)[C@H](C)[C@@H](O[C@@H]2O[C@H](C)C[C@@H]([C@H]2O)N(C)C)[C@](C)(O)C[C@@H](C)CN(C)[C@H](C)[C@@H](O)[C@]1(C)O
p1146
atRp1147
sVDCC0023
p1148
g3
((lp1149
VCCC1=C(C(N)=NC(N)=N1)C1=CC=C(Cl)C=C1
p1150
atRp1151
sVDCC0022
p1152
g3
((lp1153
VCCCC1=NN(C)C2=C1NC(=NC2=O)C1=C(OCC)C=CC(=C1)S(=O)(=O)N1CCN(C)CC1
p1154
atRp1155
sVDCC1822
p1156
g3
((lp1157
VCC[N+](C)(C)C1=CC(O)=CC=C1
p1158
atRp1159
sVDCC1535
p1160
g3
((lp1161
VOCCNCCNC1=C2C(=O)C3=C(O)C=CC(O)=C3C(=O)C2=C(NCCNCCO)C=C1
p1162
atRp1163
sVDCC0189
p1164
g3
((lp1165
VCCC1=C2CN3C(=CC4=C(COC(=O)[C@]4(O)CC)C3=O)C2=NC2=C1C=C(OC(=O)N1CCC(CC1)N1CCCCC1)C=C2
p1166
atRp1167
sVDCC1601
p1168
g3
((lp1169
VCCN(CCO)CCCC(C)NC1=C2C=CC(Cl)=CC2=NC=C1
p1170
atRp1171
sVDCC0180
p1172
g3
((lp1173
V[H][C@@]12CC[C@@](O)(C#C)[C@@]1(C)CC[C@]1([H])[C@@]3([H])CCC(=O)C=C3CC[C@@]21[H]
p1174
atRp1175
sVDCC0181
p1176
g3
((lp1177
VNCCCC[C@H](N[C@@H](CCC1=CC=CC=C1)C(O)=O)C(=O)N1CCC[C@H]1C(O)=O
p1178
atRp1179
sVDCC0182
p1180
g3
((lp1181
V[Br-].C[N+]1(C)C2CCC1CC(C2)OC(=O)C(O)C1=CC=CC=C1
p1182
atRp1183
sVDCC0183
p1184
g3
((lp1185
VC[N+]1=C(\u005cC=N\u005cO)C=CC=C1
p1186
atRp1187
sVDCC0184
p1188
g3
((lp1189
V[H][C@@]12CC[C@](O)(C(=O)CO)[C@@]1(C)C[C@H](O)[C@@]1([H])[C@@]2([H])CCC2=CC(=O)CC[C@]12C
p1190
atRp1191
sVDCC0185
p1192
g3
((lp1193
VCCCNC(C)C(=O)NC1=CC=CC=C1C
p1194
atRp1195
sVDCC0186
p1196
g3
((lp1197
VCC(C=CC1=C(C)CCCC1(C)C)=CC=CC(C)=CC(O)=O
p1198
atRp1199
sVDCC0187
p1200
g3
((lp1201
V[H][C@@]12C[C@@]3([H])C(=C(O)[C@]1(O)C(=O)C(C(N)=O)=C(O)[C@H]2N(C)C)C(=O)C1=C(O)C=CC=C1[C@@]3(C)O
p1202
atRp1203
sVDCC1221
p1204
g3
((lp1205
V[H][C@@]12[C@@H](C)C3=C(C(O)=CC=C3)C(=O)C1=C(O)[C@]1(O)C(=O)C(C(N)=O)=C(O)[C@@H](N(C)C)[C@]1([H])[C@H]2O
p1206
atRp1207
sVDCC1493
p1208
g3
((lp1209
VCOC1=CC(NC(C)CCCN)=C2N=CC=CC2=C1
p1210
atRp1211
sVDCC0112
p1212
g3
((lp1213
V[H][C@@]12OC3=C(OC)C=CC4=C3[C@@]11CCN(C)[C@]([H])(C4)[C@]1(O)CCC2=O
p1214
atRp1215
sVDCC0111
p1216
g3
((lp1217
VCC1=CN([C@H]2C[C@H](N=[N+]=[N-])[C@@H](CO)O2)C(=O)NC1=O
p1218
atRp1219
sVDCC0059
p1220
g3
((lp1221
VCN1CCN(CC1)C1=NC2=CC=CC=C2NC2=C1C=C(C)S2
p1222
atRp1223
sVDCC0117
p1224
g3
((lp1225
VN[Pt](N)(Cl)Cl
p1226
atRp1227
sVDCC0116
p1228
g3
((lp1229
V[H][C@]12CC3=C(C=C(OC)C=C3)[C@@]3(CCCC[C@]13[H])CCN2C
p1230
atRp1231
sVDCC0114
p1232
g3
((lp1233
VCC(C)[C@H](NC(=O)N(C)CC1=CSC(=N1)C(C)C)C(=O)N[C@H](C[C@H](O)[C@H](CC1=CC=CC=C1)NC(=O)OCC1=CN=CS1)CC1=CC=CC=C1
p1234
atRp1235
sVDCC0053
p1236
g3
((lp1237
VCN(C)CCC=C1C2=CC=CC=C2CCC2=CC=CC=C12
p1238
atRp1239
sVDCC0050
p1240
g3
((lp1241
VCOC1=C(OCCCN2CCOCC2)C=C2C(NC3=CC(Cl)=C(F)C=C3)=NC=NC2=C1
p1242
atRp1243
sVDCC0118
p1244
g3
((lp1245
VCCCSC1=CC2=C(C=C1)N=C(NC(=O)OC)N2
p1246
atRp1247
sVDCC0057
p1248
g3
((lp1249
VCN(C)C(=N)NC(N)=N
p1250
atRp1251
sVDCC0054
p1252
g3
((lp1253
VO=N[Fe--](C#N)(C#N)(C#N)(C#N)C#N
p1254
atRp1255
sVDCC0055
p1256
g3
((lp1257
VCOC1=CC2=C(C=C1)N(C(=O)C1=CC=C(Cl)C=C1)C(C)=C2CC(O)=O
p1258
atRp1259
sVDCC0232
p1260
g3
((lp1261
V[H][C@@]12CCN(C[C@@H]1C=C)[C@]([H])(C2)[C@@H](O)C1=C2C=C(OC)C=CC2=NC=C1
p1262
atRp1263
sVDCC0233
p1264
g3
((lp1265
VCCOC1=C(C=CC(CC(=O)N[C@@H](CC(C)C)C2=CC=CC=C2N2CCCCC2)=C1)C(O)=O
p1266
atRp1267
sVDCC0230
p1268
g3
((lp1269
VCCNC(=O)CCC\u005cC=C/C[C@H]1[C@@H](O)C[C@@H](O)[C@@H]1\u005cC=C\u005c[C@@H](O)CCC1=CC=CC=C1
p1270
atRp1271
sVDCC1386
p1272
g3
((lp1273
VCCC1=C2NC3=C(CCOC3(CC)CC(O)=O)C2=CC=C1
p1274
atRp1275
sVDCC0236
p1276
g3
((lp1277
VCO[C@]12CC[C@@]3(C[C@@H]1[C@](C)(O)C(C)(C)C)[C@H]1CC4=C5C(O[C@@H]2[C@@]35CCN1CC1CC1)=C(O)C=C4
p1278
atRp1279
sVDCC0234
p1280
g3
((lp1281
VNC12CC3CC(CC(C3)C1)C2
p1282
atRp1283
sVDCC0235
p1284
g3
((lp1285
VCC1=NC=C(N1CCO)[N+]([O-])=O
p1286
atRp1287
sVDCC1384
p1288
g3
((lp1289
VCC(=O)N(O)CCCCCNC(=O)CCC(=O)N(O)CCCCCNC(=O)CCC(=O)N(O)CCCCCN
p1290
atRp1291
sVDCC0238
p1292
g3
((lp1293
VCCCCC(C)(O)C\u005cC=C\u005c[C@H]1[C@H](O)CC(=O)[C@@H]1CCCCCCC(=O)OC
p1294
atRp1295
sVDCC0239
p1296
g3
((lp1297
VOCC1=C(O)C=CC(=C1)C(O)CNCCCCCCOCCCCC1=CC=CC=C1
p1298
atRp1299
sVDCC1380
p1300
g3
((lp1301
VNC1=NC2=C(S1)C=C(OC(F)(F)F)C=C2
p1302
atRp1303
sVDCC1548
p1304
g3
((lp1305
VCN(C)CCCN1C2=CC=CC=C2CCC2=C1C=C(Cl)C=C2
p1306
atRp1307
sVDCC0333
p1308
g3
((lp1309
VN[C@@H](CC(=O)N1CCN2C(C1)=NN=C2C(F)(F)F)CC1=CC(F)=C(F)C=C1F
p1310
atRp1311
sVDCC0620
p1312
g3
((lp1313
V[H][C@](N)(CCC(O)=N[C@@]([H])(CS(=O)(=O)CCOP(=O)(N(CCCl)CCCl)N(CCCl)CCCl)C(O)=N[C@@]([H])(C(O)=O)C1=CC=CC=C1)C(O)=O
p1314
atRp1315
sVDCC1545
p1316
g3
((lp1317
VCCN(CC)CCNC(=O)C1=CC(Cl)=C(N)C=C1OC
p1318
atRp1319
sVDCC0330
p1320
g3
((lp1321
VCC1=NC(NC2=NC=C(S2)C(=O)NC2=C(C)C=CC=C2Cl)=CC(=N1)N1CCN(CCO)CC1
p1322
atRp1323
sVDCC0337
p1324
g3
((lp1325
VNNC1=NN=CC2=CC=CC=C12
p1326
atRp1327
sVDCC0336
p1328
g3
((lp1329
VCCN(CC)CCNC(=O)C1=C(C)NC(\u005cC=C2/C(=O)NC3=C2C=C(F)C=C3)=C1C
p1330
atRp1331
sVDCC1541
p1332
g3
((lp1333
VOCCOCCN1CCN(CC1)C1=NC2=CC=CC=C2SC2=CC=CC=C12
p1334
atRp1335
sVDCC0334
p1336
g3
((lp1337
VNC1=NC(=O)N(C=N1)[C@H]1C[C@H](O)[C@@H](CO)O1
p1338
atRp1339
sVDCC1551
p1340
g3
((lp1341
VC[C@@H](CC1=CC=CC=C1)NC(=O)[C@@H](N)CCCCN
p1342
atRp1343
sVDCC1577
p1344
g3
((lp1345
V[Ca]
p1346
atRp1347
sVDCC1574
p1348
g3
((lp1349
V[Li+]
p1350
atRp1351
sVDCC0021
p1352
g3
((lp1353
VCN1C=NC2=C1C(=O)N(C)C(=O)N2C
p1354
atRp1355
sVDCC1644
p1356
g3
((lp1357
VOCC(CO)N[C@H]1C[C@](O)(CO)[C@@H](O)[C@H](O)[C@H]1O
p1358
atRp1359
sVDCC1098
p1360
g3
((lp1361
VCCC[C@H]1CN([C@@H](CC)C(N)=O)C(=O)C1
p1362
atRp1363
sVDCC0244
p1364
g3
((lp1365
V[H][C@@]12CC[C@@](OC(C)=O)(C#C)[C@@]1(CC)CC[C@]1([H])[C@@]3([H])CC\u005cC(C=C3CC[C@@]21[H])=N/O
p1366
atRp1367
sVDCC0243
p1368
g3
((lp1369
V[H][C@@]12OC3=C(OC)C=CC4=C3[C@@]11CCN(C)[C@]([H])(C4)[C@]1([H])CCC2=O
p1370
atRp1371
sVDCC1641
p1372
g3
((lp1373
VOC(CNCC(O)C1CCC2=C(O1)C=CC(F)=C2)C1CCC2=C(O1)C=CC(F)=C2
p1374
atRp1375
sVDCC0241
p1376
g3
((lp1377
VCC(C)(C(O)=O)C1=CC=C(C=C1)C(O)CCCN1CCC(CC1)C(O)(C1=CC=CC=C1)C1=CC=CC=C1
p1378
atRp1379
sVDCC1546
p1380
g3
((lp1381
VClC1=CC=CC(N2CCN(CCCCOC3=CC4=C(CCC(=O)N4)C=C3)CC2)=C1Cl
p1382
atRp1383
sVDCC0938
p1384
g3
((lp1385
V[Ca++].[Ca++].[Ca++].[O-]P([O-])([O-])=O.[O-]P([O-])([O-])=O
p1386
atRp1387
sVDCC1097
p1388
g3
((lp1389
V[H][C@@]12CC[C@H](O)[C@@]1(C)CC[C@]1([H])C3=C(CC[C@@]21[H])C=C(O)C=C3
p1390
atRp1391
sVDCC0248
p1392
g3
((lp1393
VClC1=CC2=C(C=C1)C(=C1CCNCC1)C1=C(CC2)C=CC=N1
p1394
atRp1395
sVDCC1542
p1396
g3
((lp1397
S'CC(=O)NC1C(C(C(OC1O)COS(=O)(=O)O)OC2C(C(C(C(O2)C(=O)O)OC3C(C(C(C(O3)CO)OC4C(C(C(C(O4)C(=O)O)O)O)OS(=O)(=O)O)OS(=O)(=O)O)NS(=O)(=O)O)O)OS(=O)(=O)O)O'
p1398
atRp1399
sVDCC1164
p1400
g3
((lp1401
V[H][C@]1(NC(=O)[C@H](CCCCN)NC(=O)[C@@H](CC2=CNC3=C2C=CC=C3)NC(=O)[C@H](CC2=CC=CC=C2)NC(=O)[C@H](CSSC[C@H](NC1=O)C(=O)N[C@H](CO)[C@@H](C)O)NC(=O)[C@H](N)CC1=CC=CC=C1)[C@@H](C)O
p1402
atRp1403
sVDCC1488
p1404
g3
((lp1405
V[O-][N+](=O)C1=CC2=C(NC(=O)CN=C2C2=CC=CC=C2Cl)C=C1
p1406
atRp1407
sVDCC1367
p1408
g3
((lp1409
VFC1=CC=C(C=C1)[C@@H]1CCNC[C@H]1COC1=CC2=C(OCO2)C=C1
p1410
atRp1411
sVDCC1363
p1412
g3
((lp1413
VCCCCCN(C)CCC(O)(P(O)(O)=O)P(O)(O)=O
p1414
atRp1415
sVDCC1361
p1416
g3
((lp1417
VCCOC1=CC=CC=C1OCCN[C@H](C)CC1=CC(=C(OC)C=C1)S(N)(=O)=O
p1418
atRp1419
sVDCC0148
p1420
g3
((lp1421
VCN1CCN(CC2=CC=C(C=C2)C(=O)NC2=CC(NC3=NC=CC(=N3)C3=CN=CC=C3)=C(C)C=C2)CC1
p1422
atRp1423
sVDCC0149
p1424
g3
((lp1425
V[H][C@@]12C[C@@H](O)[C@](O)(C(=O)CO)[C@@]1(C)C[C@H](O)[C@@]1(F)[C@@]2([H])CCC2=CC(=O)C=C[C@]12C
p1426
atRp1427
sVDCC0145
p1428
g3
((lp1429
VCC(C)NCC(O)COC1=CC=C(COCCOC(C)C)C=C1
p1430
atRp1431
sVDCC0410
p1432
g3
((lp1433
VCN1C=NC=C1[C@@](N)(C1=CC=C(Cl)C=C1)C1=CC2=C(C=C1)N(C)C(=O)C=C2C1=CC(Cl)=CC=C1
p1434
atRp1435
sVDCC0147
p1436
g3
((lp1437
VCO[C@H]1\u005cC=C\u005cO[C@@]2(C)OC3=C(C2=O)C2=C(C(O)=C3C)C(=O)C(NC(=O)\u005cC(C)=C/C=C/[C@H](C)[C@H](O)[C@@H](C)[C@@H](O)[C@@H](C)[C@H](OC(C)=O)[C@@H]1C)=C1NC3(CCN(CC3)CC(C)C)N=C21
p1438
atRp1439
sVDCC0140
p1440
g3
((lp1441
V[H][C@@]12C[C@@]3([H])[C@]4([H])C[C@]([H])(F)C5=CC(=O)C=C[C@]5(C)[C@@]4(F)[C@@H](O)C[C@]3(C)[C@@]1(OC(C)(C)O2)C(=O)CO
p1442
atRp1443
sVDCC0141
p1444
g3
((lp1445
VCCC1(C)CC(=O)NC1=O
p1446
atRp1447
sVDCC0142
p1448
g3
((lp1449
VNC(N)=NC(=O)C1=C(N)N=C(N)C(Cl)=N1
p1450
atRp1451
sVDCC0156
p1452
g3
((lp1453
V[H][C@@]12CC[C@](O)(C(=O)CO)[C@@]1(C)CC(=O)[C@@]1([H])[C@@]2([H])CCC2=CC(=O)C=C[C@]12C
p1454
atRp1455
sVDCC1525
p1456
g3
((lp1457
VC[C@@H]1O[C@H](C[C@H](N)[C@@H]1O)O[C@H]1C[C@@](O)(CC2=C1C(O)=C1C(=O)C3=CC=CC=C3C(=O)C1=C2O)C(C)=O
p1458
atRp1459
sVDCC1502
p1460
g3
((lp1461
VCOC(=O)C1=C(C)NC(C)=C(C1C1=CC=CC=C1[N+]([O-])=O)C(=O)OC
p1462
atRp1463
sVDCC1501
p1464
g3
((lp1465
VCOC1=C(OC)C=C(CC2=NC=CC3=CC(OC)=C(OC)C=C23)C=C1
p1466
atRp1467
sVDCC0700
p1468
g3
((lp1469
VCCCCC1=NC(C)=C(CC(=S)N(C)C)C(=O)N1CC1=CC=C(C=C1)C1=C(C=CC=C1)C1=NN=NN1
p1470
atRp1471
sVDCC0665
p1472
g3
((lp1473
VCC1=C(N(CC2=CC=C(OCCN3CCCCCC3)C=C2)C2=C1C=C(O)C=C2)C1=CC=C(O)C=C1
p1474
atRp1475
sVDCC1509
p1476
g3
((lp1477
VCOC1=CC=CC=C1OCCNCC(O)COC1=CC=CC2=C1C1=CC=CC=C1N2
p1478
atRp1479
sVDCC1508
p1480
g3
((lp1481
VCC(O)(CS(=O)(=O)C1=CC=C(F)C=C1)C(=O)NC1=CC(=C(C=C1)C#N)C(F)(F)F
p1482
atRp1483
sVDCC1267
p1484
g3
((lp1485
V[H][C@@]12CC[C@H](C(C)=O)[C@@]1(C)CC[C@@]1([H])[C@@]2([H])CCC2=CC(=O)CC[C@]12C
p1486
atRp1487
sVDCC1468
p1488
g3
((lp1489
VCN1C=NC(=C1SC1=NC=NC2=C1NC=N2)[N+]([O-])=O
p1490
atRp1491
sVDCC0467
p1492
g3
((lp1493
VCCCCNC1=CC=C(C=C1)C(=O)OCCN(C)C
p1494
atRp1495
sVDCC1465
p1496
g3
((lp1497
VCCN(C)C(=O)OC1=CC=CC(=C1)[C@H](C)N(C)C
p1498
atRp1499
sVDCC1830
p1500
g3
((lp1501
VNS(=O)(=O)C1=CC2=C(NCNS2(=O)=O)C=C1C(F)(F)F
p1502
atRp1503
sVDCC0463
p1504
g3
((lp1505
V[H]\u005cC(CN1CCCC1)=C(\u005cC1=CC=C(C)C=C1)C1=CC=CC(=N1)C(\u005c[H])=C(/[H])C(O)=O
p1506
atRp1507
sVDCC1461
p1508
g3
((lp1509
VC\u005cC(\u005cC=C\u005cC1=C(C)CCCC1(C)C)=C/C=C/C(/C)=C\u005cC(O)=O
p1510
atRp1511
sVDCC0460
p1512
g3
((lp1513
V[H][C@@]1(CN=C(O)C2=C(O)C(Cl)=CC(Cl)=C2OC)CCCN1CC
p1514
atRp1515
sVDCC1372
p1516
g3
((lp1517
V[O-][N+](=O)OCC(CO[N+]([O-])=O)O[N+]([O-])=O
p1518
atRp1519
sVDCC0063
p1520
g3
((lp1521
VOC(=O)COCCN1CCN(CC1)C(C1=CC=CC=C1)C1=CC=C(Cl)C=C1
p1522
atRp1523
sVDCC0061
p1524
g3
((lp1525
VCOC1=CC2=C(C=C1)N=C(N2)S(=O)CC1=NC=C(C)C(OC)=C1C
p1526
atRp1527
sVDCC0060
p1528
g3
((lp1529
VCC(C)NCC(O)COC1=CC=C(CC(N)=O)C=C1
p1530
atRp1531
sVDCC0067
p1532
g3
((lp1533
V[H][C@@]12N(C)C3=CC(OC)=C(C=C3[C@@]11CCN3CC=C[C@@](CC)([C@@H](OC(C)=O)[C@@]2(O)C(=O)OC)[C@@]13[H])[C@]1(C[C@@]2([H])CN(CC(CC)=C2)CC2=C1NC1=CC=CC=C21)C(=O)OC
p1534
atRp1535
sVDCC0066
p1536
g3
((lp1537
VOC(C1CCCCN1)C1=CC(=NC2=C1C=CC=C2C(F)(F)F)C(F)(F)F
p1538
atRp1539
sVDCC1205
p1540
g3
((lp1541
VCOC1=CC(C(O)CNC(=O)CN)=C(OC)C=C1
p1542
atRp1543
sVDCC0064
p1544
g3
((lp1545
VCOC1=CC=C(C=C1)[C@@H]1SC2=CC=CC=C2N(CCN(C)C)C(=O)[C@@H]1OC(C)=O
p1546
atRp1547
sVDCC0069
p1548
g3
((lp1549
VCN1CCN(CC1)C1=NC2=CC(Cl)=CC=C2NC2=CC=CC=C12
p1550
atRp1551
sVDCC0364
p1552
g3
((lp1553
VCN1CC[C@@H]([C@H](O)C1)C1=C(O)C=C(O)C2=C1OC(=CC2=O)C1=CC=CC=C1Cl
p1554
atRp1555
sVDCC0209
p1556
g3
((lp1557
VCN1C2=C(C=C(Cl)C=C2)C(=NCC1=O)C1=CC=CC=C1
p1558
atRp1559
sVDCC0361
p1560
g3
((lp1561
VONC(=O)CCCCCCC(=O)NC1=CC=CC=C1
p1562
atRp1563
sVDCC1218
p1564
g3
((lp1565
VClC1=C(CCN2CCN(CC2)C2=NSC3=CC=CC=C23)C=C2CC(=O)NC2=C1
p1566
atRp1567
sVDCC0203
p1568
g3
((lp1569
VNC(=O)C1=NN(C=N1)[C@@H]1O[C@H](CO)[C@@H](O)[C@H]1O
p1570
atRp1571
sVDCC0202
p1572
g3
((lp1573
VCCN(CC1=CC=NC=C1)C(=O)C(CO)C1=CC=CC=C1
p1574
atRp1575
sVDCC0201
p1576
g3
((lp1577
VCC1CC2=CC=CC=C2N1NC(=O)C1=CC(=C(Cl)C=C1)S(N)(=O)=O
p1578
atRp1579
sVDCC0207
p1580
g3
((lp1581
V[H][C@@]12CC[C@@](OC(C)=O)(C#C)[C@@]1(C)CC[C@]1([H])[C@@]3([H])CC[C@H](OC(C)=O)C=C3CC[C@@]21[H]
p1582
atRp1583
sVDCC0206
p1584
g3
((lp1585
VCC(C)C1=CC=CC(C(C)C)=C1O
p1586
atRp1587
sVDCC1210
p1588
g3
((lp1589
VCC(C)C[C@H](CN)CC(O)=O
p1590
atRp1591
sVDCC1590
p1592
g3
((lp1593
V[H][C@@]12OC3=C(OC(C)=O)C=CC4=C3[C@@]11CCN(C)[C@]([H])(C4)[C@]1([H])C=C[C@@H]2OC(C)=O
p1594
atRp1595
sVDCC1593
p1596
g3
((lp1597
VC[C@H](N)CC1=CC=CC=C1
p1598
atRp1599
sVDCC1594
p1600
g3
((lp1601
V[H][C@@]1(CC[C@@]2([H])[C@]3([H])[C@@H](O)C[C@]4([H])C[C@H](O)CC[C@]4(C)[C@@]3([H])CC[C@]12C)[C@H](C)CCC(O)=O
p1602
atRp1603
sVDCC1595
p1604
g3
((lp1605
VO=C(O[C@H]1CN2CCC1CC2)N1CCC2=CC=CC=C2[C@@H]1C1=CC=CC=C1
p1606
atRp1607
sVDCC1699
p1608
g3
((lp1609
V[H][C@@]12CC[C@@](O)(C#C)[C@@]1(CC)CC[C@]1([H])[C@@]3([H])CCC(C=C3CC[C@@]21[H])=NO
p1610
atRp1611
sVDCC1227
p1612
g3
((lp1613
VC[C@@H]1CCN([C@H](C1)C(O)=O)C(=O)[C@H](CCCN=C(N)N)NS(=O)(=O)C1=CC=CC2=C1NC[C@H](C)C2
p1614
atRp1615
sVDCC0247
p1616
g3
((lp1617
VCCCC1=NC2=C(C=C(C=C2C)C2=NC3=CC=CC=C3N2C)N1CC1=CC=C(C=C1)C1=CC=CC=C1C(O)=O
p1618
atRp1619
sVDCC1737
p1620
g3
((lp1621
VCC(C)C[C@H](NC(=O)[C@H](CCC1=CC=CC=C1)NC(=O)CN1CCOCC1)C(=O)N[C@@H](CC1=CC=CC=C1)C(=O)N[C@@H](CC(C)C)C(=O)[C@@]1(C)CO1
p1622
atRp1623
sVDCC1046
p1624
g3
((lp1625
VCN(C)C(=O)[C@H]1CC[C@H](NC(=O)C(=O)NC2=NC=C(Cl)C=C2)[C@@H](C1)NC(=O)C1=NC2=C(CN(C)CC2)S1
p1626
atRp1627
sVDCC1733
p1628
g3
((lp1629
VC\u005cC(O)=C(/C#N)C(=O)NC1=CC=C(C=C1)C(F)(F)F
p1630
atRp1631
sVDCC0204
p1632
g3
((lp1633
VCCC(=O)N(C1CCN(CCC2=CC=CC=C2)CC1)C1=CC=CC=C1
p1634
atRp1635
sVDCC0168
p1636
g3
((lp1637
VCC\u005cC(=C(/C1=CC=CC=C1)C1=CC=C(OCCN(C)C)C=C1)C1=CC=CC=C1
p1638
atRp1639
sVDCC1284
p1640
g3
((lp1641
VCCOC(=O)C1(CCN(C)CC1)C1=CC=CC=C1
p1642
atRp1643
sVDCC1285
p1644
g3
((lp1645
VCOC1=C(OC)C=C2C(N)=NC(=NC2=C1)N1CCN(CC1)C(=O)C1=CC=CO1
p1646
atRp1647
sVDCC1329
p1648
g3
((lp1649
VCCCC(C)C1(CC)C(=O)NC(=S)NC1=O
p1650
atRp1651
sVDCC1328
p1652
g3
((lp1653
VCC(CCC1=CC=CC=C1)NCC(O)C1=CC(C(N)=O)=C(O)C=C1
p1654
atRp1655
sVDCC1282
p1656
g3
((lp1657
VFC1=CC=C(C=C1)C(=O)CCCN1CCC(=CC1)N1C(=O)NC2=CC=CC=C12
p1658
atRp1659
sVDCC0246
p1660
g3
((lp1661
VCN1CCCCC1C(=O)NC1=C(C)C=CC=C1C
p1662
atRp1663
sVDCC1224
p1664
g3
((lp1665
VClCCNC(=O)N(CCCl)N=O
p1666
atRp1667
sVDCC1321
p1668
g3
((lp1669
V[H][C@@]12N(C)C3=CC(OC)=C(C=C3[C@@]11CCN3CC=C[C@](CC)([C@@]13[H])[C@@]([H])(OC(C)=O)[C@]2(O)C(=O)OC)[C@]1(C[C@@]2([H])CN(C[C@](O)(CC)C2)CCC2=C1NC1=CC=CC=C21)C(=O)OC
p1670
atRp1671
sVDCC0932
p1672
g3
((lp1673
VOC1=NN=C(CC2=CC(C(=O)N3CCN(CC3)C(=O)C3CC3)=C(F)C=C2)C2=CC=CC=C12
p1674
atRp1675
sVDCC1495
p1676
g3
((lp1677
VCC1=C(C=NO1)C(=O)NC1=CC=C(C=C1)C(F)(F)F
p1678
atRp1679
sVDCC1437
p1680
g3
((lp1681
V[H]C1CC[C@]2(C)[C@]([H])(CC[C@@]2([H])\u005cC1=C\u005cC=C1C[C@@H](O)C[C@H](O)C1)[C@H](C)\u005cC=C\u005c[C@H](C)C(O)(C)C
p1682
atRp1683
sVDCC0429
p1684
g3
((lp1685
VCN(C)C\u005cC=C\u005cC(=O)NC1=C(O[C@H]2CCOC2)C=C2N=CN=C(NC3=CC(Cl)=C(F)C=C3)C2=C1
p1686
atRp1687
sVDCC1135
p1688
g3
((lp1689
VCC(C)C[C@H](NC(=O)[C@@H](CCCNC(N)=O)NC(=O)[C@H](CC1=CC=C(O)C=C1)NC(=O)[C@H](CO)NC(=O)[C@@H](CC1=CN=CC=C1)NC(=O)[C@@H](CC1=CC=C(Cl)C=C1)NC(=O)[C@@H](CC1=CC2=CC=CC=C2C=C1)NC(C)=O)C(=O)N[C@@H](CCCNC(N)=N)C(=O)N1CCC[C@H]1C(=O)N[C@H](C)C(N)=O
p1690
atRp1691
sVDCC1849
p1692
g3
((lp1693
VCOC1=CC=C(CN(CCN(C)C)C2=NC=CC=C2)C=C1
p1694
atRp1695
sVDCC1559
p1696
g3
((lp1697
VCOC1=CC=C(C[C@@H](C)NC[C@H](O)C2=CC(NC=O)=C(O)C=C2)C=C1
p1698
atRp1699
sVDCC0249
p1700
g3
((lp1701
VC[C@](N)(CC1=CC=C(O)C(O)=C1)C(O)=O
p1702
atRp1703
sVDCC0048
p1704
g3
((lp1705
VCCCC(CCC)C(O)=O
p1706
atRp1707
sVDCC1436
p1708
g3
((lp1709
VNS(=O)(=O)CC1=NOC2=CC=CC=C12
p1710
atRp1711
sVDCC0421
p1712
g3
((lp1713
VOC12CC3CC(C1)CC(C3)(C2)NCC(=O)N1CCC[C@H]1C#N
p1714
atRp1715
sVDCC1423
p1716
g3
((lp1717
VCC1=NC2=C(CCN(C(=O)C3=CC=C(NC(=O)C4=CC=CC=C4C4=CC=CC=C4)C=C3)C3=CC=CC=C23)N1
p1718
atRp1719
sVDCC0038
p1720
g3
((lp1721
VCCCC1=NC(=C(N1CC1=CC=C(C=C1)C1=C(C=CC=C1)C1=NN=NN1)C(O)=O)C(C)(C)O
p1722
atRp1723
sVDCC0426
p1724
g3
((lp1725
VCOC1=C(O)C=C2CCC3C4CC[C@H](O)[C@@]4(C)CCC3C2=C1
p1726
atRp1727
sVDCC1811
p1728
g3
((lp1729
VCC(C)NCC(O)COC1=CC=C(CCOCC2CC2)C=C1
p1730
atRp1731
sVDCC1810
p1732
g3
((lp1733
VCN1CCC(CC1)=C1C2=CC=CC=C2CCC2=C1N=CC=C2
p1734
atRp1735
sVDCC0036
p1736
g3
((lp1737
VCOCCC1=CC=C(OCC(O)CNC(C)C)C=C1
p1738
atRp1739
sVDCC0037
p1740
g3
((lp1741
V[H][C@@]12CO[C@@]3(COS(N)(=O)=O)OC(C)(C)O[C@@]3([H])[C@]1([H])OC(C)(C)O2
p1742
atRp1743
sVDCC0031
p1744
g3
((lp1745
VCC(C)CC1(CC=C)C(=O)NC(=O)NC1=O
p1746
atRp1747
sVDCC0032
p1748
g3
((lp1749
VO=C1NC(=O)C(N1)(C1=CC=CC=C1)C1=CC=CC=C1
p1750
atRp1751
sVDCC0033
p1752
g3
((lp1753
VClC1=CC=CC=C1C(N1C=CN=C1)(C1=CC=CC=C1)C1=CC=CC=C1
p1754
atRp1755
sVDCC1491
p1756
g3
((lp1757
VCC[C@H]1[C@@H](CC2=CN=CN2C)COC1=O
p1758
atRp1759
sVDCC0332
p1760
g3
((lp1761
VCS(=O)(=O)CCNCC1=CC=C(O1)C1=CC2=C(C=C1)N=CN=C2NC1=CC(Cl)=C(OCC2=CC(F)=CC=C2)C=C1
p1762
atRp1763
sVDCC1846
p1764
g3
((lp1765
VCN1C(CSCC(F)(F)F)NC2=CC(Cl)=C(C=C2S1(=O)=O)S(N)(=O)=O
p1766
atRp1767
sVDCC0875
p1768
g3
((lp1769
V[O-][N+](=O)OCCNC(=O)C1=CC=CN=C1
p1770
atRp1771
sVDCC0100
p1772
g3
((lp1773
VCNCCC(OC1=CC=C(C=C1)C(F)(F)F)C1=CC=CC=C1
p1774
atRp1775
sVDCC0103
p1776
g3
((lp1777
VNC1=CC=CC2=C1CN(C1CCC(=O)NC1=O)C2=O
p1778
atRp1779
sVDCC0104
p1780
g3
((lp1781
VOC1=CC=C(C=C1)C1=C(C(=O)C2=CC=C(OCCN3CCCCC3)C=C2)C2=C(S1)C=C(O)C=C2
p1782
atRp1783
sVDCC0105
p1784
g3
((lp1785
VCC1=CC=C(C=C1)C1=CC(=NN1C1=CC=C(C=C1)S(N)(=O)=O)C(F)(F)F
p1786
atRp1787
sVDCC0106
p1788
g3
((lp1789
VBrC1=C(NC2=NCCN2)C=CC2=NC=CN=C12
p1790
atRp1791
sVDCC0107
p1792
g3
((lp1793
VCCN1C=C(C(O)=O)C(=O)C2=CC(F)=C(C=C12)N1CCN(C)CC1
p1794
atRp1795
sVDCC0331
p1796
g3
((lp1797
VCOCCCOC1=C(OC)C=CC(C[C@@H](C[C@H](N)[C@@H](O)C[C@@H](C(C)C)C(=O)NCC(C)(C)C(N)=O)C(C)C)=C1
p1798
atRp1799
sVDCC0109
p1800
g3
((lp1801
VCCC(=O)OC(OP(=O)(CCCCC1=CC=CC=C1)CC(=O)N1C[C@@H](C[C@H]1C(O)=O)C1CCCCC1)C(C)C
p1802
atRp1803
sVDCC0169
p1804
g3
((lp1805
VCCCCC1=NC(Cl)=C(CO)N1CC1=CC=C(C=C1)C1=CC=CC=C1C1=NNN=N1
p1806
atRp1807
sVDCC1399
p1808
g3
((lp1809
VOC(=O)C1=CC(=CC=C1O)\u005cN=N\u005cC1=CC=C(C=C1)S(=O)(=O)NC1=NC=CC=C1
p1810
atRp1811
sVDCC1393
p1812
g3
((lp1813
V[H][C@@]12C[C@@H](C)[C@](O)(C(=O)CCl)[C@@]1(C)C[C@H](O)[C@@]1(Cl)[C@@]2([H])CCC2=CC(=O)C=C[C@]12C
p1814
atRp1815
sVDCC1259
p1816
g3
((lp1817
VNC[C@H](O)C1=CC(O)=C(O)C=C1
p1818
atRp1819
sVDCC1258
p1820
g3
((lp1821
VCN(C)CCOC(C)(C1=CC=CC=C1)C1=CC=CC=N1
p1822
atRp1823
sVDCC1396
p1824
g3
((lp1825
VCCCCS(=O)(=O)N[C@@H](CC1=CC=C(OCCCCC2CCNCC2)C=C1)C(O)=O
p1826
atRp1827
sVDCC1395
p1828
g3
((lp1829
VCCCCC[C@H](O)C=C[C@H]1[C@H](O)CC(=O)[C@@H]1CCCCCCC(O)=O
p1830
atRp1831
sVDCC0328
p1832
g3
((lp1833
VCC1=CC(OCCCC(C)(C)C(O)=O)=C(C)C=C1
p1834
atRp1835
sVDCC0329
p1836
g3
((lp1837
V[H][C@@]12C[C@H](O)[C@@]3(C)C(=O)[C@H](O)C4=C(C)[C@H](C[C@@](O)([C@@H](OC(=O)C5=CC=CC=C5)[C@]3([H])[C@@]1(CO2)OC(C)=O)C4(C)C)OC(=O)[C@H](O)[C@@H](NC(=O)OC(C)(C)C)C1=CC=CC=C1
p1838
atRp1839
sVDCC0083
p1840
g3
((lp1841
V[H][C@]12SC(C)(C)[C@@H](N1C(=O)[C@H]2NC(=O)[C@H](N)C1=CC=CC=C1)C(O)=O
p1842
atRp1843
sVDCC0082
p1844
g3
((lp1845
VCN(CCOC1=CC=C(CC2SC(=O)NC2=O)C=C1)C1=CC=CC=N1
p1846
atRp1847
sVDCC0085
p1848
g3
((lp1849
V[H][C@@]12CC[C@@]3(CCC(=O)O3)[C@@]1(C)CC[C@@]1([H])[C@@]2([H])[C@@]([H])(CC2=CC(=O)CC[C@]12C)SC(C)=O
p1850
atRp1851
sVDCC0084
p1852
g3
((lp1853
V[H][C@]12SC(C)(C)[C@@H](N1C(=O)[C@H]2NC(=O)COC1=CC=CC=C1)C(O)=O
p1854
atRp1855
sVDCC0087
p1856
g3
((lp1857
VCC1=CC=C(C=C1)C(=C/CN1CCCC1)\u005cC1=CC=CC=N1
p1858
atRp1859
sVDCC0086
p1860
g3
((lp1861
VCOC1=CC=CC=C1OCC(O)COC(N)=O
p1862
atRp1863
sVDCC0320
p1864
g3
((lp1865
VCNC1(CCCCC1=O)C1=CC=CC=C1Cl
p1866
atRp1867
sVDCC0321
p1868
g3
((lp1869
V[H][C@@]12C[C@H]3OC(CCC)O[C@@]3(C(=O)CO)[C@@]1(C)C[C@H](O)[C@@]1([H])[C@@]2([H])CCC2=CC(=O)C=C[C@]12C
p1870
atRp1871
sVDCC0322
p1872
g3
((lp1873
VNCCN.CN1C2=C(NC=N2)C(=O)N(C)C1=O.CN1C2=C(NC=N2)C(=O)N(C)C1=O
p1874
atRp1875
sVDCC0323
p1876
g3
((lp1877
V[H][C@]12[C@H](OC(=O)C3=CC=CC=C3)[C@]3(O)C[C@H](OC(=O)[C@H](O)[C@@H](NC(=O)C4=CC=CC=C4)C4=CC=CC=C4)C(C)=C([C@@H](OC(C)=O)C(=O)[C@]1(C)[C@@H](O)C[C@H]1OC[C@@]21OC(C)=O)C3(C)C
p1878
atRp1879
sVDCC1498
p1880
g3
((lp1881
VCN[C@H]1CC[C@@H](C2=CC(Cl)=C(Cl)C=C2)C2=CC=CC=C12
p1882
atRp1883
sVDCC0326
p1884
g3
((lp1885
VN[C@@H](CC1=CC(O)=C(O)C=C1)C(O)=O
p1886
atRp1887
sVDCC0327
p1888
g3
((lp1889
VFCOC(C(F)(F)F)C(F)(F)F
p1890
atRp1891
sVDCC0240
p1892
g3
((lp1893
VCC(=O)OC1=CC=CC=C1C(O)=O
p1894
atRp1895
sVDCC1624
p1896
g3
((lp1897
VO=C1NC=CC(=O)N1
p1898
atRp1899
sVDCC1615
p1900
g3
((lp1901
VNC(=O)C1=CC=CN=C1
p1902
atRp1903
sVDCC1614
p1904
g3
((lp1905
VNCCCC[C@H](NC(=O)[C@@H]1CCCN1C(=O)[C@@H]1CSSC[C@H](NC(=O)CNC(=O)CNC(=O)CN)C(=O)N[C@@H](CC2=CC=C(O)C=C2)C(=O)N[C@@H](CC2=CC=CC=C2)C(=O)N[C@@H](CCC(N)=O)C(=O)N[C@@H](CC(N)=O)C(=O)N1)C(=O)NCC(N)=O
p1906
atRp1907
sVDCC0138
p1908
g3
((lp1909
VOC(=O)CC1=CC=CC=C1NC1=C(Cl)C=CC=C1Cl
p1910
atRp1911
sVDCC0254
p1912
g3
((lp1913
VCN(C)CCOC(=O)C(C1=CC=CC=C1)C1(O)CCCC1
p1914
atRp1915
sVDCC0255
p1916
g3
((lp1917
VCOC1=CC=C(CC(C)NCC(O)C2=CC(NC=O)=C(O)C=C2)C=C1
p1918
atRp1919
sVDCC0256
p1920
g3
((lp1921
VNC1=NC(=O)N(C=C1)[C@@H]1O[C@H](CO)[C@@H](O)[C@@H]1O
p1922
atRp1923
sVDCC0257
p1924
g3
((lp1925
VNC[C@@H]1O[C@H](O[C@@H]2[C@@H](CO)O[C@@H](O[C@@H]3[C@@H](O)[C@H](N)C[C@H](N)[C@H]3O[C@H]3O[C@H](CN)[C@@H](O)[C@H](O)[C@H]3N)[C@@H]2O)[C@H](N)[C@@H](O)[C@@H]1O
p1926
atRp1927
sVDCC0250
p1928
g3
((lp1929
VO[C@@H](CC[C@@H]1[C@H](N(C1=O)C1=CC=C(F)C=C1)C1=CC=C(O)C=C1)C1=CC=C(F)C=C1
p1930
atRp1931
sVDCC0251
p1932
g3
((lp1933
VOCCN(CCO)C1=NC2=C(N=C(N=C2N2CCCCC2)N(CCO)CCO)C(=N1)N1CCCCC1
p1934
atRp1935
sVDCC0252
p1936
g3
((lp1937
V[H][C@@]12CC[C@@](O)(C#C)[C@@]1(C)CC[C@]1([H])C3=C(CC[C@@]21[H])C=C(O)C=C3
p1938
atRp1939
sVDCC0253
p1940
g3
((lp1941
VCCN1C=C(C(O)=O)C(=O)C2=CC(F)=C(N3CCNC(C)C3)C(F)=C12
p1942
atRp1943
sVDCC0881
p1944
g3
((lp1945
V[H][C@@]12CC[C@@](O)(CC#N)[C@@]1(C)CCC1=C3CCC(=O)C=C3CC[C@@]21[H]
p1946
atRp1947
sVDCC1678
p1948
g3
((lp1949
VOCC(C)(CO)C(=O)O[C@@H]1CC[C@@H](C[C@@H](C)[C@]2([H])CC(=O)[C@H](C)\u005cC=C(C)\u005c[C@@H](O)[C@@H](OC)C(=O)[C@H](C)C[C@H](C)\u005cC=C\u005cC=C\u005cC=C(C)\u005c[C@@H](OC)C[C@]3([H])CC[C@@H](C)[C@@](O)(O3)C(=O)C(=O)N3CCCC[C@H]3C(=O)O2)C[C@H]1OC
p1950
atRp1951
sVDCC0258
p1952
g3
((lp1953
VNCC1(CC(O)=O)CCCCC1
p1954
atRp1955
sVDCC0259
p1956
g3
((lp1957
VCOC1=CC=CC2=C1C(=O)C1=C(O)C3=C(C[C@](O)(C[C@@H]3O[C@H]3C[C@H](N)[C@H](O)[C@H](C)O3)C(=O)CO)C(O)=C1C2=O
p1958
atRp1959
sVDCC0887
p1960
g3
((lp1961
VCC(C)CCC[C@@H](C)[C@@]1([H])CC[C@@]2([H])\u005cC(CCC[C@]12C)=C\u005cC=C1\u005cC[C@@H](O)CCC1=C
p1962
atRp1963
sVDCC0886
p1964
g3
((lp1965
VCC(C)O
p1966
atRp1967
sVDCC1238
p1968
g3
((lp1969
VCCCN1CCCC[C@H]1C(=O)NC1=C(C)C=CC=C1C
p1970
atRp1971
sVDCC0520
p1972
g3
((lp1973
VC[N+](C)(C)CC([O-])=O
p1974
aVOC(O)C(Cl)(Cl)Cl.C[N+](C)(C)CC([O-])=O
p1975
atRp1976
sVDCC0132
p1977
g3
((lp1978
VNC(=O)N1C2=CC=CC=C2C=CC2=CC=CC=C12
p1979
atRp1980
sVDCC1241
p1981
g3
((lp1982
V[H][C@@]12CC[C@@](O)(C#C)[C@@]1(CC)CC(=C)[C@]1([H])[C@@]3([H])CCCC=C3CC[C@@]21[H]
p1983
atRp1984
sVDCC0349
p1985
g3
((lp1986
VN[C@@H](CSCCCC\u005cC=C(/NC(=O)[C@H]1CC1(C)C)C(=O)O)C(=O)O
p1987
atRp1988
sVDCC1242
p1989
g3
((lp1990
VCC1=CC2=C(C=C1C(=C)C1=CC=C(C=C1)C(O)=O)C(C)(C)CCC2(C)C
p1991
atRp1992
sVDCC1172
p1993
g3
((lp1994
VN[C@@H](CCCNC(N)=N)C(O)=O
p1995
atRp1996
sVDCC0640
p1997
g3
((lp1998
S'CCN(CC)C(=O)C(C)NS(=O)(=O)C1=CN(N=C1)C'
p1999
atRp2000
sVDCC1244
p2001
g3
((lp2002
VCCCC(C)C1(CC)C(=O)NC(=O)NC1=O
p2003
atRp2004
sVDCC1245
p2005
g3
((lp2006
VOC[C@H]1O[C@H](C[C@@H]1O)N1C=C(F)C(=O)NC1=O
p2007
atRp2008
sVDCC1374
p2009
g3
((lp2010
V[H][C@](CC1=CC=CC=C1)(N=C(O)[C@@]1([H])CC[C@@]([H])(CC1)C(C)C)C(O)=O
p2011
atRp2012
sVDCC1376
p2013
g3
((lp2014
VCC1=C(CCN2CCC(CC2)C2=NOC3=C2C=CC(F)=C3)C(=O)N2CCCCC2=N1
p2015
atRp2016
sVDCC1377
p2017
g3
((lp2018
VCOC1=CC2=C(NC(=N2)[S@@](=O)CC2=NC=C(C)C(OC)=C2C)C=C1
p2019
atRp2020
sVDCC1370
p2021
g3
((lp2022
VCCN(CC)CCOC(=O)C1=CC=C(N)C=C1
p2023
atRp2024
sVDCC0818
p2025
g3
((lp2026
V[Li+]
p2027
atRp2028
sVDCC1247
p2029
g3
((lp2030
V[H][C@@]12OC3=C(O)C=CC4=C3[C@@]11CCN(C)[C@]([H])(C4)[C@]1([H])CCC2=O
p2031
atRp2032
sVDCC1234
p2033
g3
((lp2034
VC[C@@H](O)[C@H](NC(=O)[C@@H](C)[C@H](O)[C@@H](C)NC(=O)[C@@H](NC(=O)C1=C(C)C(N)=NC(=N1)[C@H](CC(N)=O)NC[C@H](N)C(N)=O)[C@@H](OC1OC(CO)C(O)C(O)C1OC1OC(CO)C(O)C(OC(N)=O)C1O)C1=CN=CN1)C(=O)NCCC1=NC(=CS1)C1=NC(=CS1)C(=O)NCCC[S+](C)C
p2035
atRp2036
sVDCC0058
p2037
g3
((lp2038
V[Br-].[H][C@]12CC[C@]([H])(C[C@@H](C1)OC(=O)C(CO)C1=CC=CC=C1)[N@+]2(C)C(C)C
p2039
atRp2040
sVDCC0171
p2041
g3
((lp2042
VCC(=O)CC(C1=CC=CC=C1)C1=C(O)C2=C(OC1=O)C=CC=C2
p2043
atRp2044
sVDCC0173
p2045
g3
((lp2046
VCOC1=C(C\u005cC=C(/C)CCC(=O)OCCN2CCOCC2)C(O)=C2C(=O)OCC2=C1C
p2047
atRp2048
sVDCC0175
p2049
g3
((lp2050
V[H][C@@]12CCCN1C(=O)[C@H](CC1=CC=CC=C1)N1C(=O)[C@](C)(NC(=O)[C@H]3CN(C)[C@]4([H])CC5=CNC6=CC=CC(=C56)C4=C3)O[C@@]21O
p2051
atRp2052
sVDCC0174
p2053
g3
((lp2054
VNS(=O)(=O)C1=C(Cl)C=C(NCC2=CC=CO2)C(=C1)C(O)=O
p2055
atRp2056
sVDCC0177
p2057
g3
((lp2058
V[H][C@@]12OC3=C(O)C=CC4=C3[C@@]11CCN(CC3CC3)[C@]([H])(C4)[C@]1(O)CCC2=O
p2059
atRp2060
s.