(dp1
VDCC0770
p2
c__builtin__
set
p3
((lp4
S'CC1=C(C=CC(=C1)F)C2CC(CCN2C(=O)N(C)C(C)C3=CC(=CC(=C3)C(F)(F)F)C(F)(F)F)N4CCN(CC4)C(=O)C.CS(=O)(=O)O'
p5
atRp6
sVDCC0777
p7
g3
((lp8
VCN(C1=CC2=NN(C)C(C)=C2C=C1)C1=CC=NC(NC2=CC=C(C)C(=C2)S(N)(=O)=O)=N1
p9
atRp10
sVDCC1515
p11
g3
((lp12
VCNCCCN1C2=CC=CC=C2CCC2=CC=CC=C12
p13
atRp14
sVDCC1493
p15
g3
((lp16
VCOC1=CC(NC(C)CCCN)=C2N=CC=CC2=C1
p17
atRp18
sVDCC1459
p19
g3
((lp20
VCN1CCCC(CC1)N1N=C(CC2=CC=C(Cl)C=C2)C2=CC=CC=C2C1=O
p21
atRp22
sVDCC1450
p23
g3
((lp24
V[H][C@@]12CC[C@H](O)[C@@]1(C)CC[C@@]1([H])C2[C@H](CCCCCCCCCS(=O)CCCC(F)(F)C(F)(F)F)CC2=CC(O)=CC=C12
p25
atRp26
sVDCC1453
p27
g3
((lp28
VCCN[C@@H]1C[C@H](N)[C@@H](O[C@H]2OC(CN)=CC[C@H]2N)[C@H](O)[C@H]1O[C@H]1OC[C@H](O)[C@@H](NC)[C@@]1(C)O
p29
atRp30
sVDCC1455
p31
g3
((lp32
VCC(C)NCC(O)COC1=CC=CC2=C1C=CN2
p33
atRp34
sVDCC1454
p35
g3
((lp36
V[H][C@@]12CC[C@](O)(C(=O)CO)[C@@]1(C)C[C@H](O)[C@@]1([H])[C@@]2([H])C[C@H](C)C2=CC(=O)C=C[C@]12C
p37
atRp38
sVDCC1489
p39
g3
((lp40
VCOC(=O)N[C@H](C(=O)N[C@@H](CC1=CC=CC=C1)[C@@H](O)CN(CC1=CC=C(C=C1)C1=CC=CC=N1)NC(=O)[C@@H](NC(=O)OC)C(C)(C)C)C(C)(C)C
p41
atRp42
sVDCC1218
p43
g3
((lp44
VClC1=C(CCN2CCN(CC2)C2=NSC3=CC=CC=C23)C=C2CC(=O)NC2=C1
p45
atRp46
sVDCC0070
p47
g3
((lp48
V[H][C@@]12CC[C@@](O)(C#C)[C@@]1(CC)CC[C@]1([H])[C@@]3([H])CCC(=O)C=C3CC[C@@]21[H]
p49
atRp50
sVDCC0071
p51
g3
((lp52
VCCCC(C)(COC(N)=O)COC(N)=O
p53
atRp54
sVDCC0072
p55
g3
((lp56
VCC(C)(C)NCC(O)COC1=NSN=C1N1CCOCC1
p57
atRp58
sVDCC0073
p59
g3
((lp60
VCCOC(=O)C1=C(COCCN)NC(C)=C(C1C1=CC=CC=C1Cl)C(=O)OC
p61
atRp62
sVDCC0074
p63
g3
((lp64
VNC1=NC(N)=C2N=C(C(N)=NC2=N1)C1=CC=CC=C1
p65
atRp66
sVDCC0075
p67
g3
((lp68
VCNC[C@H](O)C1=CC(O)=CC=C1
p69
atRp70
sVDCC0076
p71
g3
((lp72
VCOCCOC(=O)C1=C(C)NC(C)=C(C1C1=CC(=CC=C1)[N+]([O-])=O)C(=O)OC(C)C
p73
atRp74
sVDCC0077
p75
g3
((lp76
V[H][C@@]12C[C@H](C)[C@](OC(=O)CC)(C(=O)COC(=O)CC)[C@@]1(C)C[C@H](O)[C@@]1(Cl)[C@@]2([H])CCC2=CC(=O)C=C[C@]12C
p77
atRp78
sVDCC0078
p79
g3
((lp80
VCCCC(C)(COC(N)=O)COC(=O)NC(C)C
p81
atRp82
sVDCC0079
p83
g3
((lp84
VCNC(=O)C1=NC=CC(OC2=CC=C(NC(=O)NC3=CC(=C(Cl)C=C3)C(F)(F)F)C=C2)=C1
p85
atRp86
sVDCC1857
p87
g3
((lp88
V[H][C@@]12CN(C[C@]1([H])[C@H]2N)C1=NC2=C(C=C1F)C(=O)C(=CN2C1=C(F)C=C(F)C=C1)C(O)=O
p89
atRp90
sVDCC0723
p91
g3
((lp92
VCOC1=CC2=C(C=C1OCCCN1CCCC1)N=CN=C2OC1=C(F)C2=C(NC(C)=C2)C=C1
p93
atRp94
sVDCC1851
p95
g3
((lp96
V[H][C@@]12CCCN1C(=O)[C@@H](CC)NC(=O)[C@@H](NC(=O)C1=NC=CC=C1O)[C@@H](C)OC(=O)[C@@H](NC(=O)[C@]1([H])CC(=O)[C@]([H])(CS[C@@H]3CN4CCC3CC4)CN1C(=O)[C@H](CC1=CC=C(C=C1)N(C)C)N(C)C2=O)C1=CC=CC=C1
p97
atRp98
sVDCC1850
p99
g3
((lp100
VCCC1NC(=O)C2=CC(=C(Cl)C=C2N1)S(N)(=O)=O
p101
atRp102
sVDCC1852
p103
g3
((lp104
V[H][C@]12C[C@@H](OC(=O)C3=CC(OC)=C(OC)C(OC)=C3)[C@H](OC)[C@@H](C(=O)OC)[C@@]1([H])C[C@@]1([H])N(CCC3=C1NC1=C3C=CC(OC)=C1)C2
p105
atRp106
sVDCC1637
p107
g3
((lp108
V[H][C@@](CCN1[C@@]2([H])CC[C@]1([H])C[C@]([H])(C2)N1C(C)=NN=C1C(C)C)(N=C(O)C1CCC(F)(F)CC1)C1=CC=CC=C1
p109
atRp110
sVDCC0596
p111
g3
((lp112
S'COC1=CC=C(C=C1)S(=O)(=O)NC2=C(N=CC=C2)NC3=CC=C(C=C3)O'
p113
atRp114
sVDCC1639
p115
g3
((lp116
V[H][C@]12C[C@H](NC(=O)C[C@H](O)C(C)(C)C(=O)[C@H](C)[C@@H](O)[C@@H](C)CCC[C@@]1(C)O2)C(\u005cC)=C\u005cC1=CSC(C)=N1
p117
atRp118
sVDCC0218
p119
g3
((lp120
VCO[C@@H]1C[C@@H](CC[C@H]1O)\u005cC=C(/C)[C@H]1OC(=O)[C@@H]2CCCCN2C(=O)C(=O)[C@]2(O)O[C@@H]([C@H](C[C@H]2C)OC)[C@H](C[C@@H](C)C\u005cC(C)=C\u005c[C@@H](CC=C)C(=O)C[C@H](O)[C@H]1C)OC
p121
atRp122
sVDCC0219
p123
g3
((lp124
VCCN[C@H]1C[C@H](C)S(=O)(=O)C2=C1C=C(S2)S(N)(=O)=O
p125
atRp126
sVDCC0352
p127
g3
((lp128
V[H][C@@]12CC(=O)N1[C@@H](C(O)=O)[C@](C)(CN1C=CN=N1)S2(=O)=O
p129
atRp130
sVDCC0355
p131
g3
((lp132
VOC1=CC=C(C=C1)C1=COC2=C(C(O)=CC(O)=C2)C1=O
p133
atRp134
sVDCC0354
p135
g3
((lp136
VCN(C)CCC(C1=CC=CC=C1)C1=CC=CC=N1
p137
atRp138
sVDCC0357
p139
g3
((lp140
VCC1=CC2=C(C=C1C1(CC1)C1=CC=C(C=N1)C(O)=O)C(C)(C)CCC2(C)C
p141
atRp142
sVDCC0608
p143
g3
((lp144
S'CN1C(CNC2=C1C(=O)N=C(N2)N)CNC3=CC=C(C=C3)C(=O)NC(CCC(=O)O)C(=O)[O-].CN1C(CNC2=C1C(=O)N=C(N2)N)CNC3=CC=C(C=C3)C(=O)NC(CCC(=O)O)C(=O)[O-].[Ca+2]'
p145
aS'CN1C(CNC2=C1C(=O)N=C(N2)N)CNC3=CC=C(C=C3)C(=O)NC(CCC(=O)O)C(=O)O.[Ca+2]'
p146
aS'CN1C(CNC2=C1C(=O)N=C(N2)N)CNC3=CC=C(C=C3)C(=O)NC(CCC(=O)O)C(=O)O.[Ca]'
p147
aS'CN1C(CNC2=C1C(=O)N=C(N2)N)CNC3=CC=C(C=C3)C(=O)NC(CCC(=O)[O-])C(=O)[O-].[Ca+2]'
p148
atRp149
sVDCC1204
p150
g3
((lp151
V[H][C@]12CC[C@]([H])(C[C@@H](C1)OC(=O)C(O)(C1=CC=CC=C1)C1=CC=CC=C1)[N+]21CCCC1
p152
atRp153
sVDCC0358
p154
g3
((lp155
VO[C@H](\u005cC=C\u005c[C@@H](C)[C@@]1([H])CC[C@@]2([H])\u005cC(CCC[C@]12C)=C\u005cC=C1\u005cC[C@@H](O)C[C@H](O)C1=C)C1CC1
p156
atRp157
sVDCC0212
p158
g3
((lp159
VCC(C)N=C1C=C2N(C3=CC=C(Cl)C=C3)C3=C(C=CC=C3)N=C2C=C1NC1=CC=C(Cl)C=C1
p160
atRp161
sVDCC0213
p162
g3
((lp163
VOCCN1CCN(CCCN2C3=CC=CC=C3SC3=C2C=C(Cl)C=C3)CC1
p164
atRp165
sVDCC0214
p166
g3
((lp167
VCN[C@@H](C)[C@@H](O)C1=CC=CC=C1
p168
atRp169
sVDCC0215
p170
g3
((lp171
VCN1N=NC2=C(N=CN2C1=O)C(N)=O
p172
atRp173
sVDCC0216
p174
g3
((lp175
V[H][C@@]12CC[C@](O)(C(=O)CO)[C@@]1(C)C[C@H](O)[C@@]1([H])[C@@]2([H])CCC2=CC(=O)C=C[C@]12C
p176
atRp177
sVDCC0217
p178
g3
((lp179
VCN\u005cC(NCCSCC1=CC=C(CN(C)C)O1)=C/[N+]([O-])=O
p180
atRp181
sVDCC1813
p182
g3
((lp183
VOC[C@@H](NC(=O)C(Cl)Cl)[C@H](O)C1=CC=C(C=C1)[N+]([O-])=O
p184
atRp185
sVDCC0283
p186
g3
((lp187
VCCOC(=O)C1=C(C)NC(C)=C(C1C1=CC(=CC=C1)[N+]([O-])=O)C(=O)OC
p188
atRp189
sVDCC0282
p190
g3
((lp191
VCC(C)CC1=CC=C(C=C1)C(C)C(O)=O
p192
atRp193
sVDCC0281
p194
g3
((lp195
VNC1=NC2=C(N=CN2[C@@H]2C[C@H](CO)C=C2)C(NC2CC2)=N1
p196
atRp197
sVDCC0280
p198
g3
((lp199
VCO[C@H]1\u005cC=C\u005cO[C@@]2(C)OC3=C(C2=O)C2=C(O)C(\u005cC=N\u005cN4CCN(C)CC4)=C(NC(=O)\u005cC(C)=C/C=C/[C@H](C)[C@H](O)[C@@H](C)[C@@H](O)[C@@H](C)[C@H](OC(C)=O)[C@@H]1C)C(O)=C2C(O)=C3C
p200
atRp201
sVDCC0287
p202
g3
((lp203
VCC(CN1C2=CC=CC=C2SC2=CC=CC=C12)N(C)C
p204
atRp205
sVDCC0286
p206
g3
((lp207
VCC1=CN=C(C=N1)C(=O)NCCC1=CC=C(C=C1)S(=O)(=O)NC(=O)NC1CCCCC1
p208
atRp209
sVDCC0285
p210
g3
((lp211
V[H][C@]12SC(C)(C)[C@@H](N1C(=O)[C@H]2NC(=O)[C@H](N)C1=CC=C(O)C=C1)C(O)=O
p212
atRp213
sVDCC0284
p214
g3
((lp215
VO=C(C1CCCCC1)N1CC2N(CCC3=CC=CC=C23)C(=O)C1
p216
atRp217
sVDCC1688
p218
g3
((lp219
V[H]\u005cC(=C(\u005c[H])C1=CC=CC=N1)C1=C2C=CC(SC3=CC=CC=C3C(O)=NC)=CC2=NN1
p220
atRp221
sVDCC0289
p222
g3
((lp223
VCN(C)CCOC(C1=CC=CC=C1)C1=CC=CC=C1
p224
atRp225
sVDCC0288
p226
g3
((lp227
VNC1=NC(F)=NC2=C1N=CN2[C@@H]1O[C@H](CO)[C@@H](O)[C@@H]1O
p228
atRp229
sVDCC1722
p230
g3
((lp231
VCCOC1=NC2=C(N1CC1=CC=C(C=C1)C1=CC=CC=C1C1=NOC(=O)N1)C(=CC=C2)C(=O)OCC1=C(C)OC(=O)O1
p232
atRp233
sVDCC0453
p234
g3
((lp235
S'CCC=CCC=CCC=CCC=CCC=CCC=CCCC(=O)O'
p236
atRp237
sVDCC0423
p238
g3
((lp239
S'C1OCOO1'
p240
atRp241
sVDCC1422
p242
g3
((lp243
VCC(C)(C)NCC(O)C1=CC(O)=CC(O)=C1
p244
atRp245
sVDCC0853
p246
g3
((lp247
S'CC1=CC(=C(C=C1)F)NC(=O)NC2=CC=C(C=C2)C3=C4C(=CC=C3)NN=C4N'
p248
atRp249
sVDCC1702
p250
g3
((lp251
VC[C@@H](O[C@H]1OCCN(CC2=NC(=O)N(N2)P(O)(O)=O)[C@H]1C1=CC=C(F)C=C1)C1=CC(=CC(=C1)C(F)(F)F)C(F)(F)F
p252
atRp253
sVDCC1707
p254
g3
((lp255
V[H][C@@](O)([C@@H](NC(=O)OC(C)(C)C)C1=CC=CC=C1)C(=O)O[C@@]1([H])C[C@@]2(O)[C@@]([H])(OC(=O)C3=CC=CC=C3)[C@]3([H])[C@@]4(CO[C@]4([H])C[C@]([H])(OC)[C@@]3(C)C(=O)[C@]([H])(OC)C(=C1C)C2(C)C)OC(C)=O
p256
atRp257
sVDCC1424
p258
g3
((lp259
VCCN(CC)CCOC1=CC=C(C=C1)C(=C(Cl)C1=CC=CC=C1)C1=CC=CC=C1
p260
atRp261
sVDCC0039
p262
g3
((lp263
VCN1C2=C(NC=N2)C(=O)N(C)C1=O
p264
atRp265
sVDCC1338
p266
g3
((lp267
VNC1=C2N=CN([C@@H]3O[C@H](CO)[C@@H](O)[C@H]3O)C2=NC=N1
p268
atRp269
sVDCC1339
p270
g3
((lp271
VCOC(=O)NC1=NC2=C(N1)C=C(C=C2)C(=O)C1=CC=CC=C1
p272
atRp273
sVDCC1666
p274
g3
((lp275
VCC(=O)OC1=CC2=C(CCN(C2)C(C(=O)C2CC2)C2=CC=CC=C2F)S1
p276
atRp277
sVDCC1330
p278
g3
((lp279
VCO[C@H]1C[C@@H](O[C@@H](C)[C@@H]1O)O[C@H]1[C@H](C)O[C@H](C[C@@H]1OC)O[C@H]1[C@@H](C)\u005cC=C\u005cC=C2/CO[C@@H]3[C@H](O)C(C)=C[C@@H](C(=O)O[C@H]4C[C@@H](C\u005cC=C1/C)O[C@@]1(CC[C@H](C)[C@@H](C(C)C)O1)C4)[C@]23O.CC[C@@H](C)[C@H]1O[C@@]2(CC[C@@H]1C)O[C@@H]1C\u005cC=C(C)\u005c[C@@
p280
atRp281
sVDCC1332
p282
g3
((lp283
V[H][C@]12SC(C)(C)[C@@H](N1C(=O)[C@H]2NC(=O)C1=C(OCC)C=CC2=CC=CC=C12)C(O)=O
p284
atRp285
sVDCC1333
p286
g3
((lp287
VCCN(CC)CCCC(C)NC1=C2C=CC(Cl)=CC2=NC=C1
p288
atRp289
sVDCC1334
p290
g3
((lp291
V[O-][N+](=O)C1=CC=C(O1)C=NN1CCOC1=O
p292
atRp293
sVDCC1335
p294
g3
((lp295
V[H][C@@]12CC[C@](C)(O)[C@@]1(C)CC[C@@]1([H])[C@@]2([H])CCC2=CC(=O)CC[C@]12C
p296
atRp297
sVDCC1336
p298
g3
((lp299
VNCCCC(O)(P(O)(O)=O)P(O)(O)=O
p300
atRp301
sVDCC1811
p302
g3
((lp303
VCC(C)NCC(O)COC1=CC=C(CCOCC2CC2)C=C1
p304
atRp305
sVDCC1810
p306
g3
((lp307
VCN1CCC(CC1)=C1C2=CC=CC=C2CCC2=C1N=CC=C2
p308
atRp309
sVDCC0429
p310
g3
((lp311
VCN(C)C\u005cC=C\u005cC(=O)NC1=C(O[C@H]2CCOC2)C=C2N=CN=C(NC3=CC(Cl)=C(F)C=C3)C2=C1
p312
atRp313
sVDCC1812
p314
g3
((lp315
VCN(C)CCOC(C1=CC=CC=C1)C1=CC=C(Br)C=C1
p316
atRp317
sVDCC0885
p318
g3
((lp319
VCC#CCN1C(=NC2=C1C(=O)N(CC1=NC3=C(C=CC=C3)C(C)=N1)C(=O)N2C)N1CCC[C@@H](N)C1
p320
atRp321
sVDCC1815
p322
g3
((lp323
V[H]\u005cC1=C(\u005c[H])/C(/C)=C([H])/[C@@]([H])(O)CC(=O)CC2=NC(=CO2)C(=O)N2CC[C@]([H])([C@]2([H])C(=O)O[C@]([H])(C(C)C)[C@]([H])(C)\u005cC([H])=C([H])\u005cC(O)=NC1)S(=O)(=O)CCN(CC)CC
p324
atRp325
sVDCC1814
p326
g3
((lp327
VNS(=O)(=O)C1=C(Cl)C=C2NC=NS(=O)(=O)C2=C1
p328
atRp329
sVDCC1816
p330
g3
((lp331
V[H][C@]12C[C@@H](OC(=O)C3=CC(OC)=C(OC)C(OC)=C3)[C@H](OC)[C@@H](C(=O)OC)[C@@]1([H])C[C@@]1([H])N(CCC3=C1NC1=CC=CC=C31)C2
p332
atRp333
sVDCC0427
p334
g3
((lp335
S'C1CC1CONC(=O)C2=C(C(=C(C=C2)F)F)NC3=C(C=C(C=C3)I)Cl'
p336
atRp337
sVDCC0652
p338
g3
((lp339
S'CC1=CN=C(C(=N1)OC)NS(=O)(=O)C2=C(N=CC=C2)C3=CC=C(C=C3)C4=NN=CO4'
p340
atRp341
sVDCC1024
p342
g3
((lp343
S'CCC1(C2=C(COC1=O)C(=O)N3CC4=C(C3=C2)N=C5C=CC(=C(C5=C4)CN(C)C)O)O.Cl'
p344
atRp345
sVDCC1021
p346
g3
((lp347
S'CN1C2CCC1CC(C2)OC(=O)C3=CNC4=CC=CC=C43'
p348
atRp349
sVDCC0437
p350
g3
((lp351
S'CCN1CCN(CC1)CC2=CC=C(C=C2)C3=CC4=C(N3)N=CN=C4NC(C)C5=CC=CC=C5'
p352
atRp353
sVDCC1414
p354
g3
((lp355
VCOC1=C(OC)C=C2C(=O)C(CC3CCN(CC4=CC=CC=C4)CC3)CC2=C1
p356
atRp357
sVDCC1417
p358
g3
((lp359
VCN(C)N=NC1=C(N=CN1)C(N)=O
p360
atRp361
sVDCC1411
p362
g3
((lp363
V[H][C@@]12CC[C@@](O)(C#CC)[C@@]1(C)C[C@H](C1=CC=C(C=C1)N(C)C)C1=C3CCC(=O)C=C3CC[C@@]21[H]
p364
atRp365
sVDCC1353
p366
g3
((lp367
VCC1=NC=C2CN=C(C3=CC=CC=C3F)C3=C(C=CC(Cl)=C3)N12
p368
atRp369
sVDCC1740
p370
g3
((lp371
VCOC1=NC2=C(C=C(Br)C=C2)C=C1[C@@H](C1=CC=CC=C1)[C@@](O)(CCN(C)C)C1=CC=CC2=C1C=CC=C2
p372
atRp373
sVDCC0379
p374
g3
((lp375
S'CCCCCCCCCC(=O)[O-].[Na+]'
p376
atRp377
sVDCC0139
p378
g3
((lp379
V[H][C@@]12C[C@@H](C)[C@](OC(=O)CC)(C(=O)SCF)[C@@]1(C)C[C@H](O)[C@@]1(F)[C@@]2([H])C[C@H](F)C2=CC(=O)C=C[C@]12C
p380
atRp381
sVDCC1659
p382
g3
((lp383
VO.O.O.O.O.O.O.O.O.[Na+].[Na+].[Na+].[H][C@@]1(O[Sb]2(O)(O[Sb]34([O-])O[C@@H](C([O-])=O)[C@@]([H])(O3)[C@]([H])(O4)[C@H](O)CO)O[C@@H](C([O-])=O)[C@@]1([H])O2)[C@H](O)CO
p384
atRp385
sVDCC0135
p386
g3
((lp387
VCN1[C@H]2CC[C@@H]1C[C@@H](C2)OC(=O)C(CO)C1=CC=CC=C1
p388
atRp389
sVDCC0134
p390
g3
((lp391
VCC(C)NCC(O)COC1=CC=CC2=CC=CC=C12
p392
atRp393
sVDCC0137
p394
g3
((lp395
VCCOC(=O)[C@H](CCC1=CC=CC=C1)N[C@@H](C)C(=O)N1CCC[C@H]1C(O)=O
p396
atRp397
sVDCC0136
p398
g3
((lp399
VClC1=CC=CC(Cl)=C1NC1=NCCN1
p400
atRp401
sVDCC0131
p402
g3
((lp403
VCN(CC1=CN=C2N=C(N)N=C(N)C2=N1)C1=CC=C(C=C1)C(=O)N[C@@H](CCC(O)=O)C(O)=O
p404
atRp405
sVDCC0130
p406
g3
((lp407
V[H][C@@]12CC3=C(C=C(NC(=O)CNC(C)(C)C)C(O)=C3C(=O)C1=C(O)[C@]1(O)C(=O)C(C(N)=O)=C(O)[C@@H](N(C)C)[C@]1([H])C2)N(C)C
p408
atRp409
sVDCC0133
p410
g3
((lp411
V[H][C@]12SCC(C)=C(N1C(=O)[C@H]2NC(=O)[C@H](N)C1=CC=CC=C1)C(O)=O
p412
atRp413
sVDCC0132
p414
g3
((lp415
VNC(=O)N1C2=CC=CC=C2C=CC2=CC=CC=C12
p416
atRp417
sVDCC0315
p418
g3
((lp419
VC[C@H](CS)C(=O)N1CCC[C@H]1C(O)=O
p420
atRp421
sVDCC0314
p422
g3
((lp423
VCCN[C@H]1CN(CCCOC)S(=O)(=O)C2=C1C=C(S2)S(N)(=O)=O
p424
atRp425
sVDCC0317
p426
g3
((lp427
VCC(C)(C)NCC(O)COC1=CC=CC2=C1C[C@H](O)[C@H](O)C2
p428
atRp429
sVDCC0316
p430
g3
((lp431
VCC[C@H](N1CCCC1=O)C(N)=O
p432
atRp433
sVDCC0311
p434
g3
((lp435
VClCCNP1(=O)OCCCN1CCCl
p436
atRp437
sVDCC0310
p438
g3
((lp439
VCN(C)CCOC(C1=CC=CC=C1)C1=CC=CC=C1C
p440
atRp441
sVDCC0313
p442
g3
((lp443
VCCC[C@@H]1C[C@H](N(C)C1)C(=O)NC(C(C)Cl)[C@H]1O[C@H](SC)[C@H](O)[C@@H](O)[C@H]1O
p444
atRp445
sVDCC0312
p446
g3
((lp447
V[H][C@@]12OC3=C(O)C=CC4=C3[C@@]11CCN(CC=C)[C@]([H])(C4)[C@]1(O)CCC2=O
p448
atRp449
sVDCC0416
p450
g3
((lp451
VOC(=O)C1=NC(=O)NC(=O)N1
p452
atRp453
sVDCC0319
p454
g3
((lp455
V[H][C@]12SCC(CSC3=NC(=O)C(=O)NN3C)=C(N1C(=O)[C@H]2NC(=O)C(=N/OC)\u005cC1=CSC(N)=N1)C(O)=O
p456
atRp457
sVDCC0318
p458
g3
((lp459
V[H][C@@]1(C[C@@](C)(OC)[C@@H](O)[C@H](C)O1)O[C@H]1[C@H](C)[C@@H](O[C@]2([H])O[C@H](C)C[C@@H]([C@H]2O)N(C)C)[C@@](C)(C[C@@H](C)C(=O)[C@H](C)[C@@H](O)[C@](C)(O)[C@@H](CC)OC(=O)[C@@H]1C)OC
p460
atRp461
sVDCC0417
p462
g3
((lp463
S'CCCNC(C)C(=O)NC1=C(SC=C1C)C(=O)OC.Cl'
p464
atRp465
sVDCC1482
p466
g3
((lp467
V[H][C@@]12CC(=O)[C@H](CCCCCCC(O)=O)[C@@]1([H])CC[C@@](O)(O2)C(F)(F)CCCC
p468
atRp469
sVDCC1855
p470
g3
((lp471
VCC1=CC(C)=NC(NS(=O)(=O)C2=CC=C(N)C=C2)=N1
p472
atRp473
sVDCC1481
p474
g3
((lp475
VCC12CC3CC(C)(C1)CC(N)(C3)C2
p476
atRp477
sVDCC1486
p478
g3
((lp479
VCC(C)NCC(O)C1=CC(O)=C(O)C=C1
p480
atRp481
sVDCC0414
p482
g3
((lp483
V[Na+].[O-]S(=O)(=O)CCS
p484
atRp485
sVDCC0098
p486
g3
((lp487
VCCOC(=O)N1CCC(CC1)=C1C2=C(CCC3=C1N=CC=C3)C=C(Cl)C=C2
p488
atRp489
sVDCC0099
p490
g3
((lp491
VOC(=O)CC1(CC1)CS[C@H](CCC1=CC=CC=C1C(O)(C)C)C1=CC=CC(\u005cC=C\u005cC2=NC3=C(C=CC(Cl)=C3)C=C2)=C1
p492
atRp493
sVDCC0096
p494
g3
((lp495
VCOC1=CC=CC2=C1C(=O)C1=C(O)C3=C(C[C@](O)(C[C@@H]3O[C@H]3C[C@H](N)[C@@H](O)[C@H](C)O3)C(=O)CO)C(O)=C1C2=O
p496
atRp497
sVDCC0097
p498
g3
((lp499
VCC1=C(OCC(F)(F)F)C=CN=C1CS(=O)C1=NC2=CC=CC=C2N1
p500
atRp501
sVDCC0094
p502
g3
((lp503
VNC1=NC(=O)N(C=C1)[C@@H]1O[C@H](CO)[C@@H](O)C1(F)F
p504
atRp505
sVDCC0095
p506
g3
((lp507
V[H][C@@]12C[C@H](C)[C@](O)(C(=O)CO)[C@@]1(C)C[C@H](O)[C@@]1(F)[C@@]2([H])CCC2=CC(=O)C=C[C@]12C
p508
atRp509
sVDCC0092
p510
g3
((lp511
VCOCC1=C(C2=CC=C(F)C=C2)C(\u005cC=C\u005c[C@@H](O)C[C@@H](O)CC(O)=O)=C(C(C)C)N=C1C(C)C
p512
atRp513
sVDCC0093
p514
g3
((lp515
VCOC1=CC(CC2=CN=C(N)N=C2N)=CC(OC)=C1OC
p516
atRp517
sVDCC0090
p518
g3
((lp519
VNS(=O)(=O)C1=CC2=C(NC(CC3=CC=CC=C3)NS2(=O)=O)C=C1C(F)(F)F
p520
atRp521
sVDCC0091
p522
g3
((lp523
V[O-]C(=O)C1=C(CS[C@]2([H])[C@H](NC(=O)C(=N/OC(C)(C)C(O)=O)\u005cC3=CSC(N)=N3)C(=O)N12)C[N+]1=CC=CC=C1
p524
atRp525
sVDCC1856
p526
g3
((lp527
VNS(=O)(=O)C1=C(Cl)C=C2NC(NS(=O)(=O)C2=C1)C(Cl)Cl
p528
atRp529
sVDCC0426
p530
g3
((lp531
VCOC1=C(O)C=C2CCC3C4CC[C@H](O)[C@@]4(C)CCC3C2=C1
p532
atRp533
sVDCC1745
p534
g3
((lp535
VNC1=CC=CC2=C1C(=O)N(C1CCC(=O)NC1=O)C2=O
p536
atRp537
sVDCC0893
p538
g3
((lp539
V[H][C@@]12CC(=O)N1[C@@]([H])(C(O)=O)C(C)(C)S2(=O)=O
p540
atRp541
sVDCC1743
p542
g3
((lp543
V[H][C@]1(O[C@H](CO)[C@@H](O)[C@H](O)[C@H]1O)C1=CC=C(C)C(CC2=CC=C(S2)C2=CC=C(F)C=C2)=C1
p544
atRp545
sVDCC1742
p546
g3
((lp547
V[H][C@@]12C[C@@H](C)[C@](OC(=O)C3=CC=CO3)(C(=O)SCF)[C@@]1(C)C[C@H](O)[C@@]1(F)[C@@]2([H])C[C@H](F)C2=CC(=O)C=C[C@]12C
p548
atRp549
sVDCC1844
p550
g3
((lp551
VNC1=NC(N)=C(C=C1)\u005cN=N\u005cC1=CC=CC=C1
p552
atRp553
sVDCC0261
p554
g3
((lp555
VCC(C)(C)NCC(O)C1=CC(CO)=C(O)C=C1
p556
atRp557
sVDCC0260
p558
g3
((lp559
VNS(=O)(=O)C1=C(Cl)C=C2NCNS(=O)(=O)C2=C1
p560
atRp561
sVDCC0263
p562
g3
((lp563
VNC(=O)NO
p564
atRp565
sVDCC0262
p566
g3
((lp567
VNC1=NC2=C(N=CN2COC(CO)CO)C(=O)N1
p568
atRp569
sVDCC0265
p570
g3
((lp571
VCC(C(O)=O)C1=CC(=CC=C1)C(=O)C1=CC=CC=C1
p572
atRp573
sVDCC0264
p574
g3
((lp575
VN#CC1=CC=C(C=C1)C(N1C=NC=N1)C1=CC=C(C=C1)C#N
p576
atRp577
sVDCC0267
p578
g3
((lp579
VCOC1=C(C=C(Cl)C=C1)C(=O)NCCC1=CC=C(C=C1)S(=O)(=O)NC(=O)NC1CCCCC1
p580
atRp581
sVDCC0266
p582
g3
((lp583
VCC1=CC(NS(=O)(=O)C2=CC=C(N)C=C2)=NO1
p584
atRp585
sVDCC0269
p586
g3
((lp587
VCCOC(=O)C1=C(C)NC(C)=C(C1C1=C(Cl)C(Cl)=CC=C1)C(=O)OC
p588
atRp589
sVDCC0268
p590
g3
((lp591
V[H][C@@]12CC3=C(C(O)=CC=C3N(C)C)C(=O)C1=C(O)[C@]1(O)C(=O)C(C(N)=O)=C(O)[C@@H](N(C)C)[C@]1([H])C2
p592
atRp593
sVDCC1662
p594
g3
((lp595
VCC(=O)N[C@@H](CS)C(O)=O
p596
atRp597
sVDCC0793
p598
g3
((lp599
VCC(O)C(O)=O
p600
atRp601
sVDCC0794
p602
g3
((lp603
VOC[C@H](O)[C@@H](O)[C@H](O)[C@H](O)CO
p604
atRp605
sVDCC0797
p606
g3
((lp607
S'C1=CC(=C(C(=C1)Cl)COCCOCCCCCCNCC(C2=CC(=C(C=C2)O)CO)O)Cl'
p608
atRp609
sVDCC0459
p610
g3
((lp611
S'CCCCCCC(C)(C)C1=CC(=C(C=C1)C2CC(CCC2CCCO)O)O'
p612
atRp613
sVDCC0404
p614
g3
((lp615
S'COC1=CC=C(C=C1)C2=C(C3=C(S2)C=C(C=C3)O)OC4=CC=C(C=C4)OCCN5CCCCC5'
p616
atRp617
sVDCC1188
p618
g3
((lp619
VCC1=C(O)C(CO)=C(CO)C=N1
p620
atRp621
sVDCC1183
p622
g3
((lp623
VNC1=NC(=O)C2=NC(CNC3=CC=C(C=C3)C(=O)N[C@@H](CCC(O)=O)C(O)=O)=CN=C2N1
p624
atRp625
sVDCC1182
p626
g3
((lp627
VCC(C)[C@@H](C)\u005cC=C\u005c[C@@H](C)[C@@]1([H])CC[C@@]2([H])\u005cC(CCC[C@]12C)=C\u005cC=C1\u005cC[C@@H](O)CCC1=C
p628
atRp629
sVDCC1181
p630
g3
((lp631
VCN(CC(O)=O)C(N)=N
p632
atRp633
sVDCC0944
p634
g3
((lp635
S'C1CC(C(=O)N(CC1C2=C(C(=CC=C2)F)F)CC(F)(F)F)NC(=O)N3CCC(CC3)N4C5=C(NC4=O)N=CC=C5'
p636
atRp637
sVDCC0351
p638
g3
((lp639
VCC(C)[C@H](N1CCCNC1=O)C(=O)N[C@H](C[C@H](O)[C@H](CC1=CC=CC=C1)NC(=O)COC1=C(C)C=CC=C1C)CC1=CC=CC=C1
p640
atRp641
sVDCC1345
p642
g3
((lp643
VCC(=O)NCCCS(O)(=O)=O
p644
atRp645
sVDCC0350
p646
g3
((lp647
V[H][C@]12CC(SCC\u005cN=C\u005cN)=C(N1C(=O)[C@]2([H])[C@@H](C)O)C(O)=O
p648
atRp649
sVDCC1208
p650
g3
((lp651
V[H][C@]12CN(C[C@@]1([H])NCCC2)C1=C(F)C=C2C(=O)C(=CN(C3CC3)C2=C1OC)C(O)=O
p652
atRp653
sVDCC1209
p654
g3
((lp655
V[H][C@@]12CCCC[C@]1([H])CN(C[C@@H](O)[C@H](CSC1=CC=CC=C1)NC(=O)C1=C(C)C(O)=CC=C1)[C@@H](C2)C(=O)NC(C)(C)C
p656
atRp657
sVDCC0210
p658
g3
((lp659
VCN(C)CCC(C1=CC=C(Br)C=C1)C1=CC=CC=N1
p660
atRp661
sVDCC0211
p662
g3
((lp663
VCN(C)C(=O)C(CCN1CCC(O)(CC1)C1=CC=C(Cl)C=C1)(C1=CC=CC=C1)C1=CC=CC=C1
p664
atRp665
sVDCC1116
p666
g3
((lp667
VCC(C)C[C@H](NC(=O)[C@@H](COC(C)(C)C)NC(=O)[C@H](CC1=CC=C(O)C=C1)NC(=O)[C@H](CO)NC(=O)[C@H](CC1=CNC2=CC=CC=C12)NC(=O)[C@H](CC1=CN=CN1)NC(=O)[C@@H]1CCC(=O)N1)C(=O)N[C@@H](CCCN=C(N)N)C(=O)N1CCC[C@H]1C(=O)NNC(N)=O
p668
atRp669
sVDCC1207
p670
g3
((lp671
VCN(C)CCCC1(OCC2=C1C=CC(=C2)C#N)C1=CC=C(F)C=C1
p672
atRp673
sVDCC0630
p674
g3
((lp675
S'CNC(=O)CS(=O)(=O)CC1=NOC(=N1)C2=CSC=C2'
p676
atRp677
sVDCC0400
p678
g3
((lp679
S'C1=CC=C(C=C1)C(=C(C2=CC=CC=C2)N=NC(C3=CC=CC=C3)(C4=CC=CC=C4)C5=CC=CC=C5)N=NC(C6=CC=CC=C6)(C7=CC=CC=C7)C8=CC=CC=C8'
p680
atRp681
sVDCC1200
p682
g3
((lp683
VOC(CN1C=NC=N1)(CN1C=NC=N1)C1=C(F)C=C(F)C=C1
p684
atRp685
sVDCC0990
p686
g3
((lp687
S'C1=CC=C(C=C1)CCNCCCCCCNCCC2=CC(=C(C=C2)O)O'
p688
atRp689
sVDCC1203
p690
g3
((lp691
VClC1=CC=CC=C1CN1CCC2=C(C1)C=CS2
p692
atRp693
sVDCC1390
p694
g3
((lp695
V[H][C@@](N1CCC2=C(C1)C=CS2)(C(=O)OC)C1=CC=CC=C1Cl
p696
atRp697
sVDCC1446
p698
g3
((lp699
VCC1=CC(=C(O)C(C)=C1CC1=NCCN1)C(C)(C)C
p700
atRp701
sVDCC1445
p702
g3
((lp703
V[H][C@@](CC)(C1=CC(NS(=O)(=O)C2=NC=C(C=C2)C(F)(F)F)=CC=C1)C1=C(O)C[C@@](CCC)(CCC2=CC=CC=C2)OC1=O
p704
atRp705
sVDCC0764
p706
g3
((lp707
V[H][C@]12CN([C@H](C(=O)NC(CC3CCC3)C(=O)C(N)=O)[C@@]1([H])C2(C)C)C(=O)[C@@H](NC(=O)NC(C)(C)C)C(C)(C)C
p708
atRp709
sVDCC1443
p710
g3
((lp711
VNC1=NC(=O)N(C=N1)[C@@H]1O[C@H](CO)[C@@H](O)[C@H]1O
p712
atRp713
sVDCC1838
p714
g3
((lp715
VCN1C(CCl)NC2=CC(Cl)=C(C=C2S1(=O)=O)S(N)(=O)=O
p716
atRp717
sVDCC0768
p718
g3
((lp719
V[H]\u005cC(=C(\u005c[H])C1=CC=C(CNCCC2=C(C)NC3=CC=CC=C23)C=C1)C(O)=NO
p720
atRp721
sVDCC1524
p722
g3
((lp723
VCN(C)CCC[C@]1(OCC2=C1C=CC(=C2)C#N)C1=CC=C(F)C=C1
p724
atRp725
sVDCC1521
p726
g3
((lp727
VCCC(C)N1N=CN(C1=O)C1=CC=C(C=C1)N1CCN(CC1)C1=CC=C(OC[C@H]2CO[C@@](CN3C=NC=N3)(O2)C2=C(Cl)C=C(Cl)C=C2)C=C1
p728
atRp729
sVDCC1520
p730
g3
((lp731
VO=C1CCC2=C(N1)C=CC(OCCCCC1=NN=NN1C1CCCCC1)=C2
p732
atRp733
sVDCC1523
p734
g3
((lp735
VClC1=CC=C(C=C1)C(=O)NCCN1CCOCC1
p736
atRp737
sVDCC1522
p738
g3
((lp739
VCNNCC1=CC=C(C=C1)C(=O)NC(C)C
p740
atRp741
sVDCC0199
p742
g3
((lp743
VCNC(C)C1CCC(N)C(OC2C(N)CC(N)C(OC3OCC(C)(O)C(NC)C3O)C2O)O1
p744
atRp745
sVDCC0198
p746
g3
((lp747
VCCOC1=NC2=CC=CC(C(O)=O)=C2N1CC1=CC=C(C=C1)C1=CC=CC=C1C1=NNN=N1
p748
atRp749
sVDCC0192
p750
g3
((lp751
VNC(=O)N1C2=CC=CC=C2CC(=O)C2=CC=CC=C12
p752
atRp753
sVDCC0191
p754
g3
((lp755
V[H][C@]12COC(=O)[C@]1([H])[C@H](C1=CC(OC)=C(O)C(OC)=C1)C1=CC3=C(OCO3)C=C1[C@H]2O[C@@H]1O[C@]2([H])CO[C@@H](C)O[C@@]2([H])[C@H](O)[C@H]1O
p756
atRp757
sVDCC0190
p758
g3
((lp759
V[H][C@@]12CC(=O)N1[C@@H](C(O)=O)\u005cC(O2)=C\u005cCO
p760
atRp761
sVDCC0197
p762
g3
((lp763
V[H][C@]12C[C@H](N(C(=O)[C@H](C)N[C@@H](CCC)C(=O)OCC)[C@@]1([H])CCCC2)C(O)=O
p764
atRp765
sVDCC0196
p766
g3
((lp767
VCOC1=CC2=C(C=C1)C=C(C=C2)[C@H](C)C(O)=O
p768
atRp769
sVDCC0195
p770
g3
((lp771
VNC1=NC(=O)C2=C(N1)N(COCCO)C=N2
p772
atRp773
sVDCC0194
p774
g3
((lp775
V[H][C@@]12CC[C@H](O)[C@@]1(C)CC[C@]1([H])C3=C(CC[C@@]21[H])C=C(O)C=C3
p776
atRp777
sVDCC1495
p778
g3
((lp779
VCC1=C(C=NO1)C(=O)NC1=CC=C(C=C1)C(F)(F)F
p780
atRp781
sVDCC0080
p782
g3
((lp783
VOC(CN1C=CN=C1)(P(O)(O)=O)P(O)(O)=O
p784
atRp785
sVDCC0166
p786
g3
((lp787
VCNC[C@H](O)C1=CC(O)=C(O)C=C1
p788
atRp789
sVDCC0167
p790
g3
((lp791
VCNS(=O)(=O)CC1=CC2=C(NC=C2CCN(C)C)C=C1
p792
atRp793
sVDCC0164
p794
g3
((lp795
VCC(C)OC(=O)CCC\u005cC=C/C[C@H]1[C@@H](O)C[C@@H](O)[C@@H]1CC[C@@H](O)CCC1=CC=CC=C1
p796
atRp797
sVDCC0165
p798
g3
((lp799
VCOC1=C(OC)C=C(CCN(C)CCCC(C#N)(C(C)C)C2=CC(OC)=C(OC)C=C2)C=C1
p800
atRp801
sVDCC0049
p802
g3
((lp803
VCC(=O)NC1=CC=C(O)C=C1
p804
atRp805
sVDCC0163
p806
g3
((lp807
VC[C@H]1[C@H]2CC3=CC=C(O)C=C3[C@]1(C)CCN2CC=C(C)C
p808
atRp809
sVDCC0160
p810
g3
((lp811
VCCC(=O)O[C@@](CC1=CC=CC=C1)([C@H](C)CN(C)C)C1=CC=CC=C1
p812
atRp813
sVDCC0161
p814
g3
((lp815
VCC1=CN([C@@H]2O[C@H](CO)C=C2)C(=O)NC1=O
p816
atRp817
sVDCC0045
p818
g3
((lp819
VC[C@H](CN1C=NC2=C1N=CN=C2N)OCP(O)(O)=O
p820
atRp821
sVDCC0044
p822
g3
((lp823
VCCCCN1CCCCC1C(=O)NC1=C(C)C=CC=C1C
p824
atRp825
sVDCC0047
p826
g3
((lp827
VNS(=O)(=O)C1=C(Cl)C=CC(=C1)C1(O)NC(=O)C2=CC=CC=C12
p828
atRp829
sVDCC0046
p830
g3
((lp831
VCO[C@]12[C@H]3N[C@H]3CN1C1=C([C@H]2COC(N)=O)C(=O)C(N)=C(C)C1=O
p832
atRp833
sVDCC0041
p834
g3
((lp835
VCN1CCC[C@@H]1CCO[C@](C)(C1=CC=CC=C1)C1=CC=C(Cl)C=C1
p836
atRp837
sVDCC0040
p838
g3
((lp839
VCCN(CC)CC(=O)NC1=C(C)C=CC=C1C
p840
atRp841
sVDCC0168
p842
g3
((lp843
VCC\u005cC(=C(/C1=CC=CC=C1)C1=CC=C(OCCN(C)C)C=C1)C1=CC=CC=C1
p844
atRp845
sVDCC1845
p846
g3
((lp847
VC[C@@H](N)[C@@H](O)C1=CC=CC=C1
p848
atRp849
sVDCC0225
p850
g3
((lp851
VNC1=NC(=O)N(C=C1F)[C@@H]1CS[C@H](CO)O1
p852
atRp853
sVDCC0224
p854
g3
((lp855
VClC1=CC=C(NC(=N)NC(=N)NCCCCCCNC(=N)NC(=N)NC2=CC=C(Cl)C=C2)C=C1
p856
atRp857
sVDCC0227
p858
g3
((lp859
V[H][C@]12OC[C@H](O[N+]([O-])=O)[C@@]1([H])OC[C@H]2O[N+]([O-])=O
p860
atRp861
sVDCC0226
p862
g3
((lp863
VCCOC(=O)[C@H](CCC1=CC=CC=C1)N[C@@H](C)C(=O)N1CC2=CC=CC=C2C[C@H]1C(O)=O
p864
atRp865
sVDCC0081
p866
g3
((lp867
VCN(C)CC[C@@H](C1=CC=C(Br)C=C1)C1=CC=CC=N1
p868
atRp869
sVDCC0220
p870
g3
((lp871
V[H][C@@]12CC[C@](O)(C(=O)OCCl)[C@@]1(C)C[C@H](O)[C@@]1([H])[C@@]2([H])CCC2=CC(=O)C=C[C@]12C
p872
atRp873
sVDCC0223
p874
g3
((lp875
V[H][C@@]1(C[C@H](C)[C@]2([H])CC(=O)[C@H](C)\u005cC=C(C)\u005c[C@@H](O)[C@@H](OC)C(=O)[C@H](C)C[C@H](C)\u005cC=C\u005cC=C\u005cC=C(C)\u005c[C@H](C[C@]3([H])CC[C@@H](C)[C@@](O)(O3)C(=O)C(=O)N3CCCC[C@@]3([H])C(=O)O2)OC)CC[C@@H](O)[C@@H](C1)OC
p876
atRp877
sVDCC0222
p878
g3
((lp879
VCCCCC1=NC=C(\u005cC=C(/CC2=CC=CS2)C(O)=O)N1CC1=CC=C(C=C1)C(O)=O
p880
atRp881
sVDCC1628
p882
g3
((lp883
VCCOP(=O)(OCC)[C@@H](C)NC(=O)N(CCCl)N=O
p884
atRp885
sVDCC0738
p886
g3
((lp887
VCCC1=C(CC)C=C2CC(CC2=C1)NC[C@H](O)C1=C2C=CC(=O)NC2=C(O)C=C1
p888
atRp889
sVDCC0229
p890
g3
((lp891
VCN1CCC(CN2C3=CC=CC=C3SC3=CC=CC=C23)C1
p892
atRp893
sVDCC0228
p894
g3
((lp895
VOC[C@@H]1CC[C@@H](O1)N1C=NC2=C1NC=NC2=O
p896
atRp897
sVDCC1239
p898
g3
((lp899
V[H][C@]12SC(C)(C)[C@@H](N1C(=O)[C@H]2NC(=O)C1=C(C)ON=C1C1=C(F)C=CC=C1Cl)C(O)=O
p900
atRp901
sVDCC0089
p902
g3
((lp903
VCN1CCN(CCCN2C3=CC=CC=C3SC3=C2C=C(Cl)C=C3)CC1
p904
atRp905
sVDCC0348
p906
g3
((lp907
V[H][C@@]1(C[C@@H](C)[C@]2([H])CC(=O)[C@H](C)\u005cC=C(C)\u005c[C@@H](O)[C@@H](OC)C(=O)[C@H](C)C[C@H](C)\u005cC=C\u005cC=C\u005cC=C(C)\u005c[C@H](C[C@]3([H])CC[C@@H](C)[C@@](O)(O3)C(=O)C(=O)N3CCCC[C@@]3([H])C(=O)O2)OC)CC[C@@H](OCCO)[C@@H](C1)OC
p908
atRp909
sVDCC0088
p910
g3
((lp911
VOC[C@H]1O[C@H](C[C@@H]1O)N1C=C(C(=O)NC1=O)C(F)(F)F
p912
atRp913
sVDCC0346
p914
g3
((lp915
V[H][C@@]12OC3=C(OC)C=CC4=C3[C@@]11CCN(C)[C@]([H])(C4)[C@]1([H])CC[C@@H]2O
p916
atRp917
sVDCC0347
p918
g3
((lp919
VCN[C@@H](C)CC1=CC=CC=C1
p920
atRp921
sVDCC0344
p922
g3
((lp923
VCO\u005cN=C(/C(=O)N[C@@H]1C(=O)N2[C@]1([H])SCC(C[N+]1(C)CCCC1)=C2C([O-])=O)C1=CSC(N)=N1
p924
atRp925
sVDCC0345
p926
g3
((lp927
VOCCCC([O-])=O
p928
atRp929
sVDCC0342
p930
g3
((lp931
VCOC1=CC2=C(C(OC)=C1OC)C1=CC=C(OC)C(=O)C=C1C(CC2)NC(C)=O
p932
atRp933
sVDCC0343
p934
g3
((lp935
V[H][C@@]12C[C@]1([H])[C@@]1([H])[C@]3([H])[C@]4([H])C[C@]4([H])[C@@]4(CCC(=O)O4)[C@@]3(C)CC[C@]1([H])[C@@]1(C)CCC(=O)C=C21
p936
atRp937
sVDCC0340
p938
g3
((lp939
V[H][C@@]12CC[C@@](O)(C#C)[C@@]1(C)CC[C@]1([H])C3=C(CC[C@@]21[H])C=C(OC)C=C3
p940
atRp941
sVDCC0341
p942
g3
((lp943
V[Na+].OC([O-])=O
p944
atRp945
sVDCC1680
p946
g3
((lp947
VN[C@H](C(=O)N1[C@H]2C[C@H]2C[C@H]1C#N)C12CC3CC(CC(O)(C3)C1)C2
p948
atRp949
sVDCC1505
p950
g3
((lp951
V[H][C@@]12CCC[C@]1([H])CN(C2)NC(=O)NS(=O)(=O)C1=CC=C(C)C=C1
p952
atRp953
sVDCC0325
p954
g3
((lp955
V[H][C@@]12C[C@@H](C)[C@](O)(C(=O)CO)[C@@]1(C)C[C@H](O)[C@@]1(F)[C@@]2([H])CCC2=CC(=O)C=C[C@]12C
p956
atRp957
sVDCC0290
p958
g3
((lp959
VCC(C)C1=C(C(=O)NC2=CC=CC=C2)C(=C(N1CCC(O)CC(O)CC([O-])=O)C1=CC=C(F)C=C1)C1=CC=CC=C1
p960
atRp961
sVDCC0291
p962
g3
((lp963
VCCOC(=O)C1(CCN(CCC(C#N)(C2=CC=CC=C2)C2=CC=CC=C2)CC1)C1=CC=CC=C1
p964
atRp965
sVDCC0292
p966
g3
((lp967
VCN[C@H]1[C@H](O)[C@@H](O)[C@H](CO)O[C@H]1O[C@H]1[C@H](O[C@H]2[C@H](O)[C@@H](O)[C@H](NC(N)=N)[C@@H](O)[C@@H]2NC(N)=N)O[C@@H](C)[C@]1(O)C=O
p968
atRp969
sVDCC0293
p970
g3
((lp971
V[H][C@]12C[C@@H](O)[C@H](\u005cC=C\u005c[C@@H](O)C(C)CC#CC)[C@@]1([H])C\u005cC(C2)=C\u005cCCCC(O)=O
p972
atRp973
sVDCC0294
p974
g3
((lp975
VCC(C)C1=NC(=NC(C2=CC=C(F)C=C2)=C1\u005cC=C\u005c[C@@H](O)C[C@@H](O)CC(=O)O)N(C)S(C)(=O)=O
p976
atRp977
sVDCC0295
p978
g3
((lp979
VCCCCCOC(=O)NC1=NC(=O)N(C=C1F)[C@@H]1O[C@H](C)[C@@H](O)[C@H]1O
p980
atRp981
sVDCC0297
p982
g3
((lp983
VClC1=CC(Cl)=C(COC(CN2C=CN=C2)C2=C(Cl)C=C(Cl)C=C2)C=C1
p984
atRp985
sVDCC0298
p986
g3
((lp987
VCN(C)CCC(C1=CC=C(Cl)C=C1)C1=CC=CC=N1
p988
atRp989
sVDCC0299
p990
g3
((lp991
VOC1=C([C@H]2CC[C@@H](CC2)C2=CC=C(Cl)C=C2)C(=O)C2=CC=CC=C2C1=O
p992
atRp993
sVDCC0666
p994
g3
((lp995
S'C1=CC=C(C=C1)COC2=NC(=NC3=C2NC=N3)N'
p996
atRp997
sVDCC1686
p998
g3
((lp999
VCOC1=CC=C(C=C1)N1N=C(C(N)=O)C2=C1C(=O)N(CC2)C1=CC=C(C=C1)N1CCCCC1=O
p1000
atRp1001
sVDCC1687
p1002
g3
((lp1003
VCOC1=CC(NC2=C(C=NC3=CC(OCCCN4CCN(C)CC4)=C(OC)C=C23)C#N)=C(Cl)C=C1Cl
p1004
atRp1005
sVDCC1657
p1006
g3
((lp1007
VCOC1=CC2=C(NC=N\u005cC2=N/C2=CC=C(Br)C=C2F)C=C1OCC1CCN(C)CC1
p1008
aVCOC1=C(OCC2CCN(C)CC2)C=C2N=CN=C(NC3=C(F)C=C(Br)C=C3)C2=C1
p1009
atRp1010
sVDCC1719
p1011
g3
((lp1012
VCCCSC1=NC2=C(N=NN2[C@@H]2C[C@H](OCCO)[C@@H](O)[C@H]2O)C(N[C@@H]2C[C@H]2C2=CC(F)=C(F)C=C2)=N1
p1013
atRp1014
sVDCC1710
p1015
g3
((lp1016
VC(N1CCCNCCNCCCNCC1)C1=CC=C(CN2CCCNCCNCCCNCC2)C=C1
p1017
atRp1018
sVDCC1658
p1019
g3
((lp1020
V[H][C@@]12CCC[C@]1([H])[C@H](N(C2)C(=O)[C@@H](NC(=O)[C@@H](NC(=O)C1=NC=CN=C1)C1CCCCC1)C(C)(C)C)C(=O)N[C@@H](CCC)C(=O)C(=O)NC1CC1
p1021
atRp1022
sVDCC0908
p1023
g3
((lp1024
V[H][C@@]12CC[C@](OC(C)=O)(C(C)=O)[C@@]1(C)CC[C@@]1([H])[C@@]2([H])C[C@H](C)C2=CC(=O)CC[C@]12C
p1025
atRp1026
sVDCC0904
p1027
g3
((lp1028
S'CCOC1=C(C=C2C(=C1)N=CC(=C2NC3=CC(=C(C=C3)OCC4=CC=CC=N4)Cl)C#N)NC(=O)C=CCN(C)C'
p1029
atRp1030
sVDCC0907
p1031
g3
((lp1032
V[Na+].OC([O-])=O
p1033
atRp1034
sVDCC1679
p1035
g3
((lp1036
VCCN1CCCC1CNC(=O)C1=CC(=C(N)C=C1OC)S(=O)(=O)CC
p1037
atRp1038
sVDCC0455
p1039
g3
((lp1040
S'C1=CC=C(C=C1)NC(=O)NC2=CC(=NC=C2)Cl'
p1041
atRp1042
sVDCC0466
p1043
g3
((lp1044
S'COC(=O)NC1C(C(C(OC1OC2C(OC(C(C2O)N)OC3C(OC(C(C3O)N)O)CO)CO)CO)OC4C(C(C(C(O4)CO)OC5C(C(C(C(O5)CO)OC6C(C(C(C(O6)CO)OC7C(C(C(C(O7)CO)OC8C(C(C(C(O8)CO)OC9C(C(C(C(O9)CO)O)O)N)O)N)O)N)O)N)O)N)O)N)O'
p1045
atRp1046
sVDCC1828
p1047
g3
((lp1048
V[H][C@@]12C[C@@]3([H])[C@]4([H])C[C@]([H])(F)C5=CC(=O)CC[C@]5(C)[C@@]4([H])[C@@H](O)C[C@]3(C)[C@@]1(OC(C)(C)O2)C(=O)CO
p1049
atRp1050
sVDCC1829
p1051
g3
((lp1052
VNC(N)=NCCN1CCCCCCC1
p1053
atRp1054
sVDCC0834
p1055
g3
((lp1056
VCC(C)C[C@H](NC(=O)[C@@H](CC1=CNC2=CC=CC=C12)NC(=O)[C@H](CC1=CC=C(O)C=C1)NC(=O)[C@H](CO)NC(=O)[C@H](CC1=CNC2=C1C=CC=C2)NC(=O)[C@H](CC1=CNC=N1)NC(=O)[C@@H]1CCC(=O)N1)C(=O)N[C@@H](CCCNC(N)=N)C(=O)N1CCC[C@H]1C(=O)NCC(N)=O
p1057
atRp1058
sVDCC0836
p1059
g3
((lp1060
V[H][C@@]12CCC3=CC(=O)C=C[C@]3(C)[C@@]1([H])CC[C@]1(C)OC(=O)CC[C@@]21[H]
p1061
atRp1062
sVDCC0450
p1063
g3
((lp1064
VCCCCCCCCCCCCCCCCOP([O-])(=O)OCC[N+](C)(C)C
p1065
atRp1066
sVDCC1017
p1067
g3
((lp1068
S'CN1C=C(C=N1)C2=C3N=C(C(=C(N3N=C2)N)Br)C4CCCNC4'
p1069
atRp1070
sVDCC0451
p1071
g3
((lp1072
VONC(=O)\u005cC=C\u005cC(\u005cC)=C\u005c[C@](C)([H])C(=O)C1=CC=C(N(C)C)C=C1
p1073
atRp1074
sVDCC0042
p1075
g3
((lp1076
V[H][C@@]12CC[C@@](O)(C#C)[C@@]1(CC)CC(=C)[C@]1([H])[C@@]3([H])CCC(=O)C=C3CC[C@@]21[H]
p1077
atRp1078
sVDCC1858
p1079
g3
((lp1080
VN[C@@H](CC1=CC=C(O)C=C1)C(O)=O
p1081
atRp1082
sVDCC0158
p1083
g3
((lp1084
V[H][C@@](CCC(O)=O)(NC(=O)C1=CC=C(CCC2=CNC3=C2C(O)=NC(=N)N3)C=C1)C(O)=O
p1085
atRp1086
sVDCC0157
p1087
g3
((lp1088
V[H][C@]12[C@H](C[C@@H](C)C=C1C=C[C@H](C)[C@@H]2CC[C@@H]1C[C@@H](O)CC(=O)O1)OC(=O)C(C)(C)CC
p1089
atRp1090
sVDCC0156
p1091
g3
((lp1092
V[H][C@@]12CC[C@](O)(C(=O)CO)[C@@]1(C)CC(=O)[C@@]1([H])[C@@]2([H])CCC2=CC(=O)C=C[C@]12C
p1093
atRp1094
sVDCC1400
p1095
g3
((lp1096
VCCOC(=O)C1=CN=C(C=C1)C#CC1=CC2=C(SCCC2(C)C)C=C1
p1097
atRp1098
sVDCC0154
p1099
g3
((lp1100
VC[C@H](C1=CNC=N1)C1=C(C)C(C)=CC=C1
p1101
atRp1102
sVDCC0153
p1103
g3
((lp1104
V[H][C@]1(F)[C@H](O)[C@@H](CO)O[C@H]1N1C=NC2=C(N)N=C(Cl)N=C12
p1105
atRp1106
sVDCC0152
p1107
g3
((lp1108
VOC(=O)C1=CN=CC=C1
p1109
atRp1110
sVDCC0403
p1111
g3
((lp1112
VFC1=CN(C2CCCO2)C(=O)NC1=O
p1113
atRp1114
sVDCC0150
p1115
g3
((lp1116
VFC(F)(F)[C@]1(OC(=O)NC2=C1C=C(Cl)C=C2)C#CC1CC1
p1117
atRp1118
sVDCC0458
p1119
g3
((lp1120
VOC1=CC=C(C=C1)C1=CC2=C(OC1)C=C(O)C=C2
p1121
atRp1122
sVDCC1535
p1123
g3
((lp1124
VOCCNCCNC1=C2C(=O)C3=C(O)C=CC(O)=C3C(=O)C2=C(NCCNCCO)C=C1
p1125
atRp1126
sVDCC0410
p1127
g3
((lp1128
VCN1C=NC=C1[C@@](N)(C1=CC=C(Cl)C=C1)C1=CC2=C(C=C1)N(C)C(=O)C=C2C1=CC(Cl)=CC=C1
p1129
atRp1130
sVDCC0128
p1131
g3
((lp1132
VFC1=CNC(=O)NC1=O
p1133
atRp1134
sVDCC0129
p1135
g3
((lp1136
VNC1=NC(N)=C(N=N1)C1=C(Cl)C(Cl)=CC=C1
p1137
atRp1138
sVDCC0122
p1139
g3
((lp1140
VCOCCOC1=C(OCCOC)C=C2C(NC3=CC=CC(=C3)C#C)=NC=NC2=C1
p1141
atRp1142
sVDCC0123
p1143
g3
((lp1144
VClCCN(CCCl)P1(=O)NCCCO1
p1145
atRp1146
sVDCC0120
p1147
g3
((lp1148
V[H][N]1([H])[C@@H]2CCCC[C@H]2[N]([H])([H])[Pt]11OC(=O)C(=O)O1
p1149
atRp1150
sVDCC0121
p1151
g3
((lp1152
VCOC(=O)C1=C(C)NC(C)=C(C1C1=CC(=CC=C1)[N+]([O-])=O)C(=O)OC(C)(C)CN(C)CCC(C1=CC=CC=C1)C1=CC=CC=C1
p1153
atRp1154
sVDCC0126
p1155
g3
((lp1156
V[H][C@@]12N3CC[C@@]11C4=CC(=C(OC)C=C4N(C=O)[C@@]1([H])[C@](O)([C@H](OC(C)=O)[C@]2(CC)C=CC3)C(=O)OC)[C@]1(C[C@]2([H])CN(C[C@](O)(CC)C2)CCC2=C1NC1=CC=CC=C21)C(=O)OC
p1157
atRp1158
sVDCC0127
p1159
g3
((lp1160
VCCOC(=O)[C@H](CCC1=CC=CC=C1)N[C@H]1CCC2=CC=CC=C2N(CC(O)=O)C1=O
p1161
atRp1162
sVDCC0124
p1163
g3
((lp1164
VOC(=O)C1=CN(C2CC2)C2=CC(N3CCNCC3)=C(F)C=C2C1=O
p1165
atRp1166
sVDCC0125
p1167
g3
((lp1168
VCN(C)CCOC1=CC=C(C=C1)C(=C(\u005cCCCl)C1=CC=CC=C1)\u005cC1=CC=CC=C1
p1169
atRp1170
sVDCC0302
p1171
g3
((lp1172
VCC(C)\u005cN=C(/N)N=C(N)NC1=CC=C(Cl)C=C1
p1173
atRp1174
sVDCC0303
p1175
g3
((lp1176
VCCC1=CN=C(CCOC2=CC=C(CC3SC(=O)NC3=O)C=C2)C=C1
p1177
atRp1178
sVDCC0300
p1179
g3
((lp1180
VCC1=NS(=O)(=O)C2=C(N1)C=CC(Cl)=C2
p1181
atRp1182
sVDCC0301
p1183
g3
((lp1184
VCOCCCOC1=C(C)C(CS(=O)C2=NC3=CC=CC=C3N2)=NC=C1
p1185
atRp1186
sVDCC0306
p1187
g3
((lp1188
VCC(NC(C)(C)C)C(=O)C1=CC(Cl)=CC=C1
p1189
atRp1190
sVDCC0307
p1191
g3
((lp1192
VCOC1=CC(NCC2=C(C)C3=C(C=C2)N=C(N)N=C3N)=CC(OC)=C1OC
p1193
atRp1194
sVDCC0304
p1195
g3
((lp1196
VC[C@H]1COC2=C3N1C=C(C(O)=O)C(=O)C3=CC(F)=C2N1CCN(C)CC1
p1197
atRp1198
sVDCC0305
p1199
g3
((lp1200
VCO\u005cN=C1/CN(CC1CN)C1=NC2=C(C=C1F)C(=O)C(=CN2C1CC1)C(O)=O
p1201
atRp1202
sVDCC0308
p1203
g3
((lp1204
VO=[As][As](=O)=O
p1205
atRp1206
sVDCC0309
p1207
g3
((lp1208
VNC[C@H]1O[C@H](O[C@@H]2[C@@H](N)C[C@@H](N)[C@H](O[C@H]3O[C@H](CO)[C@@H](O)[C@H](N)[C@H]3O)[C@H]2O)[C@H](O)[C@@H](O)[C@@H]1O
p1209
atRp1210
sVDCC1273
p1211
g3
((lp1212
VCOC(=O)C(C1CCCCN1)C1=CC=CC=C1
p1213
atRp1214
sVDCC1579
p1215
g3
((lp1216
V[Mg++]
p1217
atRp1218
sVDCC0494
p1219
g3
((lp1220
VCC(C)C1=NC(CN(C)C(=O)N[C@@H](CCN2CCOCC2)C(=O)N[C@H](CC[C@H](CC2=CC=CC=C2)NC(=O)OCC2=CN=CS2)CC2=CC=CC=C2)=CS1
p1221
atRp1222
sVDCC1478
p1223
g3
((lp1224
VCC(=O)N1CCN(CC1)C1=CC=C(OCC2COC(CN3C=CN=C3)(O2)C2=CC=C(Cl)C=C2Cl)C=C1
p1225
atRp1226
sVDCC1477
p1227
g3
((lp1228
VCOC1=C(C\u005cC=C(/C)CCC(O)=O)C(O)=C2C(=O)OCC2=C1C
p1229
atRp1230
sVDCC1474
p1231
g3
((lp1232
V[H][C@@]12C[C@H](C)[C@](OC(=O)CC)(C(=O)CCl)[C@@]1(C)C[C@H](O)[C@@]1(F)[C@@]2([H])CCC2=CC(=O)C=C[C@]12C
p1233
atRp1234
sVDCC1473
p1235
g3
((lp1236
VC[C@@H](NCCCC1=CC(=CC=C1)C(F)(F)F)C1=CC=CC2=CC=CC=C12
p1237
atRp1238
sVDCC0043
p1239
g3
((lp1240
V[H][C@@]12OC3=C(O)C=CC4=C3[C@@]11CCN(C)[C@]([H])(C4)[C@]1([H])C=C[C@@H]2O
p1241
atRp1242
sVDCC1471
p1243
g3
((lp1244
VCS(=O)(=O)OCCCCOS(C)(=O)=O
p1245
atRp1246
sVDCC1860
p1247
g3
((lp1248
VNC(N)=O
p1249
atRp1250
sVDCC1861
p1251
g3
((lp1252
VNC1=CC=C(C=C1)S(=O)(=O)NC1=NC=CS1
p1253
atRp1254
sVDCC0388
p1255
g3
((lp1256
VOC1=CC=C(O)C=C1
p1257
atRp1258
sVDCC0016
p1259
g3
((lp1260
VCC(C)C[C@H](NC(=O)[C@H](CC1=CC=CC=C1)NC(=O)C1=CN=CC=N1)B(O)O
p1261
atRp1262
sVDCC0017
p1263
g3
((lp1264
VC[C@@](CC1=CC(O)=C(O)C=C1)(NN)C(O)=O
p1265
atRp1266
sVDCC0014
p1267
g3
((lp1268
VCCCCC(=O)N(CC1=CC=C(C=C1)C1=CC=CC=C1C1=NNN=N1)[C@@H](C(C)C)C(O)=O
p1269
atRp1270
sVDCC0015
p1271
g3
((lp1272
V[H][C@@]12CCC[C@]1([H])N([C@@H](C2)C(O)=O)C(=O)[C@H](C)N[C@@H](CCC1=CC=CC=C1)C(=O)OCC
p1273
atRp1274
sVDCC0399
p1275
g3
((lp1276
S'CCCCCCCCCCCCCCCCCCOP(=O)([O-])OC1CC[N+](CC1)(C)C'
p1277
atRp1278
sVDCC0013
p1279
g3
((lp1280
VOC[C@H]1O[C@@H]([C@H](O)[C@@H]1OP(O)(=O)O[C@]([H])(C)CNC(=O)CC[C@]1(C)[C@@H](CC(=O)N)[C@@]2([H])N([Co]C#N)\u005cC1=C(C)/C1=N/C(=C\u005cC3=N\u005cC(=C(C)/C4=N[C@]2(C)[C@@](C)(CC(=O)N)[C@@H]4CCC(=O)N)\u005c[C@@](C)(CC(=O)N)[C@@H]3CCC(=O)N)/C(C)(C)[C@@H]1CCC(=O)N)N1C=NC2=CC(C)=
p1281
atRp1282
sVDCC0011
p1283
g3
((lp1284
VCC[C@@H]1NC(=O)[C@H]([C@H](O)[C@H](C)C\u005cC=C\u005cC)N(C)C(=O)[C@H](C(C)C)N(C)C(=O)[C@H](CC(C)C)N(C)C(=O)[C@H](CC(C)C)N(C)C(=O)[C@@H](C)NC(=O)[C@H](C)NC(=O)[C@H](CC(C)C)N(C)C(=O)[C@@H](NC(=O)[C@H](CC(C)C)N(C)C(=O)CN(C)C1=O)C(C)C
p1285
atRp1286
sVDCC0394
p1287
g3
((lp1288
V[H][C@@]12CCCN1C(=O)[C@H](CC(C)C)NC(=O)[C@@H](C)C(=O)[C@@H](OC(=O)C[C@H](O)[C@]([H])(NC(=O)[C@@H](NC(=O)[C@@H](CC(C)C)N(C)C(=O)[C@@H]1CCCN1C(=O)C(C)=O)[C@@H](C)OC(=O)[C@H](CC1=CC=C(OC)C=C1)N(C)C2=O)[C@@H](C)CC)C(C)C
p1289
atRp1290
sVDCC0397
p1291
g3
((lp1292
S'CCCC(=O)[O-].[Na+]'
p1293
atRp1294
sVDCC0396
p1295
g3
((lp1296
VO=C1C=C(OC2=C1C=CC=C2C1=CC=CC=C1)N1CCOCC1
p1297
atRp1298
sVDCC0155
p1299
g3
((lp1300
VCC(=O)NS(=O)(=O)C1=CC=C(N)C=C1
p1301
atRp1302
sVDCC0018
p1303
g3
((lp1304
VCOC1=CC=CC(=C1)[C@@]1(O)CCCC[C@@H]1CN(C)C
p1305
atRp1306
sVDCC0019
p1307
g3
((lp1308
VCCOC(=O)C1=C[C@@H](OC(CC)CC)[C@H](NC(C)=O)[C@@H](N)C1
p1309
atRp1310
sVDCC1407
p1311
g3
((lp1312
V[H][C@]12CC3=C(NC4=CC=CC=C34)[C@H](N1C(=O)CN(C)C2=O)C1=CC2=C(OCO2)C=C1
p1313
atRp1314
sVDCC0377
p1315
g3
((lp1316
VC(N(CC1=CC=CC=C1)C1=CC=CC=C1)C1=NCCN1
p1317
atRp1318
sVDCC0376
p1319
g3
((lp1320
VOC1=CC(Cl)=CC=C1OC1=C(Cl)C=C(Cl)C=C1
p1321
atRp1322
sVDCC0375
p1323
g3
((lp1324
VC(C1=NCCN1)C1=CC=CC2=CC=CC=C12
p1325
atRp1326
sVDCC0374
p1327
g3
((lp1328
VCCCCN(CCCC)CC(O)C1=C2C(=CC(Cl)=C1)\u005cC(=C/C1=CC=C(Cl)C=C1)C1=C2C=CC(Cl)=C1
p1329
atRp1330
sVDCC0373
p1331
g3
((lp1332
VC[C@H](N)[C@H](O)C1=CC(O)=C(O)C=C1
p1333
atRp1334
sVDCC0151
p1335
g3
((lp1336
VCC[C@H](C)[C@H](N)C1=N[C@@H](CS1)C(=O)N[C@@H](CC(C)C)C(=O)N[C@H](CCC(O)=O)C(=O)N[C@@H]([C@@H](C)CC)C(=O)N[C@H]1CCCCNC(=O)[C@H](CC(N)=O)NC(=O)[C@@H](CC(O)=O)NC(=O)[C@H](CC2=CNC=N2)NC(=O)[C@@H](CC2=CC=CC=C2)NC(=O)[C@@H](NC(=O)[C@@H](CCCN)NC1=O)[C@@H](C)CC
p1337
atRp1338
sVDCC0278
p1339
g3
((lp1340
VN[C@@H](CC1=CC=C(C=C1)N(CCCl)CCCl)C(O)=O
p1341
atRp1342
sVDCC0279
p1343
g3
((lp1344
VCOC1=C2N(C=C(C(O)=O)C(=O)C2=CC(F)=C1N1CCNC(C)C1)C1CC1
p1345
atRp1346
sVDCC0276
p1347
g3
((lp1348
VCC(C)OC(=O)C(C)(C)OC1=CC=C(C=C1)C(=O)C1=CC=C(Cl)C=C1
p1349
atRp1350
sVDCC0277
p1351
g3
((lp1352
VO=C1N(C2CCC(=O)NC2=O)C(=O)C2=CC=CC=C12
p1353
atRp1354
sVDCC0274
p1355
g3
((lp1356
VCC=CCC=CCCC(=O)[C@H]1O[C@H]1C(N)=O
p1357
atRp1358
sVDCC0275
p1359
g3
((lp1360
VCCN(CC)CCNC(=O)C1=CC=C(N)C=C1
p1361
atRp1362
sVDCC0272
p1363
g3
((lp1364
VCCCN(CCC)S(=O)(=O)C1=CC=C(C=C1)C(O)=O
p1365
atRp1366
sVDCC0273
p1367
g3
((lp1368
VS=C1N=CNC2=C1NC=N2
p1369
atRp1370
sVDCC0270
p1371
g3
((lp1372
VCCCCC1=NC2(CCCC2)C(=O)N1CC1=CC=C(C=C1)C1=CC=CC=C1C1=NNN=N1
p1373
atRp1374
sVDCC0271
p1375
g3
((lp1376
VCC[C@@]1(O)C(=O)OCC2=C1C=C1N(CC3=CC4=C(C=CC(O)=C4CN(C)C)N=C13)C2=O
p1377
atRp1378
sVDCC1589
p1379
g3
((lp1380
VCC(C)CCC[C@@H](C)[C@@]1([H])CC[C@@]2([H])\u005cC(CCC[C@]12C)=C\u005cC=C1\u005cC[C@@H](O)C[C@H](O)C1=C
p1381
atRp1382
sVDCC0787
p1383
g3
((lp1384
S'CC1=CC(=NC(=N1)NC2=NC3=CC(=C(C=C3N2)Cl)Cl)NCC(C)N(C)C'
p1385
aS'Cl'
p1386
atRp1387
sVDCC1587
p1388
g3
((lp1389
VNC[C@@H]1O[C@H](O[C@@H]2[C@@H](CO)O[C@@H](O[C@@H]3[C@@H](O)[C@H](N)C[C@H](N)[C@H]3O[C@H]3O[C@H](CO)[C@@H](O)[C@H](O)[C@H]3N)[C@@H]2O)[C@H](N)[C@@H](O)[C@@H]1O
p1390
atRp1391
sVDCC0920
p1392
g3
((lp1393
VOC(=O)C1CCN2C1=CC=C2C(=O)C1=CC=CC=C1
p1394
atRp1395
sVDCC1584
p1396
g3
((lp1397
V[H][C@]12O[C@@]1([H])[C@]1([H])C[C@@]([H])(C[C@@]2([H])[N+]1(C)C)OC(=O)C(O)(C1=CC=CS1)C1=CC=CS1
p1398
atRp1399
sVDCC0239
p1400
g3
((lp1401
VOCC1=C(O)C=CC(=C1)C(O)CNCCCCCCOCCCCC1=CC=CC=C1
p1402
atRp1403
sVDCC1479
p1404
g3
((lp1405
VCC(C)N(CC[C@H](C1=CC=CC=C1)C1=C(O)C=CC(C)=C1)C(C)C
p1406
atRp1407
sVDCC1727
p1408
g3
((lp1409
VCC1=CC(\u005cC=C\u005cC#N)=CC(C)=C1NC1=CC=NC(NC2=CC=C(C=C2)C#N)=N1
p1410
atRp1411
sVDCC1726
p1412
g3
((lp1413
VO[C@H](C[C@H](O)\u005cC=C\u005cC1=C(N=C2C=CC=CC2=C1C1=CC=C(F)C=C1)C1CC1)CC(O)=O
p1414
atRp1415
sVDCC1723
p1416
g3
((lp1417
VCN1C=CC(=O)C(O)=C1C
p1418
atRp1419
sVDCC1199
p1420
g3
((lp1421
VCC(C)(N)CC1=CC=CC=C1
p1422
atRp1423
sVDCC1423
p1424
g3
((lp1425
VCC1=NC2=C(CCN(C(=O)C3=CC=C(NC(=O)C4=CC=CC=C4C4=CC=CC=C4)C=C3)C3=CC=CC=C23)N1
p1426
atRp1427
sVDCC1678
p1428
g3
((lp1429
VOCC(C)(CO)C(=O)O[C@@H]1CC[C@@H](C[C@@H](C)[C@]2([H])CC(=O)[C@H](C)\u005cC=C(C)\u005c[C@@H](O)[C@@H](OC)C(=O)[C@H](C)C[C@H](C)\u005cC=C\u005cC=C\u005cC=C(C)\u005c[C@@H](OC)C[C@]3([H])CC[C@@H](C)[C@@](O)(O3)C(=O)C(=O)N3CCCC[C@H]3C(=O)O2)C[C@H]1OC
p1430
atRp1431
sVDCC1194
p1432
g3
((lp1433
VCC(N)CC1=CC=CC=C1
p1434
atRp1435
sVDCC1622
p1436
g3
((lp1437
VCCCO
p1438
atRp1439
sVDCC1197
p1440
g3
((lp1441
VOC1N=C(C2=CC=CC=C2Cl)C2=C(NC1=O)C=CC(Cl)=C2
p1442
atRp1443
sVDCC1191
p1444
g3
((lp1445
V[H][C@]12[C@H](C[C@H](O)C=C1C=C[C@H](C)[C@@H]2CC[C@@H](O)C[C@@H](O)CC(O)=O)OC(=O)[C@@H](C)CC
p1446
atRp1447
sVDCC1297
p1448
g3
((lp1449
V[H][C@]12SCC(COC(C)=O)=C(N1C(=O)[C@H]2NC(=O)C(=N/OC)\u005cC1=CSC(N)=N1)C(O)=O
p1450
atRp1451
sVDCC1293
p1452
g3
((lp1453
VCNCC[C@H](OC1=CC=CC2=CC=CC=C12)C1=CC=CS1
p1454
atRp1455
sVDCC1356
p1456
g3
((lp1457
VCC1=CC=C(C=C1)N(CC1=NCCN1)C1=CC(O)=CC=C1
p1458
atRp1459
sVDCC1357
p1460
g3
((lp1461
VCOC1=CC=CC2=C1C(=O)C1=C(O)C3=C(C[C@](O)(C[C@@H]3O[C@H]3C[C@H](N)[C@H](O)[C@H](C)O3)C(C)=O)C(O)=C1C2=O
p1462
atRp1463
sVDCC1354
p1464
g3
((lp1465
V[H][C@@]12CC[C@](O)(C(=O)CO)[C@@]1(C)C[C@H](O)[C@@]1(F)[C@@]2([H])CCC2=CC(=O)CC[C@]12C
p1466
atRp1467
sVDCC1355
p1468
g3
((lp1469
VCCOC(=O)[C@H](CCC1=CC=CC=C1)N[C@@H](C)C(=O)N1CC2=CC(OC)=C(OC)C=C2C[C@H]1C(O)=O
p1470
atRp1471
sVDCC0058
p1472
g3
((lp1473
V[Br-].[H][C@]12CC[C@]([H])(C[C@@H](C1)OC(=O)C(CO)C1=CC=CC=C1)[N@+]2(C)C(C)C
p1474
atRp1475
sVDCC1351
p1476
g3
((lp1477
VC[C@@H](O[C@H]1OCCN(CC2=NNC(=O)N2)[C@H]1C1=CC=C(F)C=C1)C1=CC(=CC(=C1)C(F)(F)F)C(F)(F)F
p1478
atRp1479
sVDCC0059
p1480
g3
((lp1481
VCN1CCN(CC1)C1=NC2=CC=CC=C2NC2=C1C=C(C)S2
p1482
atRp1483
sVDCC0684
p1484
g3
((lp1485
S'CC1CCC2CC(C(=CC=CC=CC(CC(C(=O)C(C(C(=CC(C(=O)CC(OC(=O)C3CCCCN3C(=O)C(=O)C1(O2)O)C(C)CC4CCC(C(C4)OC)N5C=NN=N5)C)C)O)OC)C)C)C)OC'
p1486
atRp1487
sVDCC0050
p1488
g3
((lp1489
VCOC1=C(OCCCN2CCOCC2)C=C2C(NC3=CC(Cl)=C(F)C=C3)=NC=NC2=C1
p1490
atRp1491
sVDCC0051
p1492
g3
((lp1493
V[H][C@@]12OC3=C(OC)C=CC4=C3[C@@]11CCN(C)[C@]([H])(C4)[C@]1([H])C=C[C@@H]2O
p1494
atRp1495
sVDCC1433
p1496
g3
((lp1497
VCCC(=C)C(=O)C1=C(Cl)C(Cl)=C(OCC(O)=O)C=C1
p1498
atRp1499
sVDCC1432
p1500
g3
((lp1501
VCCC(=O)N(C1=CC=CC=C1)C1(CCN(CCC(=O)OC)CC1)C(=O)OC
p1502
atRp1503
sVDCC1431
p1504
g3
((lp1505
VCCO
p1506
atRp1507
sVDCC1539
p1508
g3
((lp1509
VCC(C)(C#N)C1=CC(=CC(CN2C=NC=N2)=C1)C(C)(C)C#N
p1510
atRp1511
sVDCC0452
p1512
g3
((lp1513
V[Cl-].CN(C)C1=CC2=[S+]C3=C(C=CC(=C3)N(C)C)N=C2C=C1
p1514
atRp1515
sVDCC1436
p1516
g3
((lp1517
VNS(=O)(=O)CC1=NOC2=CC=CC=C12
p1518
atRp1519
sVDCC0029
p1520
g3
((lp1521
V[H][C@]12[C@H](C[C@@H](C)C=C1C=C[C@H](C)[C@@H]2CC[C@@H]1C[C@@H](O)CC(=O)O1)OC(=O)[C@@H](C)CC
p1522
atRp1523
sVDCC0028
p1524
g3
((lp1525
VCC(C)(C)NC(=O)[C@@H]1CN(CC2=CN=CC=C2)CCN1C[C@@H](O)C[C@@H](CC1=CC=CC=C1)C(=O)N[C@@H]1[C@H](O)CC2=CC=CC=C12
p1526
atRp1527
sVDCC0027
p1528
g3
((lp1529
VCCC1=C(C)CN(C(=O)NCCC2=CC=C(C=C2)S(=O)(=O)NC(=O)NC2CCC(C)CC2)C1=O
p1530
atRp1531
sVDCC0026
p1532
g3
((lp1533
VCOC1=C(OC)C(CS(=O)C2=NC3=C(N2)C=C(OC(F)F)C=C3)=NC=C1
p1534
atRp1535
sVDCC1530
p1536
g3
((lp1537
V[H][C@@]12OC3=C(O)C=CC4=C3[C@@]11CCN(C)[C@]([H])(C4)[C@]1(O)CCC2=O
p1538
atRp1539
sVDCC0024
p1540
g3
((lp1541
VCC[C@H]1OC(=O)[C@H](C)[C@@H](O[C@H]2C[C@@](C)(OC)[C@@H](O)[C@H](C)O2)[C@H](C)[C@@H](O[C@@H]2O[C@H](C)C[C@@H]([C@H]2O)N(C)C)[C@](C)(O)C[C@@H](C)CN(C)[C@H](C)[C@@H](O)[C@]1(C)O
p1542
atRp1543
sVDCC1820
p1544
g3
((lp1545
V[H][C@@]12CCCN1C(=O)[C@H](CC1=CC=CC=C1)N1C(=O)[C@](C)(NC(=O)[C@H]3CN(C)[C@]4([H])CC5=CNC6=CC=CC(=C56)[C@@]4([H])C3)O[C@@]21O
p1546
atRp1547
sVDCC0022
p1548
g3
((lp1549
VCCCC1=NN(C)C2=C1NC(=NC2=O)C1=C(OCC)C=CC(=C1)S(=O)(=O)N1CCN(C)CC1
p1550
atRp1551
sVDCC1822
p1552
g3
((lp1553
VCC[N+](C)(C)C1=CC(O)=CC=C1
p1554
atRp1555
sVDCC0020
p1556
g3
((lp1557
VCC[C@H]1OC(=O)[C@H](C)[C@@H](O[C@H]2C[C@@](C)(OC)[C@@H](O)[C@H](C)O2)[C@H](C)[C@@H](O[C@@H]2O[C@H](C)C[C@@H]([C@H]2O)N(C)C)[C@](C)(O)C[C@@H](C)C(=O)[C@H](C)[C@@H](O)[C@]1(C)O
p1558
atRp1559
sVDCC0188
p1560
g3
((lp1561
V[H][C@]1([C@@H](C)O)C(=O)N2C(C(O)=O)=C(S[C@@H]3CN[C@@H](C3)C(=O)N(C)C)[C@H](C)[C@]12[H]
p1562
atRp1563
sVDCC0189
p1564
g3
((lp1565
VCCC1=C2CN3C(=CC4=C(COC(=O)[C@]4(O)CC)C3=O)C2=NC2=C1C=C(OC(=O)N1CCC(CC1)N1CCCCC1)C=C2
p1566
atRp1567
sVDCC0025
p1568
g3
((lp1569
VCOC1=C(C=C(C=C1)C1=CC2=C(C=C1)C=C(C=C2)C(O)=O)C12CC3CC(CC(C3)C1)C2
p1570
atRp1571
sVDCC1601
p1572
g3
((lp1573
VCCN(CCO)CCCC(C)NC1=C2C=CC(Cl)=CC2=NC=C1
p1574
atRp1575
sVDCC0180
p1576
g3
((lp1577
V[H][C@@]12CC[C@@](O)(C#C)[C@@]1(C)CC[C@]1([H])[C@@]3([H])CCC(=O)C=C3CC[C@@]21[H]
p1578
atRp1579
sVDCC0181
p1580
g3
((lp1581
VNCCCC[C@H](N[C@@H](CCC1=CC=CC=C1)C(O)=O)C(=O)N1CCC[C@H]1C(O)=O
p1582
atRp1583
sVDCC0182
p1584
g3
((lp1585
V[Br-].C[N+]1(C)C2CCC1CC(C2)OC(=O)C(O)C1=CC=CC=C1
p1586
atRp1587
sVDCC0183
p1588
g3
((lp1589
VC[N+]1=C(\u005cC=N\u005cO)C=CC=C1
p1590
atRp1591
sVDCC0184
p1592
g3
((lp1593
V[H][C@@]12CC[C@](O)(C(=O)CO)[C@@]1(C)C[C@H](O)[C@@]1([H])[C@@]2([H])CCC2=CC(=O)CC[C@]12C
p1594
atRp1595
sVDCC0185
p1596
g3
((lp1597
VCCCNC(C)C(=O)NC1=CC=CC=C1C
p1598
atRp1599
sVDCC0186
p1600
g3
((lp1601
VCC(C=CC1=C(C)CCCC1(C)C)=CC=CC(C)=CC(O)=O
p1602
atRp1603
sVDCC0187
p1604
g3
((lp1605
V[H][C@@]12C[C@@]3([H])C(=C(O)[C@]1(O)C(=O)C(C(N)=O)=C(O)[C@H]2N(C)C)C(=O)C1=C(O)C=CC=C1[C@@]3(C)O
p1606
atRp1607
sVDCC1221
p1608
g3
((lp1609
V[H][C@@]12[C@@H](C)C3=C(C(O)=CC=C3)C(=O)C1=C(O)[C@]1(O)C(=O)C(C(N)=O)=C(O)[C@@H](N(C)C)[C@]1([H])[C@H]2O
p1610
atRp1611
sVDCC0369
p1612
g3
((lp1613
V[H][C@@]12[C@@H]3SC[C@]4(NCCC5=C4C=C(OC)C(O)=C5)C(=O)OC[C@H](N1[C@@H](O)[C@@H]1CC4=CC(C)=C(OC)C(O)=C4[C@H]2N1C)C1=C2OCOC2=C(C)C(OC(C)=O)=C31
p1614
atRp1615
sVDCC0113
p1616
g3
((lp1617
VC\u005cN=C(\u005cNCCSCC1=C(C)NC=N1)NC#N
p1618
atRp1619
sVDCC0112
p1620
g3
((lp1621
V[H][C@@]12OC3=C(OC)C=CC4=C3[C@@]11CCN(C)[C@]([H])(C4)[C@]1(O)CCC2=O
p1622
atRp1623
sVDCC0111
p1624
g3
((lp1625
VCC1=CN([C@H]2C[C@H](N=[N+]=[N-])[C@@H](CO)O2)C(=O)NC1=O
p1626
atRp1627
sVDCC0110
p1628
g3
((lp1629
VCCN(CC)C(=O)C(=C\u005cC1=CC(=C(O)C(O)=C1)[N+]([O-])=O)\u005cC#N
p1630
atRp1631
sVDCC0117
p1632
g3
((lp1633
VN[Pt](N)(Cl)Cl
p1634
atRp1635
sVDCC0116
p1636
g3
((lp1637
V[H][C@]12CC3=C(C=C(OC)C=C3)[C@@]3(CCCC[C@]13[H])CCN2C
p1638
atRp1639
sVDCC0115
p1640
g3
((lp1641
VCN[C@H](CC(C)C)C(=O)N[C@@H]1[C@H](O)C2=CC=C(OC3=C(O[C@@H]4O[C@H](CO)[C@@H](O)[C@H](O)[C@H]4O[C@H]4C[C@](C)(N)[C@H](O)[C@H](C)O4)C4=CC(=C3)[C@@H](NC(=O)[C@H](CC(N)=O)NC1=O)C(=O)N[C@@H]1C3=CC(=C(O)C=C3)C3=C(O)C=C(O)C=C3[C@H](NC(=O)[C@@H](NC1=O)[C@H](O)C1=CC
p1642
atRp1643
sVDCC0114
p1644
g3
((lp1645
VCC(C)[C@H](NC(=O)N(C)CC1=CSC(=N1)C(C)C)C(=O)N[C@H](C[C@H](O)[C@H](CC1=CC=CC=C1)NC(=O)OCC1=CN=CS1)CC1=CC=CC=C1
p1646
atRp1647
sVDCC0052
p1648
g3
((lp1649
V[H][C@]12SC(C)(C)[C@@H](N1C(=O)[C@H]2NC(=O)[C@H](NC(=O)N1CCN(CC)C(=O)C1=O)C1=CC=CC=C1)C(O)=O
p1650
atRp1651
sVDCC0053
p1652
g3
((lp1653
VCN(C)CCC=C1C2=CC=CC=C2CCC2=CC=CC=C12
p1654
atRp1655
sVDCC0119
p1656
g3
((lp1657
V[H][C@@]12C[C@H](N(C(=O)[C@H](C)N[C@@H](CCC3=CC=CC=C3)C(=O)OCC)[C@@]1([H])CCCC2)C(O)=O
p1658
atRp1659
sVDCC0118
p1660
g3
((lp1661
VCCCSC1=CC2=C(C=C1)N=C(NC(=O)OC)N2
p1662
atRp1663
sVDCC0056
p1664
g3
((lp1665
VCC[C@@H](CO)NCCN[C@@H](CC)CO
p1666
atRp1667
sVDCC0057
p1668
g3
((lp1669
VCN(C)C(=N)NC(N)=N
p1670
atRp1671
sVDCC0054
p1672
g3
((lp1673
VO=N[Fe--](C#N)(C#N)(C#N)(C#N)C#N
p1674
atRp1675
sVDCC0055
p1676
g3
((lp1677
VCOC1=CC2=C(C=C1)N(C(=O)C1=CC=C(Cl)C=C1)C(C)=C2CC(O)=O
p1678
atRp1679
sVDCC0232
p1680
g3
((lp1681
V[H][C@@]12CCN(C[C@@H]1C=C)[C@]([H])(C2)[C@@H](O)C1=C2C=C(OC)C=CC2=NC=C1
p1682
atRp1683
sVDCC0233
p1684
g3
((lp1685
VCCOC1=C(C=CC(CC(=O)N[C@@H](CC(C)C)C2=CC=CC=C2N2CCCCC2)=C1)C(O)=O
p1686
atRp1687
sVDCC0230
p1688
g3
((lp1689
VCCNC(=O)CCC\u005cC=C/C[C@H]1[C@@H](O)C[C@@H](O)[C@@H]1\u005cC=C\u005c[C@@H](O)CCC1=CC=CC=C1
p1690
atRp1691
sVDCC0231
p1692
g3
((lp1693
VCC1=C(SC=C1)C(=CCCN1CCC[C@H](C1)C(O)=O)C1=C(C)C=CS1
p1694
atRp1695
sVDCC0236
p1696
g3
((lp1697
VCO[C@]12CC[C@@]3(C[C@@H]1[C@](C)(O)C(C)(C)C)[C@H]1CC4=C5C(O[C@@H]2[C@@]35CCN1CC1CC1)=C(O)C=C4
p1698
atRp1699
sVDCC0237
p1700
g3
((lp1701
VNC(N)=NC1=NC(CSCCC(N)=NS(N)(=O)=O)=CS1
p1702
atRp1703
sVDCC0234
p1704
g3
((lp1705
VNC12CC3CC(CC(C3)C1)C2
p1706
atRp1707
sVDCC0235
p1708
g3
((lp1709
VCC1=NC=C(N1CCO)[N+]([O-])=O
p1710
atRp1711
sVDCC1384
p1712
g3
((lp1713
VCC(=O)N(O)CCCCCNC(=O)CCC(=O)N(O)CCCCCNC(=O)CCC(=O)N(O)CCCCCN
p1714
atRp1715
sVDCC0238
p1716
g3
((lp1717
VCCCCC(C)(O)C\u005cC=C\u005c[C@H]1[C@H](O)CC(=O)[C@@H]1CCCCCCC(=O)OC
p1718
atRp1719
sVDCC1386
p1720
g3
((lp1721
VCCC1=C2NC3=C(CCOC3(CC)CC(O)=O)C2=CC=C1
p1722
atRp1723
sVDCC1381
p1724
g3
((lp1725
VOC[C@@H](O)[C@@H](O)[C@H](O)[C@H](O)CO
p1726
atRp1727
sVDCC1380
p1728
g3
((lp1729
VNC1=NC2=C(S1)C=C(OC(F)(F)F)C=C2
p1730
atRp1731
sVDCC0023
p1732
g3
((lp1733
VCCC1=C(C(N)=NC(N)=N1)C1=CC=C(Cl)C=C1
p1734
atRp1735
sVDCC0338
p1736
g3
((lp1737
VO[Bi]1OC(=O)C2=CC=CC=C2O1
p1738
atRp1739
sVDCC1548
p1740
g3
((lp1741
VCN(C)CCCN1C2=CC=CC=C2CCC2=C1C=C(Cl)C=C2
p1742
atRp1743
sVDCC0333
p1744
g3
((lp1745
VN[C@@H](CC(=O)N1CCN2C(C1)=NN=C2C(F)(F)F)CC1=CC(F)=C(F)C=C1F
p1746
atRp1747
sVDCC0620
p1748
g3
((lp1749
V[H][C@](N)(CCC(O)=N[C@@]([H])(CS(=O)(=O)CCOP(=O)(N(CCCl)CCCl)N(CCCl)CCCl)C(O)=N[C@@]([H])(C(O)=O)C1=CC=CC=C1)C(O)=O
p1750
atRp1751
sVDCC1545
p1752
g3
((lp1753
VCCN(CC)CCNC(=O)C1=CC(Cl)=C(N)C=C1OC
p1754
atRp1755
sVDCC0330
p1756
g3
((lp1757
VCC1=NC(NC2=NC=C(S2)C(=O)NC2=C(C)C=CC=C2Cl)=CC(=N1)N1CCN(CCO)CC1
p1758
atRp1759
sVDCC0337
p1760
g3
((lp1761
VNNC1=NN=CC2=CC=CC=C12
p1762
atRp1763
sVDCC0336
p1764
g3
((lp1765
VCCN(CC)CCNC(=O)C1=C(C)NC(\u005cC=C2/C(=O)NC3=C2C=C(F)C=C3)=C1C
p1766
atRp1767
sVDCC0335
p1768
g3
((lp1769
V[H][C@@](C)(O)[C@]([H])(CC)N1N=CN(C1=O)C1=CC=C(C=C1)N1CCN(CC1)C1=CC=C(OC[C@]2([H])CO[C@](CN3C=NC=N3)(C2)C2=C(F)C=C(F)C=C2)C=C1
p1770
atRp1771
sVDCC0334
p1772
g3
((lp1773
VNC1=NC(=O)N(C=N1)[C@H]1C[C@H](O)[C@@H](CO)O1
p1774
atRp1775
sVDCC1551
p1776
g3
((lp1777
VC[C@@H](CC1=CC=CC=C1)NC(=O)[C@@H](N)CCCCN
p1778
atRp1779
sVDCC1577
p1780
g3
((lp1781
V[Ca]
p1782
atRp1783
sVDCC1574
p1784
g3
((lp1785
V[Li+]
p1786
atRp1787
sVDCC0021
p1788
g3
((lp1789
VCN1C=NC2=C1C(=O)N(C)C(=O)N2C
p1790
atRp1791
sVDCC1644
p1792
g3
((lp1793
VOCC(CO)N[C@H]1C[C@](O)(CO)[C@@H](O)[C@H](O)[C@H]1O
p1794
atRp1795
sVDCC0246
p1796
g3
((lp1797
VCN1CCCCC1C(=O)NC1=C(C)C=CC=C1C
p1798
atRp1799
sVDCC0245
p1800
g3
((lp1801
VN.N.O=C1O[Pt]OC(=O)C11CCC1
p1802
atRp1803
sVDCC0244
p1804
g3
((lp1805
V[H][C@@]12CC[C@@](OC(C)=O)(C#C)[C@@]1(CC)CC[C@]1([H])[C@@]3([H])CC\u005cC(C=C3CC[C@@]21[H])=N/O
p1806
atRp1807
sVDCC0243
p1808
g3
((lp1809
V[H][C@@]12OC3=C(OC)C=CC4=C3[C@@]11CCN(C)[C@]([H])(C4)[C@]1([H])CCC2=O
p1810
atRp1811
sVDCC0242
p1812
g3
((lp1813
VNNC(=O)C1=CC=NC=C1
p1814
atRp1815
sVDCC0241
p1816
g3
((lp1817
VCC(C)(C(O)=O)C1=CC=C(C=C1)C(O)CCCN1CCC(CC1)C(O)(C1=CC=CC=C1)C1=CC=CC=C1
p1818
atRp1819
sVDCC1546
p1820
g3
((lp1821
VClC1=CC=CC(N2CCN(CCCCOC3=CC4=C(CCC(=O)N4)C=C3)CC2)=C1Cl
p1822
atRp1823
sVDCC0331
p1824
g3
((lp1825
VCOCCCOC1=C(OC)C=CC(C[C@@H](C[C@H](N)[C@@H](O)C[C@@H](C(C)C)C(=O)NCC(C)(C)C(N)=O)C(C)C)=C1
p1826
atRp1827
sVDCC1097
p1828
g3
((lp1829
V[H][C@@]12CC[C@H](O)[C@@]1(C)CC[C@]1([H])C3=C(CC[C@@]21[H])C=C(O)C=C3
p1830
atRp1831
sVDCC0248
p1832
g3
((lp1833
VClC1=CC2=C(C=C1)C(=C1CCNCC1)C1=C(CC2)C=CC=N1
p1834
atRp1835
sVDCC0622
p1836
g3
((lp1837
S'C1=CC(=C(C=C1C(=O)N)[N+](=O)[O-])I'
p1838
atRp1839
sVDCC0380
p1840
g3
((lp1841
S'C1=CC=C(C(=C1)N)SC(=C(C#N)C(=C(N)SC2=CC=CC=C2N)C#N)N'
p1842
atRp1843
sVDCC1542
p1844
g3
((lp1845
VCC(=O)NC1C(O)OC(COS(O)(=O)=O)C(OC2OC(C(OC3OC(CO)C(OC4OC(C(O)C(O)C4OS(O)(=O)=O)C(O)=O)C(OS(O)(=O)=O)C3NS(O)(=O)=O)C(O)C2OS(O)(=O)=O)C(O)=O)C1O
p1846
atRp1847
sVDCC1541
p1848
g3
((lp1849
VOCCOCCN1CCN(CC1)C1=NC2=CC=CC=C2SC2=CC=CC=C12
p1850
atRp1851
sVDCC0945
p1852
g3
((lp1853
S'CC1=[N+](C2=C(N1CCOC)C(=O)C3=CC=CC=C3C2=O)CC4=NC=CN=C4.[Br-]'
p1854
atRp1855
sVDCC0440
p1856
g3
((lp1857
S'C1=NC(=C(N1C2C(C(C(O2)CO)O)O)O)C(=O)N'
p1858
atRp1859
sVDCC1164
p1860
g3
((lp1861
V[H][C@]1(NC(=O)[C@H](CCCCN)NC(=O)[C@@H](CC2=CNC3=C2C=CC=C3)NC(=O)[C@H](CC2=CC=CC=C2)NC(=O)[C@H](CSSC[C@H](NC1=O)C(=O)N[C@H](CO)[C@@H](C)O)NC(=O)[C@H](N)CC1=CC=CC=C1)[C@@H](C)O
p1862
atRp1863
sVDCC1488
p1864
g3
((lp1865
V[O-][N+](=O)C1=CC2=C(NC(=O)CN=C2C2=CC=CC=C2Cl)C=C1
p1866
atRp1867
sVDCC1367
p1868
g3
((lp1869
VFC1=CC=C(C=C1)[C@@H]1CCNC[C@H]1COC1=CC2=C(OCO2)C=C1
p1870
atRp1871
sVDCC1365
p1872
g3
((lp1873
V[H][C@]12SC(C)(C)[C@@H](N1C(=O)[C@H]2NC(=O)C1=C(C)ON=C1C1=CC=CC=C1)C(O)=O
p1874
atRp1875
sVDCC0802
p1876
g3
((lp1877
VCN1C(=O)C(O)=C(N=C1C(C)(C)NC(=O)C1=NN=C(C)O1)C(=O)NCC1=CC=C(F)C=C1
p1878
atRp1879
sVDCC1363
p1880
g3
((lp1881
VCCCCCN(C)CCC(O)(P(O)(O)=O)P(O)(O)=O
p1882
atRp1883
sVDCC1361
p1884
g3
((lp1885
VCCOC1=CC=CC=C1OCCN[C@H](C)CC1=CC(=C(OC)C=C1)S(N)(=O)=O
p1886
atRp1887
sVDCC1368
p1888
g3
((lp1889
VCC(C)(C)C(=O)OCOP(=O)(COCCN1C=NC2=C(N)N=CN=C12)OCOC(=O)C(C)(C)C
p1890
atRp1891
sVDCC0148
p1892
g3
((lp1893
VCN1CCN(CC2=CC=C(C=C2)C(=O)NC2=CC(NC3=NC=CC(=N3)C3=CN=CC=C3)=C(C)C=C2)CC1
p1894
atRp1895
sVDCC0149
p1896
g3
((lp1897
V[H][C@@]12C[C@@H](O)[C@](O)(C(=O)CO)[C@@]1(C)C[C@H](O)[C@@]1(F)[C@@]2([H])CCC2=CC(=O)C=C[C@]12C
p1898
atRp1899
sVDCC0144
p1900
g3
((lp1901
VCC(=O)NC[C@H]1CN(C(=O)O1)C1=CC(F)=C(C=C1)N1CCOCC1
p1902
atRp1903
sVDCC0145
p1904
g3
((lp1905
VCC(C)NCC(O)COC1=CC=C(COCCOC(C)C)C=C1
p1906
atRp1907
sVDCC0146
p1908
g3
((lp1909
VCCN(CC)CC1=C(O)C=CC(NC2=C3C=CC(Cl)=CC3=NC=C2)=C1
p1910
atRp1911
sVDCC0147
p1912
g3
((lp1913
VCO[C@H]1\u005cC=C\u005cO[C@@]2(C)OC3=C(C2=O)C2=C(C(O)=C3C)C(=O)C(NC(=O)\u005cC(C)=C/C=C/[C@H](C)[C@H](O)[C@@H](C)[C@@H](O)[C@@H](C)[C@H](OC(C)=O)[C@@H]1C)=C1NC3(CCN(CC3)CC(C)C)N=C21
p1914
atRp1915
sVDCC0140
p1916
g3
((lp1917
V[H][C@@]12C[C@@]3([H])[C@]4([H])C[C@]([H])(F)C5=CC(=O)C=C[C@]5(C)[C@@]4(F)[C@@H](O)C[C@]3(C)[C@@]1(OC(C)(C)O2)C(=O)CO
p1918
atRp1919
sVDCC0141
p1920
g3
((lp1921
VCCC1(C)CC(=O)NC1=O
p1922
atRp1923
sVDCC0142
p1924
g3
((lp1925
VNC(N)=NC(=O)C1=C(N)N=C(N)C(Cl)=N1
p1926
atRp1927
sVDCC0143
p1928
g3
((lp1929
V[H][C@@]12[C@@H](O)[C@@]3([H])C(C(=O)C4=C(O)C=CC=C4[C@@]3(C)O)=C(O)[C@]1(O)C(=O)C(C(N)=O)=C(O)[C@H]2N(C)C
p1930
atRp1931
sVDCC1854
p1932
g3
((lp1933
VCC1=NC(NS(=O)(=O)C2=CC=C(N)C=C2)=NC=C1
p1934
atRp1935
sVDCC0424
p1936
g3
((lp1937
S'CC1=C(SC=[N+]1CC(=O)C2=CC=CC=C2)C.[Cl-]'
p1938
atRp1939
sVDCC1525
p1940
g3
((lp1941
VC[C@@H]1O[C@H](C[C@H](N)[C@@H]1O)O[C@H]1C[C@@](O)(CC2=C1C(O)=C1C(=O)C3=CC=CC=C3C(=O)C1=C2O)C(C)=O
p1942
atRp1943
sVDCC0932
p1944
g3
((lp1945
S'C1CC1C(=O)N2CCN(CC2)C(=O)C3=C(C=CC(=C3)CC4=NNC(=O)C5=CC=CC=C54)F'
p1946
atRp1947
sVDCC1503
p1948
g3
((lp1949
VO=C1N(CC2=CC=CC=C2)C2C[S+]3CCCC3C2N1CC1=CC=CC=C1
p1950
atRp1951
sVDCC1502
p1952
g3
((lp1953
VCOC(=O)C1=C(C)NC(C)=C(C1C1=CC=CC=C1[N+]([O-])=O)C(=O)OC
p1954
atRp1955
sVDCC1501
p1956
g3
((lp1957
VCOC1=C(OC)C=C(CC2=NC=CC3=CC(OC)=C(OC)C=C23)C=C1
p1958
atRp1959
sVDCC1500
p1960
g3
((lp1961
V[H][C@]12SCC(COC(N)=O)=C(N1C(=O)[C@H]2NC(=O)C(=N/OC)\u005cC1=CC=CO1)C(O)=O
p1962
atRp1963
sVDCC1507
p1964
g3
((lp1965
V[H][C@@]1(CC[C@@]2([H])[C@]3([H])CC[C@@]4([H])NC(=O)C=C[C@]4(C)[C@@]3([H])CC[C@]12C)C(=O)NC1=CC(=CC=C1C(F)(F)F)C(F)(F)F
p1966
atRp1967
sVDCC0700
p1968
g3
((lp1969
VCCCCC1=NC(C)=C(CC(=S)N(C)C)C(=O)N1CC1=CC=C(C=C1)C1=C(C=CC=C1)C1=NN=NN1
p1970
atRp1971
sVDCC1262
p1972
g3
((lp1973
V[H][C@]12CCCC3=C1C(=CC=C3)C(=O)N(C2)[C@@H]1CN2CCC1CC2
p1974
atRp1975
sVDCC1509
p1976
g3
((lp1977
VCOC1=CC=CC=C1OCCNCC(O)COC1=CC=CC2=C1C1=CC=CC=C1N2
p1978
atRp1979
sVDCC1508
p1980
g3
((lp1981
VCC(O)(CS(=O)(=O)C1=CC=C(F)C=C1)C(=O)NC1=CC(=C(C=C1)C#N)C(F)(F)F
p1982
atRp1983
sVDCC1267
p1984
g3
((lp1985
V[H][C@@]12CC[C@H](C(C)=O)[C@@]1(C)CC[C@@]1([H])[C@@]2([H])CCC2=CC(=O)CC[C@]12C
p1986
atRp1987
sVDCC1468
p1988
g3
((lp1989
VCN1C=NC(=C1SC1=NC=NC2=C1NC=N2)[N+]([O-])=O
p1990
atRp1991
sVDCC0469
p1992
g3
((lp1993
S'C1=C(C(=O)C(=CC1=C(N)NO)O)O'
p1994
atRp1995
sVDCC0467
p1996
g3
((lp1997
VCCCCNC1=CC=C(C=C1)C(=O)OCCN(C)C
p1998
atRp1999
sVDCC1465
p2000
g3
((lp2001
VCCN(C)C(=O)OC1=CC=CC(=C1)[C@H](C)N(C)C
p2002
atRp2003
sVDCC1466
p2004
g3
((lp2005
V[H][C@@]12CCC(=O)[C@@]1(C)CC[C@@]1([H])[C@@]2([H])CC(=C)C2=CC(=O)C=C[C@]12C
p2006
atRp2007
sVDCC1830
p2008
g3
((lp2009
VNS(=O)(=O)C1=CC2=C(NCNS2(=O)=O)C=C1C(F)(F)F
p2010
atRp2011
sVDCC0463
p2012
g3
((lp2013
V[H]\u005cC(CN1CCCC1)=C(\u005cC1=CC=C(C)C=C1)C1=CC=CC(=N1)C(\u005c[H])=C(/[H])C(O)=O
p2014
atRp2015
sVDCC1461
p2016
g3
((lp2017
VC\u005cC(\u005cC=C\u005cC1=C(C)CCCC1(C)C)=C/C=C/C(/C)=C\u005cC(O)=O
p2018
atRp2019
sVDCC0460
p2020
g3
((lp2021
S'CCN1CCCC1CNC(=O)C2=C(C(=CC(=C2OC)Cl)Cl)O'
p2022
atRp2023
sVDCC1372
p2024
g3
((lp2025
V[O-][N+](=O)OCC(CO[N+]([O-])=O)O[N+]([O-])=O
p2026
atRp2027
sVDCC0063
p2028
g3
((lp2029
VOC(=O)COCCN1CCN(CC1)C(C1=CC=CC=C1)C1=CC=C(Cl)C=C1
p2030
atRp2031
sVDCC0062
p2032
g3
((lp2033
VNC(=O)C1=NC=CN=C1
p2034
atRp2035
sVDCC0061
p2036
g3
((lp2037
VCOC1=CC2=C(C=C1)N=C(N2)S(=O)CC1=NC=C(C)C(OC)=C1C
p2038
atRp2039
sVDCC0060
p2040
g3
((lp2041
VCC(C)NCC(O)COC1=CC=C(CC(N)=O)C=C1
p2042
atRp2043
sVDCC0067
p2044
g3
((lp2045
V[H][C@@]12N(C)C3=CC(OC)=C(C=C3[C@@]11CCN3CC=C[C@@](CC)([C@@H](OC(C)=O)[C@@]2(O)C(=O)OC)[C@@]13[H])[C@]1(C[C@@]2([H])CN(CC(CC)=C2)CC2=C1NC1=CC=CC=C21)C(=O)OC
p2046
atRp2047
sVDCC0066
p2048
g3
((lp2049
VOC(C1CCCCN1)C1=CC(=NC2=C1C=CC=C2C(F)(F)F)C(F)(F)F
p2050
atRp2051
sVDCC0065
p2052
g3
((lp2053
VC[C@H]1[C@H](NC(=O)C(=N/OC(C)(C)C(=O)O)\u005cC2=CSC([NH3+])=N2)C(=O)N1S([O-])(=O)=O
p2054
atRp2055
sVDCC0064
p2056
g3
((lp2057
VCOC1=CC=C(C=C1)[C@@H]1SC2=CC=CC=C2N(CCN(C)C)C(=O)[C@@H]1OC(C)=O
p2058
atRp2059
sVDCC0383
p2060
g3
((lp2061
S'CC(=NC1=CC=C(C=C1)N=CC2=CC=C(C=C2)C=NC3=CC=C(C=C3)N=C(C)N(C)C)N(C)C'
p2062
atRp2063
sVDCC0069
p2064
g3
((lp2065
VCN1CCN(CC1)C1=NC2=CC(Cl)=CC=C2NC2=CC=CC=C12
p2066
atRp2067
sVDCC0068
p2068
g3
((lp2069
V[H][C@@]12C[C@@H](O)CN1C(=O)[C@@]([H])(NC(=O)[C@H](C[C@@H](O)[C@@H](O)NC(=O)[C@]1([H])[C@@H](O)[C@@H](C)CN1C(=O)[C@@]([H])(NC(=O)[C@@]([H])(NC2=O)[C@H](O)[C@@H](O)C1=CC=C(O)C=C1)[C@@H](C)O)NC(=O)C1=CC=C(C=C1)C1=CC=C(C=C1)C1=CC=C(OCCCCC)C=C1)[C@@H](C)O
p2070
atRp2071
sVDCC0565
p2072
g3
((lp2073
VCC(C)OC(=O)C1=C(C)NC(N)=C(C1C1=CC=CC(=C1)[N+]([O-])=O)C(=O)OC1CN(C1)C(C1=CC=CC=C1)C1=CC=CC=C1
p2074
atRp2075
sVDCC0364
p2076
g3
((lp2077
VCN1CC[C@@H]([C@H](O)C1)C1=C(O)C=C(O)C2=C1OC(=CC2=O)C1=CC=CC=C1Cl
p2078
atRp2079
sVDCC0209
p2080
g3
((lp2081
VCN1C2=C(C=C(Cl)C=C2)C(=NCC1=O)C1=CC=CC=C1
p2082
atRp2083
sVDCC0361
p2084
g3
((lp2085
VONC(=O)CCCCCCC(=O)NC1=CC=CC=C1
p2086
atRp2087
sVDCC0362
p2088
g3
((lp2089
VO[C@@H]1CC[C@@]2(C)[C@@]([H])(CC[C@@]3(C)[C@@]2([H])[C@H](O)C[C@@]2([H])\u005cC([C@@H](OC(=O)C)C[C@]32C)=C(/CCC=C(C)C)C(O)=O)[C@@H]1C
p2090
atRp2091
sVDCC0363
p2092
g3
((lp2093
VCO[C@@H]1C[C@@H](C)CC2=C(NCCN(C)C)C(=O)C=C(NC(=O)\u005cC(C)=C/C=C\u005c[C@@H](OC)[C@H](OC(N)=O)\u005cC(C)=C/[C@@H](C)[C@H]1O)C2=O
p2094
atRp2095
sVDCC0203
p2096
g3
((lp2097
VNC(=O)C1=NN(C=N1)[C@@H]1O[C@H](CO)[C@@H](O)[C@H]1O
p2098
atRp2099
sVDCC0202
p2100
g3
((lp2101
VCCN(CC1=CC=NC=C1)C(=O)C(CO)C1=CC=CC=C1
p2102
atRp2103
sVDCC0201
p2104
g3
((lp2105
VCC1CC2=CC=CC=C2N1NC(=O)C1=CC(=C(Cl)C=C1)S(N)(=O)=O
p2106
atRp2107
sVDCC0811
p2108
g3
((lp2109
S'CC1=CC=C(C=C1)NC(=O)N(C2=CC=CC=C2Cl)S(=O)[O-]'
p2110
atRp2111
sVDCC0207
p2112
g3
((lp2113
V[H][C@@]12CC[C@@](OC(C)=O)(C#C)[C@@]1(C)CC[C@]1([H])[C@@]3([H])CC[C@H](OC(C)=O)C=C3CC[C@@]21[H]
p2114
atRp2115
sVDCC0206
p2116
g3
((lp2117
VCC(C)C1=CC=CC(C(C)C)=C1O
p2118
atRp2119
sVDCC0205
p2120
g3
((lp2121
V[Na+].CCCCCCCCCCCCOS([O-])(=O)=O
p2122
atRp2123
sVDCC1210
p2124
g3
((lp2125
VCC(C)C[C@H](CN)CC(O)=O
p2126
atRp2127
sVDCC1599
p2128
g3
((lp2129
VOC(=O)C1=CC=C(C=C1)N1N=C(N=C1C1=CC=CC=C1O)C1=CC=CC=C1O
p2130
atRp2131
sVDCC0442
p2132
g3
((lp2133
VCC1=CC(O)=C2C(=O)C3=C(C=C(O)C=C3O)C(=O)C2=C1
p2134
atRp2135
sVDCC1590
p2136
g3
((lp2137
V[H][C@@]12OC3=C(OC(C)=O)C=CC4=C3[C@@]11CCN(C)[C@]([H])(C4)[C@]1([H])C=C[C@@H]2OC(C)=O
p2138
atRp2139
sVDCC1593
p2140
g3
((lp2141
VC[C@H](N)CC1=CC=CC=C1
p2142
atRp2143
sVDCC1594
p2144
g3
((lp2145
V[H][C@@]1(CC[C@@]2([H])[C@]3([H])[C@@H](O)C[C@]4([H])C[C@H](O)CC[C@]4(C)[C@@]3([H])CC[C@]12C)[C@H](C)CCC(O)=O
p2146
atRp2147
sVDCC1595
p2148
g3
((lp2149
VO=C(O[C@H]1CN2CCC1CC2)N1CCC2=CC=CC=C2[C@@H]1C1=CC=CC=C1
p2150
atRp2151
sVDCC1699
p2152
g3
((lp2153
V[H][C@@]12CC[C@@](O)(C#C)[C@@]1(CC)CC[C@]1([H])[C@@]3([H])CCC(C=C3CC[C@@]21[H])=NO
p2154
atRp2155
sVDCC0446
p2156
g3
((lp2157
S'C1C(OC(OC1C2=CC=C(C=C2)CO)C3=CC=C(C=C3)NC(=O)CCCCCCC(=O)NO)CSC4=NC(=C(O4)C5=CC=CC=C5)C6=CC=CC=C6.O'
p2158
atRp2159
sVDCC0398
p2160
g3
((lp2161
V[H][C@@](C)(C(O)=O)C1=CC(=CC=C1)C(=O)C1=CC=CC=C1
p2162
atRp2163
sVDCC0741
p2164
g3
((lp2165
S'CCC(C)C(C(=O)NC(CCC(=O)O)C(=O)NC(CC1=CNC2=CC=CC=C21)C(=O)NC(CC(C)C)C(=O)NC(CCCCN)C(=O)NC(CC(=O)N)C(=O)NCC(=O)NCC(=O)N3CCCC3C(=O)NC(CO)C(=O)NC(CO)C(=O)NCC(=O)NC(C)C(=O)N4CCCC4C(=O)N5CCCC5C(=O)NC(CO)C(=O)NC(CCCCN)C(=O)NC(CCCCN)C(=O)NC(CCCCN)C(=O)NC(CCCCN)C(=O)NC(CCCCN)C(=O)NC(CCCCN)C(=O)N)NC(=O)C(CC6=CC=CC=C6)NC(=O)C(CC(C)C)NC(=O)C(CCCNC(=N)N)NC(=O)C(C(C)C)NC(=O)C(C)NC(=O)C(CCC(=O)O)NC(=O)C(CCC(=O)O)NC(=O)C(CCC(=O)O)NC(=O)C(CCSC)NC(=O)C(CCC(=O)N)NC(=O)C(CCCCN)NC(=O)C(CO)NC(=O)C(CC(C)C)NC(=O)C(CC(=O)O)NC(=O)C(CO)NC(=O)C(C(C)O)NC(=O)C(CC7=CC=CC=C7)NC(=O)C(C(C)O)NC(=O)CNC(=O)C(CCC(=O)O)NC(=O)CNC(=O)C(CC8=CN=CN8)N'
p2166
atRp2167
sVDCC1227
p2168
g3
((lp2169
VC[C@@H]1CCN([C@H](C1)C(O)=O)C(=O)[C@H](CCCN=C(N)N)NS(=O)(=O)C1=CC=CC2=C1NC[C@H](C)C2
p2170
atRp2171
sVDCC0247
p2172
g3
((lp2173
VCCCC1=NC2=C(C=C(C=C2C)C2=NC3=CC=CC=C3N2C)N1CC1=CC=C(C=C1)C1=CC=CC=C1C(O)=O
p2174
atRp2175
sVDCC1737
p2176
g3
((lp2177
VCC(C)C[C@H](NC(=O)[C@H](CCC1=CC=CC=C1)NC(=O)CN1CCOCC1)C(=O)N[C@@H](CC1=CC=CC=C1)C(=O)N[C@@H](CC(C)C)C(=O)[C@@]1(C)CO1
p2178
atRp2179
sVDCC1046
p2180
g3
((lp2181
VCN(C)C(=O)[C@H]1CC[C@H](NC(=O)C(=O)NC2=NC=C(Cl)C=C2)[C@@H](C1)NC(=O)C1=NC2=C(CN(C)CC2)S1
p2182
atRp2183
sVDCC0204
p2184
g3
((lp2185
VCCC(=O)N(C1CCN(CCC2=CC=CC=C2)CC1)C1=CC=CC=C1
p2186
atRp2187
sVDCC1412
p2188
g3
((lp2189
VCC(CCC1=CC=C(O)C=C1)NCCC1=CC(O)=C(O)C=C1
p2190
atRp2191
sVDCC1284
p2192
g3
((lp2193
VCCOC(=O)C1(CCN(C)CC1)C1=CC=CC=C1
p2194
atRp2195
sVDCC1285
p2196
g3
((lp2197
VCOC1=C(OC)C=C2C(N)=NC(=NC2=C1)N1CCN(CC1)C(=O)C1=CC=CO1
p2198
atRp2199
sVDCC1329
p2200
g3
((lp2201
VCCCC(C)C1(CC)C(=O)NC(=S)NC1=O
p2202
atRp2203
sVDCC1328
p2204
g3
((lp2205
VCC(CCC1=CC=CC=C1)NCC(O)C1=CC(C(N)=O)=C(O)C=C1
p2206
atRp2207
sVDCC1282
p2208
g3
((lp2209
VFC1=CC=C(C=C1)C(=O)CCCN1CCC(=CC1)N1C(=O)NC2=CC=CC=C12
p2210
atRp2211
sVDCC1098
p2212
g3
((lp2213
S'CCCC1CC(=O)N(C1)C(CC)C(=O)N'
p2214
atRp2215
sVDCC1224
p2216
g3
((lp2217
VClCCNC(=O)N(CCCl)N=O
p2218
atRp2219
sVDCC1321
p2220
g3
((lp2221
V[H][C@@]12N(C)C3=C(C=C(C(OC)=C3)[C@]3(C[C@@H]4CN(C[C@](O)(CC)C4)CCC4=C3NC3=CC=CC=C43)C(=O)OC)[C@@]11CCN3CC=C[C@@](CC)([C@@H](OC(C)=O)[C@]2(O)C(=O)OC)[C@@]13[H]
p2222
atRp2223
sVDCC0969
p2224
g3
((lp2225
S'CC1(CC(=O)N(C(=O)C1)CCCCN2CCN(CC2)C3=NC=CC=N3)C.Cl'
p2226
atRp2227
sVDCC0393
p2228
g3
((lp2229
S'CC12CCC3(C1)C(CC(C4C3(CCCC4(C)CO)C)OC(=O)C5=CC=CC=C5)CC2=O'
p2230
atRp2231
sVDCC1641
p2232
g3
((lp2233
VOC(CNCC(O)C1CCC2=C(O1)C=CC(F)=C2)C1CCC2=C(O1)C=CC(F)=C2
p2234
atRp2235
sVDCC1314
p2236
g3
((lp2237
VCOC1=C2OC(=O)C=CC2=CC2=C1OC=C2
p2238
atRp2239
sVDCC0240
p2240
g3
((lp2241
VCC(=O)OC1=CC=CC=C1C(O)=O
p2242
atRp2243
sVDCC1437
p2244
g3
((lp2245
V[H]C1CC[C@]2(C)[C@]([H])(CC[C@@]2([H])\u005cC1=C\u005cC=C1C[C@@H](O)C[C@H](O)C1)[C@H](C)\u005cC=C\u005c[C@H](C)C(O)(C)C
p2246
atRp2247
sVDCC1135
p2248
g3
((lp2249
VCC(C)C[C@H](NC(=O)[C@@H](CCCNC(N)=O)NC(=O)[C@H](CC1=CC=C(O)C=C1)NC(=O)[C@H](CO)NC(=O)[C@@H](CC1=CN=CC=C1)NC(=O)[C@@H](CC1=CC=C(Cl)C=C1)NC(=O)[C@@H](CC1=CC2=CC=CC=C2C=C1)NC(C)=O)C(=O)N[C@@H](CCCNC(N)=N)C(=O)N1CCC[C@H]1C(=O)N[C@H](C)C(N)=O
p2250
atRp2251
sVDCC1849
p2252
g3
((lp2253
VCOC1=CC=C(CN(CCN(C)C)C2=NC=CC=C2)C=C1
p2254
atRp2255
sVDCC1559
p2256
g3
((lp2257
VCOC1=CC=C(C[C@@H](C)NC[C@H](O)C2=CC(NC=O)=C(O)C=C2)C=C1
p2258
atRp2259
sVDCC0249
p2260
g3
((lp2261
VC[C@](N)(CC1=CC=C(O)C(O)=C1)C(O)=O
p2262
atRp2263
sVDCC0162
p2264
g3
((lp2265
V[H]C(=O)N1C(CNC2=CC=C(C=C2)C(=O)N[C@@H](CCC(O)=O)C(O)=O)CNC2=C1C(=O)NC(N)=N2
p2266
atRp2267
sVDCC1494
p2268
g3
((lp2269
VCC(C)N1C(\u005cC=C\u005c[C@@H](O)C[C@@H](O)CC(O)=O)=C(C2=CC=CC=C12)C1=CC=C(F)C=C1
p2270
atRp2271
sVDCC0048
p2272
g3
((lp2273
VCCCC(CCC)C(O)=O
p2274
atRp2275
sVDCC1819
p2276
g3
((lp2277
VOC(=O)C1(CCN(CCC(C#N)(C2=CC=CC=C2)C2=CC=CC=C2)CC1)C1=CC=CC=C1
p2278
atRp2279
sVDCC0421
p2280
g3
((lp2281
VOC12CC3CC(C1)CC(C3)(C2)NCC(=O)N1CCC[C@H]1C#N
p2282
atRp2283
sVDCC0420
p2284
g3
((lp2285
VNC1=[N+]([O-])C2=C(C=CC=C2)[N+]([O-])=N1
p2286
atRp2287
sVDCC0038
p2288
g3
((lp2289
VCCCC1=NC(=C(N1CC1=CC=C(C=C1)C1=C(C=CC=C1)C1=NN=NN1)C(O)=O)C(C)(C)O
p2290
atRp2291
sVDCC1425
p2292
g3
((lp2293
VOC(CC1=CN=CC=C1)(P(O)(O)=O)P(O)(O)=O
p2294
atRp2295
sVDCC1427
p2296
g3
((lp2297
VCN1N=C(C(=O)N[C@@H]2C[C@@H]3CCC[C@H](C2)N3C)C2=C1C=CC=C2
p2298
atRp2299
sVDCC0034
p2300
g3
((lp2301
VN[C@@H]1CONC1=O
p2302
atRp2303
sVDCC0035
p2304
g3
((lp2305
VCC1=NOC(NS(=O)(=O)C2=CC=C(N)C=C2)=C1C
p2306
atRp2307
sVDCC0036
p2308
g3
((lp2309
VCOCCC1=CC=C(OCC(O)CNC(C)C)C=C1
p2310
atRp2311
sVDCC0037
p2312
g3
((lp2313
V[H][C@@]12CO[C@@]3(COS(N)(=O)=O)OC(C)(C)O[C@@]3([H])[C@]1([H])OC(C)(C)O2
p2314
atRp2315
sVDCC0030
p2316
g3
((lp2317
VCC1=C2NC(=O)C3=C(N=CC=C3)N(C3CC3)C2=NC=C1
p2318
atRp2319
sVDCC0031
p2320
g3
((lp2321
VCC(C)CC1(CC=C)C(=O)NC(=O)NC1=O
p2322
atRp2323
sVDCC0032
p2324
g3
((lp2325
VO=C1NC(=O)C(N1)(C1=CC=CC=C1)C1=CC=CC=C1
p2326
atRp2327
sVDCC0033
p2328
g3
((lp2329
VClC1=CC=CC=C1C(N1C=CN=C1)(C1=CC=CC=C1)C1=CC=CC=C1
p2330
atRp2331
sVDCC1842
p2332
g3
((lp2333
VCN(CC#C)CC1=CC=CC=C1
p2334
atRp2335
sVDCC1491
p2336
g3
((lp2337
VCC[C@H]1[C@@H](CC2=CN=CN2C)COC1=O
p2338
atRp2339
sVDCC0332
p2340
g3
((lp2341
VCS(=O)(=O)CCNCC1=CC=C(O1)C1=CC2=C(C=C1)N=CN=C2NC1=CC(Cl)=C(OCC2=CC(F)=CC=C2)C=C1
p2342
atRp2343
sVDCC1846
p2344
g3
((lp2345
VCN1C(CSCC(F)(F)F)NC2=CC(Cl)=C(C=C2S1(=O)=O)S(N)(=O)=O
p2346
atRp2347
sVDCC0875
p2348
g3
((lp2349
V[O-][N+](=O)OCCNC(=O)C1=CC=CN=C1
p2350
atRp2351
sVDCC0100
p2352
g3
((lp2353
VCNCCC(OC1=CC=C(C=C1)C(F)(F)F)C1=CC=CC=C1
p2354
atRp2355
sVDCC0101
p2356
g3
((lp2357
VCNC1=NC2=C(C=C(Cl)C=C2)C(C2=CC=CC=C2)=N(=O)C1
p2358
atRp2359
sVDCC0102
p2360
g3
((lp2361
VNCC[C@H](O)C(=O)N[C@@H]1C[C@H](N)[C@@H](O[C@H]2O[C@H](CN)[C@@H](O)[C@H](O)[C@H]2O)[C@H](O)[C@H]1O[C@H]1O[C@H](CO)[C@@H](O)[C@H](N)[C@H]1O
p2362
atRp2363
sVDCC0103
p2364
g3
((lp2365
VNC1=CC=CC2=C1CN(C1CCC(=O)NC1=O)C2=O
p2366
atRp2367
sVDCC0104
p2368
g3
((lp2369
VOC1=CC=C(C=C1)C1=C(C(=O)C2=CC=C(OCCN3CCCCC3)C=C2)C2=C(S1)C=C(O)C=C2
p2370
atRp2371
sVDCC0105
p2372
g3
((lp2373
VCC1=CC=C(C=C1)C1=CC(=NN1C1=CC=C(C=C1)S(N)(=O)=O)C(F)(F)F
p2374
atRp2375
sVDCC0106
p2376
g3
((lp2377
VBrC1=C(NC2=NCCN2)C=CC2=NC=CN=C12
p2378
atRp2379
sVDCC0107
p2380
g3
((lp2381
VCCN1C=C(C(O)=O)C(=O)C2=CC(F)=C(C=C12)N1CCN(C)CC1
p2382
atRp2383
sVDCC0109
p2384
g3
((lp2385
VCCC(=O)OC(OP(=O)(CCCCC1=CC=CC=C1)CC(=O)N1C[C@@H](C[C@H]1C(O)=O)C1CCCCC1)C(C)C
p2386
atRp2387
sVDCC0169
p2388
g3
((lp2389
VCCCCC1=NC(Cl)=C(CO)N1CC1=CC=C(C=C1)C1=CC=CC=C1C1=NNN=N1
p2390
atRp2391
sVDCC1434
p2392
g3
((lp2393
VCN1C2=C(C3=CC=CC=C13)C(=O)C(CN1C=CN=C1C)CC2
p2394
atRp2395
sVDCC0372
p2396
g3
((lp2397
V[H][C@@]12CC[C@@H](C)[C@]3([H])CC[C@@]4(C)OO[C@@]13[C@]([H])(O[C@H](OC)[C@@H]2C)O4
p2398
atRp2399
sVDCC1252
p2400
g3
((lp2401
VCN1C2=C(C=C(Cl)C=C2)N(C2=CC=CC=C2)C(=O)CC1=O
p2402
atRp2403
sVDCC0634
p2404
g3
((lp2405
S'CC(CN1CCOCC1)NC(=O)NC2=CC=CC=C2F'
p2406
atRp2407
sVDCC1399
p2408
g3
((lp2409
VOC(=O)C1=CC(=CC=C1O)\u005cN=N\u005cC1=CC=C(C=C1)S(=O)(=O)NC1=NC=CC=C1
p2410
atRp2411
sVDCC1256
p2412
g3
((lp2413
VNC1=CC=C(C=C1)S(=O)(=O)NC1=NC=CC=N1
p2414
atRp2415
sVDCC1614
p2416
g3
((lp2417
VNCCCC[C@H](NC(=O)[C@@H]1CCCN1C(=O)[C@@H]1CSSC[C@H](NC(=O)CNC(=O)CNC(=O)CN)C(=O)N[C@@H](CC2=CC=C(O)C=C2)C(=O)N[C@@H](CC2=CC=CC=C2)C(=O)N[C@@H](CCC(N)=O)C(=O)N[C@@H](CC(N)=O)C(=O)N1)C(=O)NCC(N)=O
p2418
atRp2419
sVDCC1393
p2420
g3
((lp2421
V[H][C@@]12C[C@@H](C)[C@](O)(C(=O)CCl)[C@@]1(C)C[C@H](O)[C@@]1(Cl)[C@@]2([H])CCC2=CC(=O)C=C[C@]12C
p2422
atRp2423
sVDCC1259
p2424
g3
((lp2425
VNC[C@H](O)C1=CC(O)=C(O)C=C1
p2426
atRp2427
sVDCC1258
p2428
g3
((lp2429
VCN(C)CCOC(C)(C1=CC=CC=C1)C1=CC=CC=N1
p2430
atRp2431
sVDCC1396
p2432
g3
((lp2433
VCCCCS(=O)(=O)N[C@@H](CC1=CC=C(OCCCCC2CCNCC2)C=C1)C(O)=O
p2434
atRp2435
sVDCC1395
p2436
g3
((lp2437
VCCCCC[C@H](O)C=C[C@H]1[C@H](O)CC(=O)[C@@H]1CCCCCCC(O)=O
p2438
atRp2439
sVDCC0328
p2440
g3
((lp2441
VCC1=CC(OCCCC(C)(C)C(O)=O)=C(C)C=C1
p2442
atRp2443
sVDCC0329
p2444
g3
((lp2445
V[H][C@@]12C[C@H](O)[C@@]3(C)C(=O)[C@H](O)C4=C(C)[C@H](C[C@@](O)([C@@H](OC(=O)C5=CC=CC=C5)[C@]3([H])[C@@]1(CO2)OC(C)=O)C4(C)C)OC(=O)[C@H](O)[C@@H](NC(=O)OC(C)(C)C)C1=CC=CC=C1
p2446
atRp2447
sVDCC0083
p2448
g3
((lp2449
V[H][C@]12SC(C)(C)[C@@H](N1C(=O)[C@H]2NC(=O)[C@H](N)C1=CC=CC=C1)C(O)=O
p2450
atRp2451
sVDCC0082
p2452
g3
((lp2453
VCN(CCOC1=CC=C(CC2SC(=O)NC2=O)C=C1)C1=CC=CC=N1
p2454
atRp2455
sVDCC0085
p2456
g3
((lp2457
V[H][C@@]12CC[C@@]3(CCC(=O)O3)[C@@]1(C)CC[C@@]1([H])[C@@]2([H])[C@@]([H])(CC2=CC(=O)CC[C@]12C)SC(C)=O
p2458
atRp2459
sVDCC0084
p2460
g3
((lp2461
V[H][C@]12SC(C)(C)[C@@H](N1C(=O)[C@H]2NC(=O)COC1=CC=CC=C1)C(O)=O
p2462
atRp2463
sVDCC0087
p2464
g3
((lp2465
VCC1=CC=C(C=C1)C(=C/CN1CCCC1)\u005cC1=CC=CC=N1
p2466
atRp2467
sVDCC0086
p2468
g3
((lp2469
VCOC1=CC=CC=C1OCC(O)COC(N)=O
p2470
atRp2471
sVDCC0320
p2472
g3
((lp2473
VCNC1(CCCCC1=O)C1=CC=CC=C1Cl
p2474
atRp2475
sVDCC0321
p2476
g3
((lp2477
V[H][C@@]12C[C@H]3OC(CCC)O[C@@]3(C(=O)CO)[C@@]1(C)C[C@H](O)[C@@]1([H])[C@@]2([H])CCC2=CC(=O)C=C[C@]12C
p2478
atRp2479
sVDCC0322
p2480
g3
((lp2481
VNCCN.CN1C2=C(NC=N2)C(=O)N(C)C1=O.CN1C2=C(NC=N2)C(=O)N(C)C1=O
p2482
atRp2483
sVDCC0323
p2484
g3
((lp2485
V[H][C@]12[C@H](OC(=O)C3=CC=CC=C3)[C@]3(O)C[C@H](OC(=O)[C@H](O)[C@@H](NC(=O)C4=CC=CC=C4)C4=CC=CC=C4)C(C)=C([C@@H](OC(C)=O)C(=O)[C@]1(C)[C@@H](O)C[C@H]1OC[C@@]21OC(C)=O)C3(C)C
p2486
atRp2487
sVDCC0324
p2488
g3
((lp2489
V[H][C@@](O)(CN1C[C@@]2([H])CCCC[C@@]2([H])C[C@@]1([H])C(O)=NC(C)(C)C)[C@]([H])(CC1=CC=CC=C1)N=C(O)[C@]([H])(CC(O)=N)NC(=O)C1=NC2=CC=CC=C2C=C1
p2490
atRp2491
sVDCC1498
p2492
g3
((lp2493
VCN[C@H]1CC[C@@H](C2=CC(Cl)=C(Cl)C=C2)C2=CC=CC=C12
p2494
aV[H][C@@]1(CC[C@@]([H])(C2=CC(Cl)=C(Cl)C=C2)C2=CC=CC=C12)NC
p2495
atRp2496
sVDCC0326
p2497
g3
((lp2498
VN[C@@H](CC1=CC(O)=C(O)C=C1)C(O)=O
p2499
atRp2500
sVDCC0327
p2501
g3
((lp2502
VFCOC(C(F)(F)F)C(F)(F)F
p2503
atRp2504
sVDCC0665
p2505
g3
((lp2506
VCC1=C(N(CC2=CC=C(OCCN3CCCCCC3)C=C2)C2=C1C=C(O)C=C2)C1=CC=C(O)C=C1
p2507
atRp2508
sVDCC1624
p2509
g3
((lp2510
VO=C1NC=CC(=O)N1
p2511
atRp2512
sVDCC1537
p2513
g3
((lp2514
VClCCN(N=O)C(=O)NC1CCCCC1
p2515
atRp2516
sVDCC1615
p2517
g3
((lp2518
VNC(=O)C1=CC=CN=C1
p2519
atRp2520
sVDCC0378
p2521
g3
((lp2522
VCCCCCCCCC1=CC=C(CCC(N)(CO)CO)C=C1
p2523
atRp2524
sVDCC0138
p2525
g3
((lp2526
VOC(=O)CC1=CC=CC=C1NC1=C(Cl)C=CC=C1Cl
p2527
atRp2528
sVDCC0639
p2529
g3
((lp2530
S'C1=CC=C2C(=C1)NC3=NC(=NC(N23)C4=CC=C(C=C4)SC(F)(F)F)N'
p2531
atRp2532
sVDCC1534
p2533
g3
((lp2534
VCO[C@H]1\u005cC=C\u005cO[C@@]2(C)OC3=C(C2=O)C2=C(C(O)=C3C)C(O)=C(NC(=O)\u005cC(C)=C/C=C/[C@H](C)[C@H](O)[C@@H](C)[C@@H](O)[C@@H](C)[C@H](OC(C)=O)[C@@H]1C)C(\u005cC=N\u005cN1CCN(CC1)C1CCCC1)=C2O
p2535
atRp2536
sVDCC0254
p2537
g3
((lp2538
VCN(C)CCOC(=O)C(C1=CC=CC=C1)C1(O)CCCC1
p2539
atRp2540
sVDCC0255
p2541
g3
((lp2542
VCOC1=CC=C(CC(C)NCC(O)C2=CC(NC=O)=C(O)C=C2)C=C1
p2543
atRp2544
sVDCC0256
p2545
g3
((lp2546
VNC1=NC(=O)N(C=C1)[C@@H]1O[C@H](CO)[C@@H](O)[C@@H]1O
p2547
atRp2548
sVDCC0257
p2549
g3
((lp2550
VNC[C@@H]1O[C@H](O[C@@H]2[C@@H](CO)O[C@@H](O[C@@H]3[C@@H](O)[C@H](N)C[C@H](N)[C@H]3O[C@H]3O[C@H](CN)[C@@H](O)[C@H](O)[C@H]3N)[C@@H]2O)[C@H](N)[C@@H](O)[C@@H]1O
p2551
atRp2552
sVDCC0250
p2553
g3
((lp2554
VO[C@@H](CC[C@@H]1[C@H](N(C1=O)C1=CC=C(F)C=C1)C1=CC=C(O)C=C1)C1=CC=C(F)C=C1
p2555
atRp2556
sVDCC0251
p2557
g3
((lp2558
VOCCN(CCO)C1=NC2=C(N=C(N=C2N2CCCCC2)N(CCO)CCO)C(=N1)N1CCCCC1
p2559
atRp2560
sVDCC0252
p2561
g3
((lp2562
V[H][C@@]12CC[C@@](O)(C#C)[C@@]1(C)CC[C@]1([H])C3=C(CC[C@@]21[H])C=C(O)C=C3
p2563
atRp2564
sVDCC0253
p2565
g3
((lp2566
VCCN1C=C(C(O)=O)C(=O)C2=CC(F)=C(N3CCNC(C)C3)C(F)=C12
p2567
atRp2568
sVDCC0881
p2569
g3
((lp2570
V[H][C@@]12CC[C@@](O)(CC#N)[C@@]1(C)CCC1=C3CCC(=O)C=C3CC[C@@]21[H]
p2571
atRp2572
sVDCC0552
p2573
g3
((lp2574
V[Na+].[H][C@@]12CCC(=O)[C@@]1(C)CC[C@]1([H])C3=CC=C(OS([O-])(=O)=O)C=C3CC[C@@]21[H]
p2575
atRp2576
sVDCC0551
p2577
g3
((lp2578
S'CCC(C)C1C(=O)NC(C(=O)NCC(=O)NC(C(=O)NC(C(=O)NCC(=O)NC(C(=O)NC(C(=O)NC(C(=O)NC(C(=O)NC(CSSCC2C(=O)NCC(=O)NC(C(=O)NCC(=O)NC(C(=O)NC(C(=O)NC(CSSCC(C(=O)NC(C(=O)NCC(=O)NC(C(=O)NC(C(=O)NC(C(=O)N2)C(C)C)CC(=O)N)CO)CCC(=O)O)NC(=O)C(CC(C)C)NC(=O)C3CSSCC(C(=O)NC(C(=O)NC(C(=O)NC(C(=O)NCC(=O)NC(C(=O)NC(C(=O)NC(C(=O)N3)CC(C)C)CC(=O)N)CCC(=O)N)CO)CCC(=O)O)C(C)O)NC(=O)C(CC(=O)O)NC(=O)C(C(C)O)NC(=O)C(CC4=CC=C(C=C4)O)NC(=O)C(C(C)C)NC(=O)C(C(C)C)N)C(=O)N1)CCCCN)CC(=O)N)CCC(=O)N)C(=O)NC(C(C)C)C(=O)NC(C(C)O)C(=O)NCC(=O)NC(CCC(=O)O)C(=O)NCC(=O)NC(C(C)O)C(=O)N5CCCC5C(=O)NC(CCCCN)C(=O)N6CCCC6C(=O)NC(CCC(=O)N)C(=O)NC(CO)C(=O)NC(CC7=CN=CN7)C(=O)NC(CC(=O)N)C(=O)NC(CC(=O)O)C(=O)NCC(=O)NC(CC(=O)O)C(=O)NC(CC8=CC=CC=C8)C(=O)NC(CCC(=O)O)C(=O)NC(CCC(=O)O)C(=O)NC(C(C)CC)C(=O)N9CCCC9C(=O)NC(CCC(=O)O)C(=O)NC(CCC(=O)O)C(=O)NC(CC1=CC=C(C=C1)O)C(=O)NC(CC(C)C)C(=O)NC(CCC(=O)N)C(=O)O)CCC(=O)N)CC(=O)N)CCCCN)CCC(=O)O)CC(=O)O)CO)CC(C)C'
p2579
atRp2580
sVDCC0258
p2581
g3
((lp2582
VNCC1(CC(O)=O)CCCCC1
p2583
atRp2584
sVDCC0259
p2585
g3
((lp2586
VCOC1=CC=CC2=C1C(=O)C1=C(O)C3=C(C[C@](O)(C[C@@H]3O[C@H]3C[C@H](N)[C@H](O)[C@H](C)O3)C(=O)CO)C(O)=C1C2=O
p2587
atRp2588
sVDCC0887
p2589
g3
((lp2590
VCC(C)CCC[C@@H](C)[C@@]1([H])CC[C@@]2([H])\u005cC(CCC[C@]12C)=C\u005cC=C1\u005cC[C@@H](O)CCC1=C
p2591
atRp2592
sVDCC0886
p2593
g3
((lp2594
VCC(C)O
p2595
atRp2596
sVDCC1238
p2597
g3
((lp2598
VCCCN1CCCC[C@H]1C(=O)NC1=C(C)C=CC=C1C
p2599
atRp2600
sVDCC0520
p2601
g3
((lp2602
VC[N+](C)(C)CC([O-])=O
p2603
aVOC(O)C(Cl)(Cl)Cl.C[N+](C)(C)CC([O-])=O
p2604
atRp2605
sVDCC0411
p2606
g3
((lp2607
S'C1=C(SC=C1Br)COC2=NC(=NC3=C2NC=N3)N'
p2608
atRp2609
sVDCC0371
p2610
g3
((lp2611
VCN1C(=O)C=C(N2CCC[C@@H](N)C2)N(CC2=C(C=CC=C2)C#N)C1=O
p2612
atRp2613
sVDCC1241
p2614
g3
((lp2615
V[H][C@@]12CC[C@@](O)(C#C)[C@@]1(CC)CC(=C)[C@]1([H])[C@@]3([H])CCCC=C3CC[C@@]21[H]
p2616
atRp2617
sVDCC0349
p2618
g3
((lp2619
VN[C@@H](CSCCCC\u005cC=C(/NC(=O)[C@H]1CC1(C)C)C(=O)O)C(=O)O
p2620
atRp2621
sVDCC1242
p2622
g3
((lp2623
VCC1=CC2=C(C=C1C(=C)C1=CC=C(C=C1)C(O)=O)C(C)(C)CCC2(C)C
p2624
atRp2625
sVDCC1172
p2626
g3
((lp2627
VN[C@@H](CCCNC(N)=N)C(O)=O
p2628
atRp2629
sVDCC1231
p2630
g3
((lp2631
VCOC1=CC=C(C=C1)C(CN(C)C)C1(O)CCCCC1
p2632
atRp2633
sVDCC0640
p2634
g3
((lp2635
S'CCN(CC)C(=O)C(C)NS(=O)(=O)C1=CN(N=C1)C'
p2636
atRp2637
sVDCC1244
p2638
g3
((lp2639
VCCCC(C)C1(CC)C(=O)NC(=O)NC1=O
p2640
atRp2641
sVDCC1245
p2642
g3
((lp2643
VOC[C@H]1O[C@H](C[C@@H]1O)N1C=C(F)C(=O)NC1=O
p2644
atRp2645
sVDCC1374
p2646
g3
((lp2647
VCC(C)C1CC[C@@H](CC1)C(=O)N[C@H](CC1=CC=CC=C1)C(O)=O
p2648
atRp2649
sVDCC1376
p2650
g3
((lp2651
VCC1=C(CCN2CCC(CC2)C2=NOC3=C2C=CC(F)=C3)C(=O)N2CCCCC2=N1
p2652
atRp2653
sVDCC1377
p2654
g3
((lp2655
VCOC1=CC2=C(NC(=N2)[S@@](=O)CC2=NC=C(C)C(OC)=C2C)C=C1
p2656
atRp2657
sVDCC1370
p2658
g3
((lp2659
VCCN(CC)CCOC(=O)C1=CC=C(N)C=C1
p2660
atRp2661
sVDCC1246
p2662
g3
((lp2663
V[H][C@@]12CC[C@](O)(C(C)=O)[C@@]1(C)C[C@H](O)[C@@]1(F)[C@@]2([H])C[C@H](C)C2=CC(=O)C=C[C@]12C
p2664
atRp2665
sVDCC0818
p2666
g3
((lp2667
V[Li+]
p2668
atRp2669
sVDCC1235
p2670
g3
((lp2671
VOC(=O)CCCC1=CC=C(C=C1)N(CCCl)CCCl
p2672
atRp2673
sVDCC1247
p2674
g3
((lp2675
V[H][C@@]12OC3=C(O)C=CC4=C3[C@@]11CCN(C)[C@]([H])(C4)[C@]1([H])CCC2=O
p2676
atRp2677
sVDCC1234
p2678
g3
((lp2679
VC[C@@H](O)[C@H](NC(=O)[C@@H](C)[C@H](O)[C@@H](C)NC(=O)[C@@H](NC(=O)C1=C(C)C(N)=NC(=N1)[C@H](CC(N)=O)NC[C@H](N)C(N)=O)[C@@H](OC1OC(CO)C(O)C(O)C1OC1OC(CO)C(O)C(OC(N)=O)C1O)C1=CN=CN1)C(=O)NCCC1=NC(=CS1)C1=NC(=CS1)C(=O)NCCC[S+](C)C
p2680
atRp2681
sVDCC1249
p2682
g3
((lp2683
V[H][C@]1(CC[C@H](Cl)[C@@H](C1)OC)\u005cC=C(/C)[C@@]1([H])OC(=O)[C@]2([H])CCCCN2C(=O)C(=O)[C@]2(O)O[C@@]([H])([C@H](C[C@H]2C)OC)[C@H](C[C@@H](C)C\u005cC(C)=C\u005c[C@@H](CC)C(=O)C[C@H](O)[C@H]1C)OC
p2684
atRp2685
sVDCC0613
p2686
g3
((lp2687
V[H][C@@]12CC=C(C3=CC=CN=C3)[C@@]1(C)CC[C@@]1([H])[C@@]2([H])CC=C2C[C@@H](O)CC[C@]12C
p2688
atRp2689
sVDCC0179
p2690
g3
((lp2691
VNC1=NC(=O)N(C=C1)[C@@H]1CS[C@H](CO)O1
p2692
atRp2693
sVDCC0178
p2694
g3
((lp2695
VCC(C)NC1=C(N=CC=C1)N1CCN(CC1)C(=O)C1=CC2=C(N1)C=CC(NS(C)(=O)=O)=C2
p2696
atRp2697
sVDCC1552
p2698
g3
((lp2699
V[H][C@@]12CCO[C@]1([H])OC[C@@H]2OC(=O)N[C@@H](CC1=CC=CC=C1)[C@H](O)CN(CC(C)C)S(=O)(=O)C1=CC=C(N)C=C1
p2700
atRp2701
sVDCC0171
p2702
g3
((lp2703
VCC(=O)CC(C1=CC=CC=C1)C1=C(O)C2=C(OC1=O)C=CC=C2
p2704
atRp2705
sVDCC0173
p2706
g3
((lp2707
VCOC1=C(C\u005cC=C(/C)CCC(=O)OCCN2CCOCC2)C(O)=C2C(=O)OCC2=C1C
p2708
atRp2709
sVDCC0172
p2710
g3
((lp2711
VNC[C@H]1O[C@H](O[C@@H]2[C@@H](N)C[C@@H](N)[C@H](O[C@H]3O[C@H](CO)[C@@H](O)[C@H](N)[C@H]3O)[C@H]2O)[C@H](N)C[C@@H]1O
p2712
atRp2713
sVDCC0175
p2714
g3
((lp2715
V[H][C@@]12CCCN1C(=O)[C@H](CC1=CC=CC=C1)N1C(=O)[C@](C)(NC(=O)[C@H]3CN(C)[C@]4([H])CC5=CNC6=CC=CC(=C56)C4=C3)O[C@@]21O
p2716
atRp2717
sVDCC0174
p2718
g3
((lp2719
VNS(=O)(=O)C1=C(Cl)C=C(NCC2=CC=CO2)C(=C1)C(O)=O
p2720
atRp2721
sVDCC0177
p2722
g3
((lp2723
V[H][C@@]12OC3=C(O)C=CC4=C3[C@@]11CCN(CC3CC3)[C@]([H])(C4)[C@]1(O)CCC2=O
p2724
atRp2725
sVDCC0176
p2726
g3
((lp2727
V[O-][N+](=O)C1=CC=C(O1)\u005cC=N\u005cN1CC(=O)NC1=O
p2728
atRp2729
sVDCC1105
p2730
g3
((lp2731
S'CC(C)C1C(=O)NC(CSSCC(C(=O)NC(C(=O)NC(C(=O)NC(C(=O)N1)CCCCN)CC2=CNC3=CC=CC=C32)CC4=CC=C(C=C4)O)NC(=O)C(CC5=CC6=CC=CC=C6C=C5)N)C(=O)NC(C(C)O)C(=O)N.CC(=O)O'
p2732
atRp2733
sVDCC1205
p2734
g3
((lp2735
VCOC1=CC(C(O)CNC(=O)CN)=C(OC)C=C1
p2736
atRp2737
sVDCC1240
p2738
g3
((lp2739
V[H][C@]12[C@@H](C)C(S[C@]3([H])CN[C@@]([H])(C3)C(=O)NC3=CC=CC(=C3)C(O)=O)=C(N1C(=O)[C@]2([H])[C@@H](C)O)C(O)=O
p2740
atRp2741
s.