(dp1
S'2e5033ad0e6e'
p2
VDB06843
p3
sS'c178fcbd9cea'
p4
VDB00387
p5
sS'c4c6f3fdeb2d'
p6
VDB01737
p7
sS'4d223ca68e4e'
p8
VDB05494
p9
sS'b54bf0f643c9'
p10
VDB05676
p11
sS'7b055528d9e6'
p12
VDB00177
p13
sS'052b68d60cae'
p14
VDB02648
p15
sS'bd954e9ce400'
p16
VDB08124
p17
sS'8050c9dd9151'
p18
VDB08302
p19
sS'48a5adfb3fc3'
p20
VDB07973
p21
sS'd21ca10dd737'
p22
VDB07642
p23
sS'a64a6186ceca'
p24
VDB11121
p25
sS'8cd7c1b7bb47'
p26
VDB07393
p27
sS'2ad817e22829'
p28
VDB05855
p29
sS'ef6bb4fda4c9'
p30
VDB02587
p31
sS'3360a5746c19'
p32
VDB05424
p33
sS'c25e30231a73'
p34
VDB03509
p35
sS'1fe1bbbcbf60'
p36
VDB01631
p37
sS'9a402a874c0d'
p38
VDB08271
p39
sS'86ddbe4c6eef'
p40
VDB03988
p41
sS'1ea1fb3dafa1'
p42
VDB07618
p43
sS'b10c26006633'
p44
VDB00452
p45
sS'cac092276c5d'
p46
VDB07604
p47
sS'544b7b92b584'
p48
VDB08221
p49
sS'335f6a53c23d'
p50
VDB08254
p51
sS'fa9452081d7d'
p52
VDB07179
p53
sS'93f738a6ca7e'
p54
VDB08537
p55
sS'ec7b6d0becb2'
p56
VDB07108
p57
sS'e5aab804c825'
p58
VDB12831
p59
sS'8802c8a0523e'
p60
VDB01164
p61
sS'4412954a3307'
p62
VDB04366
p63
sS'cd7f2727daa6'
p64
VDB03864
p65
sS'ae89a91ab104'
p66
VDB08042
p67
sS'0c01a1358402'
p68
VDB01235
p69
sS'02d1028765df'
p70
VDB01102
p71
sS'98b7b463dbd6'
p72
VDB00379
p73
sS'1cf6dfdaf958'
p74
VDB02840
p75
sS'6baca0e87904'
p76
VDB03881
p77
sS'45f68dfb3d6f'
p78
VDB07033
p79
sS'20c28f30c417'
p80
VDB03541
p81
sS'f6e726cfd061'
p82
VDB07270
p83
sS'7cc73c053daf'
p84
VDB05939
p85
sS'd1e2fd967a11'
p86
VDB06841
p87
sS'c8ede569513a'
p88
VDB06710
p89
sS'986c2a563c21'
p90
VDB07443
p91
sS'2ec95b7f930f'
p92
VDB06623
p93
sS'ea45d0fb1c85'
p94
VDB00371
p95
sS'7bf4f477a2f7'
p96
VDB04733
p97
sS'12ecc755ed7a'
p98
VDB04741
p99
sS'c740a5ff3798'
p100
VDB08083
p101
sS'909ee8fed6e3'
p102
VDB00393
p103
sS'63363e5360e3'
p104
VDB02679
p105
sS'01f278b84925'
p106
VDB00444
p107
sS'407ae9a4a06f'
p108
VDB09257
p109
sS'8da3fa57f709'
p110
VDB02375
p111
sS'90b0f05425dc'
p112
VDB00862
p113
sS'069f1f38659f'
p114
VDB04591
p115
sS'6e9e71865be6'
p116
VDB03709
p117
sS'53b082c563f6'
p118
VDB00204
p119
sS'810e613b8f82'
p120
VDB09462
p121
sS'e56564e285d5'
p122
VDB09070
p123
sS'be4b40307c7b'
p124
VDB08891
p125
sS'b7ddce1a9991'
p126
VDB08752
p127
sS'019cee721208'
p128
VDB00679
p129
sS'6c44884a78e9'
p130
VDB07325
p131
sS'2764827328c4'
p132
VDB03747
p133
sS'c7c9c59011c7'
p134
VDB07140
p135
sS'811095727be3'
p136
VDB00190
p137
sS'2cdbf7fc50c9'
p138
VDB03903
p139
sS'7293b99df468'
p140
VDB08786
p141
sS'd6bf77299cf5'
p142
VDB00338
p143
sS'b2b03d688e9b'
p144
VDB07530
p145
sS'cdbb334c2532'
p146
VDB00284
p147
sS'2816010f4413'
p148
VDB06971
p149
sS'84831c99fa05'
p150
VDB04683
p151
sS'a9695214126f'
p152
VDB00725
p153
sS'06ef885955f1'
p154
VDB03294
p155
sS'3ef37fd23e11'
p156
VDB02966
p157
sS'613828919554'
p158
VDB00852
p159
sS'3556cfd68237'
p160
VDB00796
p161
sS'885c24aee8aa'
p162
VDB06947
p163
sS'80bd21775693'
p164
VDB08312
p165
sS'f3b45af416f5'
p166
VDB03247
p167
sS'2f4144a563a0'
p168
VDB04166
p169
sS'b4369d17fc0c'
p170
VDB07976
p171
sS'b8a4e5e65545'
p172
VDB07785
p173
sS'188c9733efc3'
p174
VDB00910
p175
sS'5e731b3eef9f'
p176
VDB00735
p177
sS'0181a4e5ffed'
p178
VDB04772
p179
sS'49599868cd21'
p180
VDB03310
p181
sS'0c0a4e44403d'
p182
VDB00700
p183
sS'ab21dedbba8a'
p184
VDB02112
p185
sS'8da5f454eca0'
p186
VDB06888
p187
sS'cb8645dc0d5c'
p188
VDB02733
p189
sS'd469431310ee'
p190
VDB12555
p191
sS'ce2d105afa7f'
p192
VDB00575
p193
sS'6798375c4593'
p194
VDB07730
p195
sS'c83a159745b2'
p196
VDB08345
p197
sS'9e34c623add8'
p198
VDB06287
p199
sS'bac52c18876f'
p200
VDB03940
p201
sS'bf5b62e990d1'
p202
VDB08558
p203
sS'10883725a84c'
p204
VDB03595
p205
sS'bff8ec8bb384'
p206
VDB04877
p207
sS'ba38204be650'
p208
VDB00417
p209
sS'058f8db813a8'
p210
VDB00541
p211
sS'b0eb0b774636'
p212
VDB01349
p213
sS'b4efa0d5fbf3'
p214
VDB06155
p215
sS'59255eb967e2'
p216
VDB08182
p217
sS'605e2476e1e1'
p218
VDB04576
p219
sS'd23374ec5a84'
p220
VDB02048
p221
sS'c23ee93104a0'
p222
VDB06263
p223
sS'578d2e4178e2'
p224
VDB03483
p225
sS'fb74e47e99be'
p226
VDB07796
p227
sS'1b4185352321'
p228
VDB02660
p229
sS'5f57fd721519'
p230
VDB02597
p231
sS'77e331b597f8'
p232
VDB01576
p233
sS'6fb06e4eaca0'
p234
VDB04883
p235
sS'a97a0dcdd3ff'
p236
VDB07348
p237
sS'4fa86fa01f12'
p238
VDB07556
p239
sS'090f64d4aaf6'
p240
VDB02603
p241
sS'48e2e8790cf2'
p242
VDB06144
p243
sS'ab5ac4c60f34'
p244
VDB09472
p245
sS'740e157ab41a'
p246
VDB08053
p247
sS'48edb3415339'
p248
VDB04845
p249
sS'fc2799a48522'
p250
VDB07281
p251
sS'2a4c17c40400'
p252
VDB00970
p253
sS'5f352da3e046'
p254
VDB00472
p255
sS'3c3b365ae37e'
p256
VDB07261
p257
sS'13b995289f1c'
p258
VDB06856
p259
sS'c38b3c62e2a1'
p260
VDB04832
p261
sS'6df5f877a303'
p262
VDB01941
p263
sS'dfa79daa2b87'
p264
VDB02322
p265
sS'3902358d55be'
p266
VDB04537
p267
sS'd22eab8d679c'
p268
VDB04867
p269
sS'003faf67be5e'
p270
VDB00302
p271
sS'142d4ae05495'
p272
VDB01884
p273
sS'adb26a7d13e1'
p274
VDB04560
p275
sS'26a9aa32feec'
p276
VDB07577
p277
sS'a16e67065d84'
p278
VDB01057
p279
sS'3e1750de5b90'
p280
VDB12093
p281
sS'7994c3e74755'
p282
VDB02917
p283
sS'056fba69b566'
p284
VDB00835
p285
sS'ea1de259e770'
p286
VDB04066
p287
sS'e022e6e95fc2'
p288
VDB09146
p289
sS'2a2e984cb673'
p290
VDB05790
p291
sS'2a1d39888b65'
p292
VDB08152
p293
sS'4adb751a027b'
p294
VDB00783
p295
sS'60e6afe79cba'
p296
VDB05446
p297
sS'fb96b72fb63f'
p298
VDB05501
p299
sS'495c357325bf'
p300
VDB00334
p301
sS'ebf42fd3c475'
p302
VDB00487
p303
sS'80288e573676'
p304
VDB06702
p305
sS'bccf62da8098'
p306
VDB00574
p307
sS'18f46f156a2c'
p308
VDB06825
p309
sS'ef3c6f39f489'
p310
VDB02039
p311
sS'5e3099a159b8'
p312
VDB07652
p313
sS'8b747fc2e9e6'
p314
VDB00415
p315
sS'f9f468812ca6'
p316
VDB01210
p317
sS'4c5a12eae4a0'
p318
VDB02142
p319
sS'6937a71b7a6a'
p320
VDB03336
p321
sS'12d94b7a46c4'
p322
VDB00357
p323
sS'9cf48d916ca4'
p324
VDB03065
p325
sS'71c81acb559f'
p326
VDB03879
p327
sS'dc10b06badd5'
p328
VDB08770
p329
sS'03ef11c25a44'
p330
VDB01863
p331
sS'61ea5d769f1d'
p332
VDB06919
p333
sS'2614f4bf7322'
p334
VDB00115
p335
sS'88034617f763'
p336
VDB07728
p337
sS'2998dac6b410'
p338
VDB08238
p339
sS'2f8ff6ddad9d'
p340
VDB05255
p341
sS'30fd1a5f321f'
p342
VDB01830
p343
sS'ae19834af0ac'
p344
VDB03024
p345
sS'dcf83560468d'
p346
VDB02555
p347
sS'2ed3252e863a'
p348
VDB06016
p349
sS'597d94addada'
p350
VDB03796
p351
sS'2f8199f0271c'
p352
VDB08755
p353
sS'80dd08237805'
p354
VDB00136
p355
sS'5e53fa693075'
p356
VDB06943
p357
sS'40dd07e9e6d4'
p358
VDB02510
p359
sS'd6d41c81c93d'
p360
VDB07101
p361
sS'e11d3b06ad3f'
p362
VDB01723
p363
sS'5f966c8f2c54'
p364
VDB08121
p365
sS'9c60016a15f0'
p366
VDB04258
p367
sS'a07334b328ce'
p368
VDB00395
p369
sS'a8642b1665a4'
p370
VDB03333
p371
sS'184e1001c4e4'
p372
VDB07174
p373
sS'fcc37a8a170b'
p374
VDB01250
p375
sS'2160302e167e'
p376
VDB08038
p377
sS'43d9a35ee9f7'
p378
VDB08349
p379
sS'343de59ed38c'
p380
VDB06471
p381
sS'0f100437a70b'
p382
VDB03306
p383
sS'c0ae0a41704d'
p384
VDB07969
p385
sS'2776f979dbe3'
p386
VDB01045
p387
sS'ca392d2a3516'
p388
VDB00537
p389
sS'666df5186dc4'
p390
VDB11386
p391
sS'45213bd7b869'
p392
VDB02678
p393
sS'848685598c80'
p394
VDB01041
p395
sS'257bd7c0e597'
p396
VDB02950
p397
sS'9c967c32c04a'
p398
VDB06990
p399
sS'71f5bdf134fd'
p400
VDB07479
p401
sS'419e9c32904b'
p402
VDB00480
p403
sS'a9ca03631db0'
p404
VDB04055
p405
sS'4b554f3612f8'
p406
VDB00811
p407
sS'efd44c6e7d7e'
p408
VDB04738
p409
sS'fc608ad86be3'
p410
VDB07683
p411
sS'bcf008711d29'
p412
VDB00780
p413
sS'8971190cae06'
p414
VDB09049
p415
sS'0409f638c0a7'
p416
VDB01234
p417
sS'cebb734352a0'
p418
VDB08620
p419
sS'92d3d060fda8'
p420
VDB08549
p421
sS'36dd9bed6cb2'
p422
VDB00711
p423
sS'b32046b4eaac'
p424
VDB01756
p425
sS'fdfd5d36868e'
p426
VDB05075
p427
sS'6ac75cce5f48'
p428
VDB06840
p429
sS'582976fa9974'
p430
VDB07522
p431
sS'125ea7cdef0e'
p432
VDB07144
p433
sS'0e98670a6cfb'
p434
VDB05053
p435
sS'a7155e6e8074'
p436
VDB01694
p437
sS'9a69baaaf190'
p438
VDB00784
p439
sS'3d57b665657e'
p440
VDB03283
p441
sS'57ac8ef2b618'
p442
VDB02076
p443
sS'08cee3839f67'
p444
VDB07319
p445
sS'2b9b82b4e2ce'
p446
VDB01364
p447
sS'5ffc5d3129f7'
p448
VDB06984
p449
sS'bd844e84099c'
p450
VDB07559
p451
sS'fd23404ae88a'
p452
VDB00467
p453
sS'f3443ea3effc'
p454
VDB00747
p455
sS'70044198daa4'
p456
VDB08176
p457
sS'e11ae6b719d9'
p458
VDB03856
p459
sS'4646d77623e7'
p460
VDB07531
p461
sS'a46e20dd9d19'
p462
VDB01173
p463
sS'2b56b630b0b5'
p464
VDB08276
p465
sS'55b08c9feac1'
p466
VDB05448
p467
sS'dee87041e310'
p468
VDB03991
p469
sS'fdb7f6820009'
p470
VDB04633
p471
sS'21a743fbaf81'
p472
VDB08143
p473
sS'5832186db275'
p474
VDB07594
p475
sS'089656eeddc8'
p476
VDB02727
p477
sS'3084756aeb91'
p478
VDB00944
p479
sS'1dba05ef81d7'
p480
VDB03876
p481
sS'9c8485bbb6c3'
p482
VDB08590
p483
sS'6f76375db949'
p484
VDB00765
p485
sS'd07939588c66'
p486
VDB01353
p487
sS'599f5b63f13c'
p488
VDB05708
p489
sS'f72ba83b88b4'
p490
VDB04387
p491
sS'7044f6e31f3e'
p492
VDB06997
p493
sS'0a7a492163c6'
p494
VDB02530
p495
sS'a8e8071954e6'
p496
VDB08737
p497
sS'f1c76c9ca313'
p498
VDB00886
p499
sS'6c0eeb53a4c0'
p500
VDB07207
p501
sS'a5fa58dc8f7d'
p502
VDB02482
p503
sS'46b2c19cdbce'
p504
VDB02464
p505
sS'1bd8f0094613'
p506
VDB06693
p507
sS'775540dfe309'
p508
VDB03759
p509
sS'831840fcefc9'
p510
VDB03909
p511
sS'942092d49d92'
p512
VDB02198
p513
sS'19dc951df370'
p514
VDB01009
p515
sS'bf0d66fc5ee7'
p516
VDB03542
p517
sS'7125ae7e96dd'
p518
VDB00921
p519
sS'fcdf361bda70'
p520
VDB00295
p521
sS'65dddddac711'
p522
VDB03685
p523
sS'e7c2e8cc43c5'
p524
VDB02866
p525
sS'9d38ec5934b3'
p526
VDB08783
p527
sS'b77319c89bff'
p528
VDB01149
p529
sS'fda5fd1e94f2'
p530
VDB08125
p531
sS'10b8aa8e37ac'
p532
VDB09272
p533
sS'31663fa0e81b'
p534
VDB02239
p535
sS'4d3abdd6fc6c'
p536
VDB07253
p537
sS'ccb5f2c3b08c'
p538
VDB00881
p539
sS'39a725c7ec6d'
p540
VDB05246
p541
sS'250e24a74a04'
p542
VDB00397
p543
sS'8e3aac88d606'
p544
VDB07456
p545
sS'37690c2d0d75'
p546
VDB03661
p547
sS'c215f8c8c864'
p548
VDB00216
p549
sS'75b76b5d65f9'
p550
VDB11858
p551
sS'7ce58ad273d9'
p552
VDB05420
p553
sS'c62df6f5ca08'
p554
VDB03376
p555
sS'981fb440712e'
p556
VDB02538
p557
sS'46dfc869ddb0'
p558
VDB07000
p559
sS'9777d989584d'
p560
VDB03169
p561
sS'227ed25f1a90'
p562
VDB07597
p563
sS'2f6a515c00c1'
p564
VDB01979
p565
sS'f8f653f7ee09'
p566
VDB06243
p567
sS'27b92b486a00'
p568
VDB01148
p569
sS'd2a9852d0ea3'
p570
VDB00774
p571
sS'2209c0adb31a'
p572
VDB03155
p573
sS'274bdea20e78'
p574
VDB04924
p575
sS'25712816896f'
p576
VDB01396
p577
sS'1bc4a355285d'
p578
VDB07809
p579
sS'70650600a514'
p580
VDB01677
p581
sS'676dacf5954e'
p582
VDB03619
p583
sS'9e1f5633812f'
p584
VDB00706
p585
sS'3ea32cf3c5cf'
p586
VDB02553
p587
sS'f385f6a24a5f'
p588
VDB00390
p589
sS'b112318f3b65'
p590
VDB01733
p591
sS'67d50f87eeea'
p592
VDB01104
p593
sS'b825cd8146d0'
p594
VDB02143
p595
sS'7f2eca00c9b3'
p596
VDB04743
p597
sS'2a225cbb4b86'
p598
VDB08186
p599
sS'4162dee7378b'
p600
VDB07719
p601
sS'665544d78fba'
p602
VDB02834
p603
sS'1fe02483c24f'
p604
VDB04761
p605
sS'43cdd1cb267b'
p606
VDB01367
p607
sS'59952ef2d865'
p608
VDB01710
p609
sS'5c19cf5cf2c0'
p610
VDB02315
p611
sS'9e39791b3fcc'
p612
VDB06070
p613
sS'e42f2f7c2862'
p614
VDB01120
p615
sS'8bee4e6c5352'
p616
VDB00736
p617
sS'375e7a0e46db'
p618
VDB09148
p619
sS'4574146eeff5'
p620
VDB01202
p621
sS'96addfdb7e0a'
p622
VDB03373
p623
sS'1dfe2fc902e9'
p624
VDB05913
p625
sS'766c49170d00'
p626
VDB07326
p627
sS'78e308366e23'
p628
VDB01016
p629
sS'2da5dcee9fef'
p630
VDB00848
p631
sS'ed867f8a3ea3'
p632
VDB12163
p633
sS'5425282f403c'
p634
VDB01182
p635
sS'dfd1594d6e48'
p636
VDB07444
p637
sS'7669117cf1b7'
p638
VDB07339
p639
sS'f99a919ae183'
p640
VDB06728
p641
sS'f560268fa49a'
p642
VDB04795
p643
sS'5046cffe55b5'
p644
VDB03892
p645
sS'd1e6049f3bdd'
p646
VDB04173
p647
sS'cb8b4c40c468'
p648
VDB08262
p649
sS'7340e074e286'
p650
VDB01876
p651
sS'7af7cb104b48'
p652
VDB00180
p653
sS'1f3fd13e36d9'
p654
VDB00432
p655
sS'9e4c22cde9cf'
p656
VDB03994
p657
sS'95c2d2201aef'
p658
VDB03593
p659
sS'7856d1aeb38d'
p660
VDB02087
p661
sS'293bb0dac29d'
p662
VDB00770
p663
sS'b734fcce042c'
p664
VDB08490
p665
sS'34f13d1f061b'
p666
VDB07502
p667
sS'22866a1caae8'
p668
VDB04896
p669
sS'80acd9666021'
p670
VDB01351
p671
sS'd445e3e5a7de'
p672
VDB07268
p673
sS'132dcb29ebfd'
p674
VDB01375
p675
sS'603cd62d3e4b'
p676
VDB02910
p677
sS'aa1561de6bab'
p678
VDB04771
p679
sS'45a4f7fb4700'
p680
VDB02468
p681
sS'686d0bac2aee'
p682
VDB06678
p683
sS'218350bb5965'
p684
VDB07132
p685
sS'4b1a08560752'
p686
VDB04324
p687
sS'9af51e6829f0'
p688
VDB04444
p689
sS'2ef17c7489a3'
p690
VDB06905
p691
sS'c2b2e49edcd1'
p692
VDB03370
p693
sS'06ebfda2ce63'
p694
VDB03471
p695
sS'57c9ef39ad49'
p696
VDB00215
p697
sS'b7d9c8339211'
p698
VDB00573
p699
sS'0c9c02150d3c'
p700
VDB06957
p701
sS'2adaeec3964a'
p702
VDB04153
p703
sS'7f49b99b0b70'
p704
VDB12191
p705
sS'c080c0a56a71'
p706
VDB01346
p707
sS'a16695076115'
p708
VDB00819
p709
sS'd82b31a866f6'
p710
VDB13925
p711
sS'cda02cc24ecf'
p712
VDB07289
p713
sS'acb0ec356630'
p714
VDB07394
p715
sS'56f389dfb4c1'
p716
VDB01244
p717
sS'07198a9f767a'
p718
VDB08051
p719
sS'019257bf323c'
p720
VDB05398
p721
sS'ef9cd9991642'
p722
VDB04074
p723
sS'64fcf7c78a3b'
p724
VDB02623
p725
sS'9cd148346ce1'
p726
VDB04299
p727
sS'dc36766b4c84'
p728
VDB00734
p729
sS'f9c67d068f97'
p730
VDB08520
p731
sS'0b92b98fb4be'
p732
VDB02485
p733
sS'411d943a88c1'
p734
VDB06896
p735
sS'0864f93e7069'
p736
VDB02164
p737
sS'926113e805ba'
p738
VDB02044
p739
sS'1d3a734eb84f'
p740
VDB12637
p741
sS'bd5541d91381'
p742
VDB04010
p743
sS'b5f9ea998a47'
p744
VDB07897
p745
sS'e461ab9731b0'
p746
VDB01954
p747
sS'c85ec5ba7c6b'
p748
VDB06543
p749
sS'245ef097e09a'
p750
VDB13191
p751
sS'728a7b866261'
p752
VDB00490
p753
sS'f415b5e924ca'
p754
VDB00808
p755
sS'214173309056'
p756
VDB07688
p757
sS'55b244bd0c50'
p758
VDB08333
p759
sS'21925aeec751'
p760
VDB06923
p761
sS'f2e83576d769'
p762
VDB06268
p763
sS'472d1710a244'
p764
VDB08019
p765
sS'd946889782a1'
p766
VDB05137
p767
sS'1b06e120fed3'
p768
VDB07901
p769
sS'ecda80864884'
p770
VDB00152
p771
sS'89bc296a7324'
p772
VDB06991
p773
sS'4324684663bc'
p774
VDB02681
p775
sS'16af18a76326'
p776
VDB05155
p777
sS'b996f4179f76'
p778
VDB07232
p779
sS'ea1239c6be62'
p780
VDB07127
p781
sS'5e549db4bab6'
p782
VDB08865
p783
sS'b50771933bd2'
p784
VDB06228
p785
sS'de082c85913c'
p786
VDB08996
p787
sS'9f5dc8768a48'
p788
VDB08867
p789
sS'2c8a2589054c'
p790
VDB04235
p791
sS'c74d938471ad'
p792
VDB04107
p793
sS'dbce81073ae8'
p794
VDB02542
p795
sS'b84ea960b01f'
p796
VDB08954
p797
sS'ad2f790a4a77'
p798
VDB03752
p799
sS'64e04a8b3b89'
p800
VDB01452
p801
sS'9d448ce5cc9c'
p802
VDB02400
p803
sS'6de4b8a66c8d'
p804
VDB06436
p805
sS'b2f1db472953'
p806
VDB07125
p807
sS'b5ceb7bb6fa3'
p808
VDB02546
p809
sS'd22d289c870b'
p810
VDB05316
p811
sS'ec0f1e89bd54'
p812
VDB02673
p813
sS'cfd3e8bf9449'
p814
VDB01024
p815
sS'a0711ea7c01e'
p816
VDB08015
p817
sS'0e42d80c1628'
p818
VDB00622
p819
sS'cd6f2b9a21d9'
p820
VDB02277
p821
sS'f071f9a2e23c'
p822
VDB01231
p823
sS'be261649a56f'
p824
VDB07967
p825
sS'a10db04c2d09'
p826
VDB07520
p827
sS'bcb2c005a6bd'
p828
VDB08678
p829
sS'8664f3759e13'
p830
VDB08256
p831
sS'565c9a19f82e'
p832
VDB08063
p833
sS'9e9c87ac0c73'
p834
VDB00425
p835
sS'70f3ce1575dc'
p836
VDB07988
p837
sS'73a2b41dafd6'
p838
VDB01728
p839
sS'a66de0abcc54'
p840
VDB07653
p841
sS'753bb98403f6'
p842
VDB07573
p843
sS'b64a6d47edc7'
p844
VDB04080
p845
sS'b562eba165a0'
p846
VDB04574
p847
sS'dabffa85cd79'
p848
VDB04891
p849
sS'7a8dfe8aa66c'
p850
VDB00822
p851
sS'65013a64a5ee'
p852
VDB03925
p853
sS'b724d174be38'
p854
VDB11136
p855
sS'0fb46b7833d0'
p856
VDB08150
p857
sS'a63d7fcc18b4'
p858
VDB01121
p859
sS'c179c6a38d77'
p860
VDB07747
p861
sS'0996b751ac00'
p862
VDB03028
p863
sS'b95f1b85f6ee'
p864
VDB03765
p865
sS'fd9fd670142c'
p866
VDB03251
p867
sS'489e80fe2595'
p868
VDB03078
p869
sS'444082f73eb0'
p870
VDB01108
p871
sS'07e815938025'
p872
VDB05824
p873
sS'eeaa4eedb5d1'
p874
VDB02436
p875
sS'2f7e594ed4a4'
p876
VDB04271
p877
sS'015427528501'
p878
VDB08877
p879
sS'704425c2cabc'
p880
VDB05252
p881
sS'a3f214b36ae0'
p882
VDB01029
p883
sS'15e0b0ad4f0a'
p884
VDB03082
p885
sS'820de0c6ce33'
p886
VDB06700
p887
sS'87c52508af29'
p888
VDB03861
p889
sS'5cb541817b9d'
p890
VDB07744
p891
sS'9c7cf4bebd62'
p892
VDB01643
p893
sS'7ad9d0921f5d'
p894
VDB06852
p895
sS'2d0599986e7c'
p896
VDB09217
p897
sS'58056c0717f6'
p898
VDB07350
p899
sS'cde0ad96e28f'
p900
VDB08239
p901
sS'3c984a54db16'
p902
VDB08397
p903
sS'ec8be7fbd6a6'
p904
VDB03173
p905
sS'1c3da5030ba5'
p906
VDB02352
p907
sS'a93bce4a08df'
p908
VDB04758
p909
sS'1526b3cb9a54'
p910
VDB04518
p911
sS'674fae4bfdb7'
p912
VDB01229
p913
sS'ce2b2b8ab190'
p914
VDB04018
p915
sS'2fb6fbc405d0'
p916
VDB09289
p917
sS'9b0528480a54'
p918
VDB01094
p919
sS'b2badc5e2b92'
p920
VDB08424
p921
sS'f038750f8b33'
p922
VDB09129
p923
sS'c3e0695f685d'
p924
VDB01622
p925
sS'67b3e526e806'
p926
VDB00439
p927
sS'0b4bdddf9aff'
p928
VDB04339
p929
sS'cb761f17383d'
p930
VDB04108
p931
sS'2a8aa774f8cc'
p932
VDB07278
p933
sS'713bfbcf434c'
p934
VDB07250
p935
sS'7ee4b2c2fcfb'
p936
VDB03444
p937
sS'72369f9bfbcd'
p938
VDB00809
p939
sS'f8880d9173df'
p940
VDB07007
p941
sS'339f18f9de13'
p942
VDB08010
p943
sS'3d8a79ccb0ff'
p944
VDB07053
p945
sS'13926951b800'
p946
VDB03330
p947
sS'41285de93d57'
p948
VDB07926
p949
sS'7b06a402ec1b'
p950
VDB01215
p951
sS'55cf7158914b'
p952
VDB02893
p953
sS'dea2045cbf96'
p954
VDB09128
p955
sS'fb72759a6230'
p956
VDB00433
p957
sS'a69bcdf0c078'
p958
VDB04926
p959
sS'4c265526edb6'
p960
VDB06944
p961
sS'64f4a62e8425'
p962
VDB03801
p963
sS'9be1ea65f301'
p964
VDB01745
p965
sS'67986905cc91'
p966
VDB01409
p967
sS'dfb6fc39f61e'
p968
VDB03106
p969
sS'6b6559e31251'
p970
VDB00816
p971
sS'4afbf3def8ae'
p972
VDB00678
p973
sS'53af9a15e206'
p974
VDB00210
p975
sS'9d33d88378ff'
p976
VDB07508
p977
sS'7853f9cf100d'
p978
VDB08200
p979
sS'a8cef5af1de1'
p980
VDB01356
p981
sS'a9d2ac1774f2'
p982
VDB08420
p983
sS'b7a0ee6d987e'
p984
VDB03032
p985
sS'0946766aba20'
p986
VDB00626
p987
sS'1d6c7b88eb81'
p988
VDB02169
p989
sS'bbf5b05c1c97'
p990
VDB02089
p991
sS'127666928714'
p992
VDB03103
p993
sS'c018ba1795e4'
p994
VDB06967
p995
sS'79e169318cfc'
p996
VDB01181
p997
sS'f95b2fd98b6b'
p998
VDB03468
p999
sS'2e5a974b5d2c'
p1000
VDB04106
p1001
sS'd7875389eb15'
p1002
VDB05767
p1003
sS'c89b31434791'
p1004
VDB02063
p1005
sS'd27eb69eb73a'
p1006
VDB02996
p1007
sS'058917771d85'
p1008
VDB04629
p1009
sS'29c1f593f2a6'
p1010
VDB08122
p1011
sS'ebfb00023e8c'
p1012
VDB00120
p1013
sS'b4045ac72d5e'
p1014
VDB07534
p1015
sS'a1d6fcdc1ef2'
p1016
VDB07539
p1017
sS'd886586f897e'
p1018
VDB09073
p1019
sS'f42180f7e0b3'
p1020
VDB00532
p1021
sS'091bf78612fe'
p1022
VDB08760
p1023
sS'7fc8d53242be'
p1024
VDB01254
p1025
sS'ac8f8174db40'
p1026
VDB04805
p1027
sS'e28eab5546ce'
p1028
VDB07697
p1029
sS'36525657b0c4'
p1030
VDB04754
p1031
sS'761d4df7b423'
p1032
VDB07092
p1033
sS'b64409ded1f1'
p1034
VDB00992
p1035
sS'ce87faa7e712'
p1036
VDB07435
p1037
sS'24a2123d8d29'
p1038
VDB00307
p1039
sS'f024d6185b54'
p1040
VDB07048
p1041
sS'10fcef2d7167'
p1042
VDB08208
p1043
sS'26e543dc3fd7'
p1044
VDB00454
p1045
sS'bfee59fd9628'
p1046
VDB08192
p1047
sS'f23de2a15138'
p1048
VDB06953
p1049
sS'92a3f08f1d62'
p1050
VDB01593
p1051
sS'ea198b9c3ec8'
p1052
VDB08555
p1053
sS'0c9e218448cc'
p1054
VDB01832
p1055
sS'7146c1a00d53'
p1056
VDB01237
p1057
sS'2609edc626f4'
p1058
VDB02056
p1059
sS'a0bbbe2879d9'
p1060
VDB03575
p1061
sS'41dfb8e41df9'
p1062
VDB00163
p1063
sS'378e2d21b8f1'
p1064
VDB08763
p1065
sS'34295f06119e'
p1066
VDB04549
p1067
sS'5be7a5e51a87'
p1068
VDB04872
p1069
sS'88ba7b1bcccc'
p1070
VDB03223
p1071
sS'5e3f0d31c8a5'
p1072
VDB11591
p1073
sS'cfdcdc896f8d'
p1074
VDB04244
p1075
sS'9f8cde4dfa43'
p1076
VDB03598
p1077
sS'f8f3330b9866'
p1078
VDB02800
p1079
sS'a76c53183ad3'
p1080
VDB03456
p1081
sS'90ed83205f2a'
p1082
VDB08782
p1083
sS'11e1aed2f86e'
p1084
VDB07994
p1085
sS'dd33cb2f0cf7'
p1086
VDB07563
p1087
sS'1129cde3cffa'
p1088
VDB03337
p1089
sS'b4338c00e279'
p1090
VDB03506
p1091
sS'414c23f3d9ca'
p1092
VDB07494
p1093
sS'f9b02a42f507'
p1094
VDB07203
p1095
sS'89101aa825ac'
p1096
VDB08386
p1097
sS'18904c95124d'
p1098
VDB00122
p1099
sS'510de27014c8'
p1100
VDB08918
p1101
sS'a4bb65f55553'
p1102
VDB12874
p1103
sS'773ec11237a4'
p1104
VDB03722
p1105
sS'5487483df91d'
p1106
VDB00875
p1107
sS'c14cfd65a3aa'
p1108
VDB07739
p1109
sS'32aaa090e9d0'
p1110
VDB01393
p1111
sS'6c57ce1d98a0'
p1112
VDB02483
p1113
sS'903bbd4ea89c'
p1114
VDB08574
p1115
sS'b6aef5db5672'
p1116
VDB05045
p1117
sS'b993a4627c53'
p1118
VDB05465
p1119
sS'4f763e64e4fe'
p1120
VDB08631
p1121
sS'0844ce1dfd5f'
p1122
VDB03349
p1123
sS'235c1033c6b7'
p1124
VDB07834
p1125
sS'2964c21bbd40'
p1126
VDB02196
p1127
sS'db74634a4803'
p1128
VDB00168
p1129
sS'83f112223a29'
p1130
VDB08347
p1131
sS'4417c032de7b'
p1132
VDB03447
p1133
sS'6b59cc30974d'
p1134
VDB04800
p1135
sS'ec6c01b59fd5'
p1136
VDB06963
p1137
sS'971e6cdfa5c8'
p1138
VDB00895
p1139
sS'5fcc839b261e'
p1140
VDB07735
p1141
sS'b953be52b46c'
p1142
VDB03114
p1143
sS'a530d873631f'
p1144
VDB03588
p1145
sS'a04670ebdaa0'
p1146
VDB11703
p1147
sS'16987ac20557'
p1148
VDB01996
p1149
sS'77486e236044'
p1150
VDB00441
p1151
sS'13d60757c0ba'
p1152
VDB08322
p1153
sS'91e99289bb93'
p1154
VDB01665
p1155
sS'0179f0a33e8a'
p1156
VDB09292
p1157
sS'fb2afd1974d2'
p1158
VDB01196
p1159
sS'93d00fad210c'
p1160
VDB00288
p1161
sS'815248c2e658'
p1162
VDB07613
p1163
sS'e2faf1a24bc8'
p1164
VDB06712
p1165
sS'e809b020f550'
p1166
VDB02221
p1167
sS'af6220dc2bbc'
p1168
VDB03672
p1169
sS'30a131219442'
p1170
VDB07149
p1171
sS'ed83d2887b9f'
p1172
VDB01105
p1173
sS'dc86f4af114a'
p1174
VDB08098
p1175
sS'51dcfc3ab47a'
p1176
VDB07387
p1177
sS'd49805ae6e0b'
p1178
VDB04217
p1179
sS'77d35510e061'
p1180
VDB08601
p1181
sS'2d5ba13d845a'
p1182
VDB01274
p1183
sS'c30e673352f8'
p1184
VDB00335
p1185
sS'669a34b3402d'
p1186
VDB03092
p1187
sS'e2467f465808'
p1188
VDB02097
p1189
sS'34a5299c1e71'
p1190
VDB03923
p1191
sS'0d131553f706'
p1192
VDB00642
p1193
sS'bacba9f2f6c7'
p1194
VDB01354
p1195
sS'bbdc62b8cef9'
p1196
VDB00731
p1197
sS'744255400240'
p1198
VDB02077
p1199
sS'705f8b01f920'
p1200
VDB03016
p1201
sS'ee305ee3855c'
p1202
VDB04642
p1203
sS'7a04d8ed5bbc'
p1204
VDB03448
p1205
sS'5e3ffbe244c7'
p1206
VDB02140
p1207
sS'90c81c5d4521'
p1208
VDB01080
p1209
sS'55a27cede42c'
p1210
VDB02977
p1211
sS'373de0f4a67a'
p1212
VDB03924
p1213
sS'91358fe81a6e'
p1214
VDB07474
p1215
sS'b236b5e89a92'
p1216
VDB01261
p1217
sS'bfc9b5e47774'
p1218
VDB01394
p1219
sS'504302e07480'
p1220
VDB02426
p1221
sS'ff8518ef794d'
p1222
VDB08299
p1223
sS'079c365cd839'
p1224
VDB06605
p1225
sS'cb65c46bb0a5'
p1226
VDB07056
p1227
sS'9ebe2f10ae3c'
p1228
VDB06756
p1229
sS'd305f949059f'
p1230
VDB07034
p1231
sS'53ba374a56e8'
p1232
VDB02008
p1233
sS'd5039aa0d737'
p1234
VDB00156
p1235
sS'287b53144813'
p1236
VDB01893
p1237
sS'0898bc019406'
p1238
VDB07664
p1239
sS'b7c6c3cbc8d0'
p1240
VDB02303
p1241
sS'2a51097b1470'
p1242
VDB01587
p1243
sS'7a70de499e90'
p1244
VDB00419
p1245
sS'dd2098ea4092'
p1246
VDB03442
p1247
sS'e89d1a3ab053'
p1248
VDB08519
p1249
sS'3596a6d052d7'
p1250
VDB02697
p1251
sS'21e26e909a36'
p1252
VDB04121
p1253
sS'21874fd3c4fe'
p1254
VDB00699
p1255
sS'c9c8cb584a8d'
p1256
VDB00872
p1257
sS'd790769649ab'
p1258
VDB00364
p1259
sS'adbd89271f5c'
p1260
VDB07489
p1261
sS'ff1c10e6ae2d'
p1262
VDB01708
p1263
sS'f428d1472e2d'
p1264
VDB06444
p1265
sS'a6ee4cbee215'
p1266
VDB01548
p1267
sS'109b6b3bb6ce'
p1268
VDB11623
p1269
sS'0afbcf5618df'
p1270
VDB08776
p1271
sS'550630126a26'
p1272
VDB04716
p1273
sS'c3a61ad79804'
p1274
VDB08820
p1275
sS'e5236bc1f558'
p1276
VDB03408
p1277
sS'7275d918bc37'
p1278
VDB07491
p1279
sS'b66898f100eb'
p1280
VDB06626
p1281
sS'd0fa25595d55'
p1282
VDB08228
p1283
sS'b6adc05af1c7'
p1284
VDB08054
p1285
sS'6fc1f2e521b8'
p1286
VDB00674
p1287
sS'3bcbff97df02'
p1288
VDB00370
p1289
sS'46daa2ece5b9'
p1290
VDB09389
p1291
sS'78fd596b43e3'
p1292
VDB00993
p1293
sS'34a803b8ce04'
p1294
VDB09095
p1295
sS'a8b9ecfe7fff'
p1296
VDB07662
p1297
sS'de5cb981874b'
p1298
VDB04821
p1299
sS'1f2cc7e1a88f'
p1300
VDB01966
p1301
sS'9483485b383a'
p1302
VDB03690
p1303
sS'1ead4915475f'
p1304
VDB03288
p1305
sS'bdac9802f4e0'
p1306
VDB07755
p1307
sS'9a8a0e19d733'
p1308
VDB08222
p1309
sS'3b6560a523c2'
p1310
VDB01090
p1311
sS'ce56e50f5613'
p1312
VDB02932
p1313
sS'c9ae2232e8c0'
p1314
VDB07167
p1315
sS'c7bd11796fea'
p1316
VDB01015
p1317
sS'd50c4b94354c'
p1318
VDB06941
p1319
sS'33424e3eeff6'
p1320
VDB02696
p1321
sS'2d0ac55b0a8e'
p1322
VDB02267
p1323
sS'e599d46b2166'
p1324
VDB08789
p1325
sS'a10196426c56'
p1326
VDB07181
p1327
sS'c9df3989a39a'
p1328
VDB04614
p1329
sS'394811fb4f5e'
p1330
VDB01908
p1331
sS'd5fabc0f9588'
p1332
VDB04000
p1333
sS'44945ffb38a9'
p1334
VDB00977
p1335
sS'dcf8477b024d'
p1336
VDB04495
p1337
sS'5dabb6baf16f'
p1338
VDB06217
p1339
sS'b8589de33a27'
p1340
VDB01218
p1341
sS'06dbedea7f33'
p1342
VDB02418
p1343
sS'532a4bd69bc2'
p1344
VDB06958
p1345
sS'4f4e266e6619'
p1346
VDB07875
p1347
sS'7025da2fb759'
p1348
VDB06838
p1349
sS'f77deb627d5c'
p1350
VDB04142
p1351
sS'aad89d7be1ca'
p1352
VDB04861
p1353
sS'90610a6b1aa1'
p1354
VDB06736
p1355
sS'25c36bfc6fe8'
p1356
VDB04487
p1357
sS'2ce083420381'
p1358
VDB00610
p1359
sS'3b37684a45de'
p1360
VDB07001
p1361
sS'4085875f3ca1'
p1362
VDB02854
p1363
sS'27c480b58c2e'
p1364
VDB03314
p1365
sS'baeeef87ed20'
p1366
VDB00324
p1367
sS'a585c2abad56'
p1368
VDB04446
p1369
sS'e62ec0cda4e6'
p1370
VDB00126
p1371
sS'c17e4afc6be2'
p1372
VDB03222
p1373
sS'176db2af4a22'
p1374
VDB01973
p1375
sS'92e7260e2f3b'
p1376
VDB04374
p1377
sS'd72ddf17859a'
p1378
VDB04776
p1379
sS'7a4aad57e417'
p1380
VDB01068
p1381
sS'7695570dd51e'
p1382
VDB03726
p1383
sS'875d04507990'
p1384
VDB07247
p1385
sS'77b03b34135e'
p1386
VDB03348
p1387
sS'b470705c48fc'
p1388
VDB07471
p1389
sS'771897a08b3f'
p1390
VDB08787
p1391
sS'6bd9e640f227'
p1392
VDB01192
p1393
sS'0857d2ecfdc8'
p1394
VDB05034
p1395
sS'654d44b45634'
p1396
VDB01940
p1397
sS'33f969046a2f'
p1398
VDB01168
p1399
sS'ed42d22ac30d'
p1400
VDB04379
p1401
sS'846bb03dd713'
p1402
VDB00656
p1403
sS'a6cc3d677a5e'
p1404
VDB11362
p1405
sS'7a0edc8b8bc0'
p1406
VDB00771
p1407
sS'44ef6b01ef57'
p1408
VDB07213
p1409
sS'a2adf8b5ee5e'
p1410
VDB07102
p1411
sS'04e09c9bf346'
p1412
VDB08448
p1413
sS'236117c1c8c2'
p1414
VDB01233
p1415
sS'b91e4b67f464'
p1416
VDB07251
p1417
sS'f9e604b36bb6'
p1418
VDB01969
p1419
sS'25f81d0563e4'
p1420
VDB00867
p1421
sS'4bcf8a295110'
p1422
VDB04218
p1423
sS'071dabde86b7'
p1424
VDB07220
p1425
sS'54a0008976f0'
p1426
VDB03837
p1427
sS'6f430f94c893'
p1428
VDB07632
p1429
sS'd388b2edf329'
p1430
VDB06853
p1431
sS'a00055ffb5c2'
p1432
VDB01435
p1433
sS'3ebf40388481'
p1434
VDB03023
p1435
sS'6669351f0140'
p1436
VDB01626
p1437
sS'62e6fd52148e'
p1438
VDB00213
p1439
sS'37b21acb8f47'
p1440
VDB01836
p1441
sS'2b066e8d6af7'
p1442
VDB07975
p1443
sS'4eadde165b94'
p1444
VDB03921
p1445
sS'd5aadc9d632e'
p1446
VDB08389
p1447
sS'c5c5d46ea35b'
p1448
VDB07792
p1449
sS'4b95a781a1b6'
p1450
VDB08178
p1451
sS'2fd4a5fc3994'
p1452
VDB07932
p1453
sS'41243f6b63d8'
p1454
VDB07498
p1455
sS'f3c3f8a9cb68'
p1456
VDB01065
p1457
sS'b87c3152cd4a'
p1458
VDB01133
p1459
sS'fae6565d9543'
p1460
VDB02096
p1461
sS'a8edd21111e7'
p1462
VDB00877
p1463
sS'04904a92a4ef'
p1464
VDB04781
p1465
sS'e8c37954067e'
p1466
VDB02285
p1467
sS'dbe411f7a090'
p1468
VDB07019
p1469
sS'8ebcbf44c54e'
p1470
VDB04930
p1471
sS'ffc320f25054'
p1472
VDB01037
p1473
sS'c5646719e38e'
p1474
VDB07267
p1475
sS'3f43276068c6'
p1476
VDB07032
p1477
sS'4dae6ac4af41'
p1478
VDB08237
p1479
sS'c7ed78b776fe'
p1480
VDB04335
p1481
sS'3f908f2a8b6c'
p1482
VDB02180
p1483
sS'92b414c49ff5'
p1484
VDB02987
p1485
sS'24c08e643da9'
p1486
VDB04953
p1487
sS'7031864ef107'
p1488
VDB01259
p1489
sS'0d6445349792'
p1490
VDB08777
p1491
sS'dd40cf6de763'
p1492
VDB07965
p1493
sS'82ab2f183620'
p1494
VDB08654
p1495
sS'b40277dba254'
p1496
VDB02589
p1497
sS'919cff9a8170'
p1498
VDB08705
p1499
sS'b4df47898e70'
p1500
VDB03227
p1501
sS'03ffcb812f03'
p1502
VDB00561
p1503
sS'f27353bd78f4'
p1504
VDB00647
p1505
sS'b84336f9d035'
p1506
VDB09211
p1507
sS'e957ee1980ef'
p1508
VDB08023
p1509
sS'f8fe32604900'
p1510
VDB02894
p1511
sS'b49ad15dad3f'
p1512
VDB00966
p1513
sS'2cf2d98951f4'
p1514
VDB03636
p1515
sS'5100d456113d'
p1516
VDB04769
p1517
sS'a97d68fd1769'
p1518
VDB00841
p1519
sS'27b3213b4dc7'
p1520
VDB04140
p1521
sS'4bb2bfc614c1'
p1522
VDB06813
p1523
sS'47095338c56d'
p1524
VDB00235
p1525
sS'9588199402b0'
p1526
VDB00466
p1527
sS'2412cac49593'
p1528
VDB08338
p1529
sS'd87438b3d8a8'
p1530
VDB08910
p1531
sS'fa48d70faad1'
p1532
VDB05260
p1533
sS'81b3c6aa699f'
p1534
VDB08095
p1535
sS'cef054b5b978'
p1536
VDB07197
p1537
sS'39420fc00bbd'
p1538
VDB04027
p1539
sS'71f2a876a8c4'
p1540
VDB12960
p1541
sS'e295b82f50c7'
p1542
VDB08871
p1543
sS'3e81279f8b58'
p1544
VDB07142
p1545
sS'0759344f89f5'
p1546
VDB08132
p1547
sS'ed1cccf580e3'
p1548
VDB04604
p1549
sS'2bfcc356803e'
p1550
VDB06993
p1551
sS'a5c1cf90e0c9'
p1552
VDB00942
p1553
sS'f13ae5cc0e6e'
p1554
VDB03727
p1555
sS'300462f7c77a'
p1556
VDB08167
p1557
sS'fa3f4e370a42'
p1558
VDB02141
p1559
sS'00a03b7cdde0'
p1560
VDB02458
p1561
sS'bcb15dfeccb9'
p1562
VDB07738
p1563
sS'b0d6797f3b4e'
p1564
VDB03225
p1565
sS'fe13e7b5aa75'
p1566
VDB03984
p1567
sS'571600e6b70d'
p1568
VDB04654
p1569
sS'e9eb0f3784bc'
p1570
VDB08118
p1571
sS'b2a36260ef94'
p1572
VDB07248
p1573
sS'abc17f1a867f'
p1574
VDB04336
p1575
sS'8c69727cd481'
p1576
VDB01864
p1577
sS'febe8e239f42'
p1578
VDB00876
p1579
sS'0177c33e2ec3'
p1580
VDB00289
p1581
sS'0f7be40d3b2a'
p1582
VDB04835
p1583
sS'c4488cef00e9'
p1584
VDB07550
p1585
sS'a7209112fc23'
p1586
VDB08738
p1587
sS'ff6752bc2404'
p1588
VDB02915
p1589
sS'd94ea6268df7'
p1590
VDB00611
p1591
sS'4b84363022d1'
p1592
VDB12670
p1593
sS'6c8d476e6456'
p1594
VDB08141
p1595
sS'883faa1b38f4'
p1596
VDB05442
p1597
sS'bc98320ab237'
p1598
VDB07700
p1599
sS'ac214d90026c'
p1600
VDB00118
p1601
sS'00fa31917dcd'
p1602
VDB07276
p1603
sS'8f2979366dea'
p1604
VDB06781
p1605
sS'88be635181f0'
p1606
VDB00141
p1607
sS'5bacfa2d13ca'
p1608
VDB03867
p1609
sS'9d6ebc9d4ef8'
p1610
VDB03056
p1611
sS'9b8529ebcfce'
p1612
VDB03013
p1613
sS'df8635f5c12e'
p1614
VDB00644
p1615
sS'287ab546d752'
p1616
VDB04465
p1617
sS'e7fc0bcdf014'
p1618
VDB03828
p1619
sS'af04d376c9b6'
p1620
VDB07614
p1621
sS'bde2bfe7f93e'
p1622
VDB02936
p1623
sS'7a91ad5b34a0'
p1624
VDB12285
p1625
sS'a37e678476bc'
p1626
VDB02262
p1627
sS'a36f4078c070'
p1628
VDB05838
p1629
sS'9aa6db8f92c6'
p1630
VDB07835
p1631
sS'8b00d0d92a3e'
p1632
VDB02512
p1633
sS'20d9ff829e4e'
p1634
VDB00939
p1635
sS'de8473e1bb63'
p1636
VDB03721
p1637
sS'5aa3b842bb87'
p1638
VDB02559
p1639
sS'258fbad78b46'
p1640
VDB01222
p1641
sS'428851dc456d'
p1642
VDB02027
p1643
sS'f4d12c36453f'
p1644
VDB02010
p1645
sS'9667095acd20'
p1646
VDB01406
p1647
sS'fd7220461aca'
p1648
VDB03203
p1649
sS'54e125071d7b'
p1650
VDB04881
p1651
sS'b1cd9cda6a64'
p1652
VDB00421
p1653
sS'c056d51cf3d7'
p1654
VDB04856
p1655
sS'53caf380bd2c'
p1656
VDB07978
p1657
sS'c7d0b82c1778'
p1658
VDB03708
p1659
sS'cc4983bd17bf'
p1660
VDB07448
p1661
sS'c4ef870086df'
p1662
VDB02158
p1663
sS'084d17b4e8ef'
p1664
VDB00431
p1665
sS'9a91c98d6782'
p1666
VDB01407
p1667
sS'a7cad07bc7e4'
p1668
VDB03596
p1669
sS'23183c1c019a'
p1670
VDB01672
p1671
sS'2454446d678a'
p1672
VDB07242
p1673
sS'23dd93a7d9ce'
p1674
VDB04695
p1675
sS'5d109a7239e1'
p1676
VDB02090
p1677
sS'a34e5dcbe402'
p1678
VDB04590
p1679
sS'1506960e91b6'
p1680
VDB00778
p1681
sS'c39a96331175'
p1682
VDB01709
p1683
sS'54616316d0b4'
p1684
VDB02328
p1685
sS'3e0eaaa89f87'
p1686
VDB01833
p1687
sS'1a8bf4c04f43'
p1688
VDB00125
p1689
sS'e2f4385cb558'
p1690
VDB06980
p1691
sS'f6de9cc3c111'
p1692
VDB01444
p1693
sS'835a94a53bef'
p1694
VDB03154
p1695
sS'c81a4f743139'
p1696
VDB05990
p1697
sS'b5ce5b24c64a'
p1698
VDB07292
p1699
sS'4e70fb2f8061'
p1700
VDB00255
p1701
sS'28fdd7a444b2'
p1702
VDB00500
p1703
sS'18dad7a7da7c'
p1704
VDB07778
p1705
sS'e36144a7e940'
p1706
VDB04269
p1707
sS'9161e1cf3ab3'
p1708
VDB00127
p1709
sS'8b287f5ea886'
p1710
VDB05518
p1711
sS'46403350c2d7'
p1712
VDB03964
p1713
sS'2bc5b0e4bd05'
p1714
VDB03243
p1715
sS'987e039deee4'
p1716
VDB04325
p1717
sS'69d558cfcfd4'
p1718
VDB07333
p1719
sS'892afc88d0d3'
p1720
VDB03096
p1721
sS'83587d743f1a'
p1722
VDB13154
p1723
sS'5684c5414e40'
p1724
VDB01020
p1725
sS'36c482c7ae8d'
p1726
VDB00385
p1727
sS'd2f652ba1478'
p1728
VDB00252
p1729
sS'312bfa732271'
p1730
VDB00306
p1731
sS'd4c3939e7b19'
p1732
VDB08788
p1733
sS'd984da84c603'
p1734
VDB06732
p1735
sS'83fd0d03fcb2'
p1736
VDB04471
p1737
sS'42455704f71e'
p1738
VDB12598
p1739
sS'18f1ea9b69f8'
p1740
VDB01236
p1741
sS'213694bd5bea'
p1742
VDB07705
p1743
sS'f862d6dd2b1b'
p1744
VDB03453
p1745
sS'3121d8ca21e5'
p1746
VDB07715
p1747
sS'5a5e09bfbc50'
p1748
VDB00938
p1749
sS'5721de3ae3ad'
p1750
VDB00805
p1751
sS'a18ff6aaeb30'
p1752
VDB07086
p1753
sS'66aead9a299c'
p1754
VDB08382
p1755
sS'12f6bbac2034'
p1756
VDB04786
p1757
sS'ae4a87f7573c'
p1758
VDB00276
p1759
sS'd55f9461de05'
p1760
VDB00145
p1761
sS'2dc5f375ed20'
p1762
VDB08766
p1763
sS'2f11ecb5c861'
p1764
VDB08259
p1765
sS'32f5a911acd4'
p1766
VDB02558
p1767
sS'c4752bac3bc2'
p1768
VDB08734
p1769
sS'b23b7a259bdc'
p1770
VDB06766
p1771
sS'340c435be9ed'
p1772
VDB07793
p1773
sS'2b10e667517b'
p1774
VDB07701
p1775
sS'15bf032e7459'
p1776
VDB07676
p1777
sS'5e875a596443'
p1778
VDB07761
p1779
sS'f52eadd050b2'
p1780
VDB04150
p1781
sS'9a1f23261b9b'
p1782
VDB02848
p1783
sS'31dab9cb4392'
p1784
VDB01430
p1785
sS'a7b072ab55dd'
p1786
VDB07382
p1787
sS'442b6fe9f81e'
p1788
VDB00677
p1789
sS'49dbbd624e54'
p1790
VDB04593
p1791
sS'3e2202a57b43'
p1792
VDB02569
p1793
sS'c8d3f8bfef12'
p1794
VDB03403
p1795
sS'7bb6d4e7738c'
p1796
VDB02873
p1797
sS'429d954b78f2'
p1798
VDB07916
p1799
sS'3066d752a2ac'
p1800
VDB07795
p1801
sS'c52dcd7c16a8'
p1802
VDB08901
p1803
sS'0785293c590a'
p1804
VDB08577
p1805
sS'1d5386d8c166'
p1806
VDB03849
p1807
sS'ae84de20e009'
p1808
VDB02201
p1809
sS'0c4c02bafd2e'
p1810
VDB02835
p1811
sS'd04cf8faf13f'
p1812
VDB00428
p1813
sS'd2995831c672'
p1814
VDB11828
p1815
sS'd5ee49442e8c'
p1816
VDB07190
p1817
sS'a92a7e3815d4'
p1818
VDB02504
p1819
sS'66110f8bea06'
p1820
VDB03083
p1821
sS'04540bdd3641'
p1822
VDB07004
p1823
sS'fb7520602741'
p1824
VDB04371
p1825
sS'604ba0fa3369'
p1826
VDB07724
p1827
sS'07f1796baeea'
p1828
VDB07783
p1829
sS'951f86c7a803'
p1830
VDB03978
p1831
sS'7faf9feee6e9'
p1832
VDB08329
p1833
sS'f3c625485df3'
p1834
VDB00999
p1835
sS'c5f85a0a6d86'
p1836
VDB01247
p1837
sS'11bc245dcf48'
p1838
VDB07503
p1839
sS'dac5043b902a'
p1840
VDB09013
p1841
sS'002322d3dd70'
p1842
VDB02353
p1843
sS'0c73429286eb'
p1844
VDB08153
p1845
sS'1c223706a6b5'
p1846
VDB07900
p1847
sS'31870c655f36'
p1848
VDB06868
p1849
sS'67d762d2e90a'
p1850
VDB08773
p1851
sS'0401805ec6f6'
p1852
VDB01325
p1853
sS'bd704a9dcb03'
p1854
VDB07010
p1855
sS'3457cba1a070'
p1856
VDB01544
p1857
sS'72718b3d543a'
p1858
VDB04531
p1859
sS'd4bbd02e7857'
p1860
VDB08915
p1861
sS'd03df5630fc7'
p1862
VDB04779
p1863
sS'310ac9b9614e'
p1864
VDB03959
p1865
sS'235cf18cac8d'
p1866
VDB07851
p1867
sS'bcc4a9d9edfd'
p1868
VDB08301
p1869
sS'f0c2ac66b866'
p1870
VDB04436
p1871
sS'd1e13dace702'
p1872
VDB08250
p1873
sS'02fe92a25f7d'
p1874
VDB01099
p1875
sS'9c8f9214e771'
p1876
VDB06785
p1877
sS'fcfb4894a54b'
p1878
VDB03413
p1879
sS'b500f75af000'
p1880
VDB11738
p1881
sS'84e1e931d6be'
p1882
VDB08771
p1883
sS'7d70b4735be9'
p1884
VDB01320
p1885
sS'569598e36182'
p1886
VDB04114
p1887
sS'789a920b8222'
p1888
VDB04890
p1889
sS'36d1e0fc8436'
p1890
VDB01136
p1891
sS'991efac25064'
p1892
VDB02616
p1893
sS'1e11f9ad0549'
p1894
VDB07031
p1895
sS'16fb4bd3ee1b'
p1896
VDB01839
p1897
sS'66145af19a0d'
p1898
VDB02821
p1899
sS'8e8631c2aa14'
p1900
VDB08026
p1901
sS'a74f415e1c29'
p1902
VDB01463
p1903
sS'ad78688d2da8'
p1904
VDB05476
p1905
sS'ceaf02292b0b'
p1906
VDB08062
p1907
sS'5b6a259d8a19'
p1908
VDB04770
p1909
sS'54443584e6ac'
p1910
VDB01110
p1911
sS'cfbed259021d'
p1912
VDB01392
p1913
sS'cf5a137f3edd'
p1914
VDB03129
p1915
sS'b51c00de27cf'
p1916
VDB07100
p1917
sS'7ffd83888e70'
p1918
VDB06981
p1919
sS'998ab6668969'
p1920
VDB00750
p1921
sS'8e0088ccf9a5'
p1922
VDB08899
p1923
sS'86280a45dce7'
p1924
VDB00844
p1925
sS'eb1e32696b42'
p1926
VDB08194
p1927
sS'da841d10054d'
p1928
VDB08197
p1929
sS'95e3d614149d'
p1930
VDB01268
p1931
sS'f379f5cb5d25'
p1932
VDB07088
p1933
sS'ca5e4fd71f35'
p1934
VDB04419
p1935
sS'c8fe1e53853d'
p1936
VDB01990
p1937
sS'dbd268751794'
p1938
VDB00675
p1939
sS'f404079b68fb'
p1940
VDB05219
p1941
sS'd835debcae4f'
p1942
VDB04195
p1943
sS'1e081d7f5edd'
p1944
VDB04416
p1945
sS'76b3af568f62'
p1946
VDB01771
p1947
sS'9b19c2256973'
p1948
VDB02902
p1949
sS'1f09232abd79'
p1950
VDB07228
p1951
sS'8d2d7cf6e6ab'
p1952
VDB07465
p1953
sS'8a30b8a11117'
p1954
VDB04542
p1955
sS'807179a13819'
p1956
VDB08056
p1957
sS'7bb74e80b4c2'
p1958
VDB04432
p1959
sS'26e417562a4b'
p1960
VDB01763
p1961
sS'7d517fa2fdb5'
p1962
VDB02911
p1963
sS'0455eb04af75'
p1964
VDB07812
p1965
sS'9e519f6b7e5b'
p1966
VDB07156
p1967
sS'271cd4802834'
p1968
VDB00562
p1969
sS'7b26e0904af7'
p1970
VDB06800
p1971
sS'5d1effc9219c'
p1972
VDB01167
p1973
sS'43619e9f7dde'
p1974
VDB01892
p1975
sS'08246711fb0e'
p1976
VDB01427
p1977
sS'e60539389d79'
p1978
VDB12610
p1979
sS'5b1fa1309ba6'
p1980
VDB07469
p1981
sS'c9d1b324dc1f'
p1982
VDB07983
p1983
sS'ea6f6ebfdd25'
p1984
VDB02973
p1985
sS'31deb06daf9a'
p1986
VDB01777
p1987
sS'812cb4cc299c'
p1988
VDB08896
p1989
sS'5ed4f73fd07b'
p1990
VDB03419
p1991
sS'74ced535ff0d'
p1992
VDB00714
p1993
sS'536d551591dc'
p1994
VDB02925
p1995
sS'bf0c51601136'
p1996
VDB01079
p1997
sS'05ccd4f8c01d'
p1998
VDB00605
p1999
sS'c217c5d40322'
p2000
VDB02059
p2001
sS'1a0977e4e930'
p2002
VDB04972
p2003
sS'9a838dd46e6e'
p2004
VDB02118
p2005
sS'8b78b0b7acb4'
p2006
VDB00633
p2007
sS'1bfc90c27ab2'
p2008
VDB02082
p2009
sS'cc3e5db2016d'
p2010
VDB08808
p2011
sS'ecacdf03d52a'
p2012
VDB12890
p2013
sS'962e36d84922'
p2014
VDB04175
p2015
sS'8324d250f40b'
p2016
VDB07198
p2017
sS'9dc368d15cef'
p2018
VDB08242
p2019
sS'82df7ab819f6'
p2020
VDB04644
p2021
sS'b2516b3f7546'
p2022
VDB08739
p2023
sS'5e568ba5e2be'
p2024
VDB08342
p2025
sS'3877800cdf5c'
p2026
VDB02492
p2027
sS'31a633058bff'
p2028
VDB08094
p2029
sS'2da995531b93'
p2030
VDB07112
p2031
sS'3dea035681e2'
p2032
VDB07440
p2033
sS'c7cb0facf984'
p2034
VDB09080
p2035
sS'd7c0a0cd8d59'
p2036
VDB00459
p2037
sS'79b6933e828e'
p2038
VDB06787
p2039
sS'd6c81147e411'
p2040
VDB00321
p2041
sS'52cd1ba79ade'
p2042
VDB00412
p2043
sS'53e2d7b88a60'
p2044
VDB07315
p2045
sS'5da6dd7aa544'
p2046
VDB02676
p2047
sS'd892fe499183'
p2048
VDB08170
p2049
sS'ded90be875ae'
p2050
VDB09006
p2051
sS'a975d66700bc'
p2052
VDB07624
p2053
sS'9a3241d6b680'
p2054
VDB00912
p2055
sS'ff4b0063310d'
p2056
VDB02491
p2057
sS'70ad551ac915'
p2058
VDB02080
p2059
sS'5a9b4e549975'
p2060
VDB08564
p2061
sS'403d29b50dd8'
p2062
VDB02029
p2063
sS'02a5712311c8'
p2064
VDB00703
p2065
sS'd7dda2e5a821'
p2066
VDB06883
p2067
sS'04bb992739a3'
p2068
VDB04757
p2069
sS'738f37abfc3a'
p2070
VDB04008
p2071
sS'75d63afa7253'
p2072
VDB07342
p2073
sS'988943819f40'
p2074
VDB06979
p2075
sS'068cb9e378c4'
p2076
VDB12582
p2077
sS'9dbd232aaa9b'
p2078
VDB00534
p2079
sS'0e8c63752820'
p2080
VDB07999
p2081
sS'59a4806688d5'
p2082
VDB02499
p2083
sS'0ebaace5e322'
p2084
VDB02818
p2085
sS'f3cda17320c8'
p2086
VDB02850
p2087
sS'39e008127a9a'
p2088
VDB08037
p2089
sS'2dc5daa42a1f'
p2090
VDB00396
p2091
sS'24baf5fcbcef'
p2092
VDB03526
p2093
sS'7b14b77a338b'
p2094
VDB11994
p2095
sS'9fc74e47508d'
p2096
VDB08173
p2097
sS'aa7d204398c5'
p2098
VDB06176
p2099
sS'8f47bbac2908'
p2100
VDB07069
p2101
sS'c69bc011da5f'
p2102
VDB04450
p2103
sS'f29be741a0f3'
p2104
VDB03701
p2105
sS'54381f296fb1'
p2106
VDB03756
p2107
sS'3815d010f74e'
p2108
VDB02884
p2109
sS'7aae2ac07003'
p2110
VDB09207
p2111
sS'8042714ca5ac'
p2112
VDB06412
p2113
sS'c98ebf7a7277'
p2114
VDB02604
p2115
sS'31844a176d06'
p2116
VDB01291
p2117
sS'ea63fddeabd6'
p2118
VDB02308
p2119
sS'7e2c33428c10'
p2120
VDB08085
p2121
sS'f46ae65110c0'
p2122
VDB00606
p2123
sS'093aaebb4918'
p2124
VDB04394
p2125
sS'aa836ca750c8'
p2126
VDB00818
p2127
sS'909a09ae2421'
p2128
VDB08246
p2129
sS'97eebc040557'
p2130
VDB08198
p2131
sS'0afc8ede86d5'
p2132
VDB01337
p2133
sS'efb43439ec4f'
p2134
VDB04079
p2135
sS'fc916b13a093'
p2136
VDB00594
p2137
sS'd91d1655bb37'
p2138
VDB04318
p2139
sS'f771fba6bedc'
p2140
VDB07120
p2141
sS'a607b2420a3c'
p2142
VDB00545
p2143
sS'a9edcaf3a8bc'
p2144
VDB00151
p2145
sS'04aa47cda379'
p2146
VDB01203
p2147
sS'599aced02fcf'
p2148
VDB07400
p2149
sS'de90f9931a3f'
p2150
VDB00620
p2151
sS'2003fd86c360'
p2152
VDB00519
p2153
sS'29a15ed781ed'
p2154
VDB02888
p2155
sS'bda874cdf398'
p2156
VDB03485
p2157
sS'0343f6665395'
p2158
VDB07587
p2159
sS'8ee69f1c7e69'
p2160
VDB07751
p2161
sS'681936e96bbe'
p2162
VDB01793
p2163
sS'f090d7097646'
p2164
VDB07780
p2165
sS'a9291bf0742c'
p2166
VDB07161
p2167
sS'e8ed5606228e'
p2168
VDB03683
p2169
sS'364aa837437c'
p2170
VDB00981
p2171
sS'3b363f311364'
p2172
VDB03906
p2173
sS'0aefb4e915cf'
p2174
VDB08749
p2175
sS'6e4d3d3ce1db'
p2176
VDB06237
p2177
sS'b31b2f3e2e5c'
p2178
VDB09034
p2179
sS'ae3006899c6b'
p2180
VDB02615
p2181
sS'1ac78ed7c20c'
p2182
VDB04585
p2183
sS'e5436e0509a2'
p2184
VDB03042
p2185
sS'7af53ffdd1fc'
p2186
VDB07470
p2187
sS'4c85b075529d'
p2188
VDB03910
p2189
sS'182573c5726c'
p2190
VDB00325
p2191
sS'6aab1acf982a'
p2192
VDB03255
p2193
sS'e784e0223693'
p2194
VDB01384
p2195
sS'0e3e6016b292'
p2196
VDB00434
p2197
sS'e3f3d3629156'
p2198
VDB01420
p2199
sS'b3a2fd3f0f5d'
p2200
VDB03525
p2201
sS'2b0390c07cd5'
p2202
VDB02401
p2203
sS'7cd2bb4efaa6'
p2204
VDB01998
p2205
sS'fa2a9bc3e3e4'
p2206
VDB08709
p2207
sS'afafceb11557'
p2208
VDB04789
p2209
sS'd46d4e0fe7fe'
p2210
VDB08287
p2211
sS'59b1f4fd83ef'
p2212
VDB07309
p2213
sS'e44257a265a7'
p2214
VDB08811
p2215
sS'4cadd56e351f'
p2216
VDB06786
p2217
sS'dc2be6f0a6eb'
p2218
VDB00549
p2219
sS'18a8d5863795'
p2220
VDB07776
p2221
sS'9bebd8856b1b'
p2222
VDB07488
p2223
sS'479e5747b860'
p2224
VDB01956
p2225
sS'7da93320ecbb'
p2226
VDB13044
p2227
sS'7a077921d522'
p2228
VDB05212
p2229
sS'b31b32392566'
p2230
VDB06928
p2231
sS'd61289b2b096'
p2232
VDB00768
p2233
sS'2c8cfacfdddc'
p2234
VDB09140
p2235
sS'ff683c6b94b3'
p2236
VDB06714
p2237
sS'5da8db6a949c'
p2238
VDB07933
p2239
sS'2ff29c37a67e'
p2240
VDB07063
p2241
sS'51bf53023302'
p2242
VDB04418
p2243
sS'b1e02050fc5a'
p2244
VDB00983
p2245
sS'ca8e586b5ab5'
p2246
VDB03368
p2247
sS'b566295bd8ec'
p2248
VDB00231
p2249
sS'673e25d2b229'
p2250
VDB04233
p2251
sS'663af66c7bd6'
p2252
VDB08217
p2253
sS'bec621e08bc1'
p2254
VDB08210
p2255
sS'bf6340c88115'
p2256
VDB02467
p2257
sS'ac503a19bf92'
p2258
VDB02637
p2259
sS'20786ff6a90d'
p2260
VDB08536
p2261
sS'd69629d3c49d'
p2262
VDB01731
p2263
sS'84b315ba617b'
p2264
VDB08135
p2265
sS'2becdff8600c'
p2266
VDB00902
p2267
sS'66ec8fd4aa93'
p2268
VDB09047
p2269
sS'1949e7624176'
p2270
VDB07060
p2271
sS'3bbb8a5842fb'
p2272
VDB01818
p2273
sS'd18dec547476'
p2274
VDB03609
p2275
sS'46b6e7259ab5'
p2276
VDB00503
p2277
sS'bf4a438db8ad'
p2278
VDB12436
p2279
sS'e3acb60f9c0d'
p2280
VDB00800
p2281
sS'dc1d56454712'
p2282
VDB00446
p2283
sS'4b1118ccd1cd'
p2284
VDB13919
p2285
sS'4f58eb019193'
p2286
VDB00967
p2287
sS'0e3be77015fb'
p2288
VDB01950
p2289
sS'5fffe0636f94'
p2290
VDB08683
p2291
sS'cdbb8a7a1edf'
p2292
VDB02071
p2293
sS'91ea9e3c4fa7'
p2294
VDB00956
p2295
sS'9092bcdd1407'
p2296
VDB09238
p2297
sS'54daf9b70108'
p2298
VDB03546
p2299
sS'90200fed10df'
p2300
VDB00166
p2301
sS'2ae876a13017'
p2302
VDB06637
p2303
sS'3dcda2c10769'
p2304
VDB03033
p2305
sS'19891533cb0f'
p2306
VDB00564
p2307
sS'b50e33d36961'
p2308
VDB07246
p2309
sS'd6ff62a4e6b6'
p2310
VDB07186
p2311
sS'a5fd58609b19'
p2312
VDB08142
p2313
sS'9a91ee6a0c66'
p2314
VDB07244
p2315
sS'1984e5ff8738'
p2316
VDB07677
p2317
sS'7c8fbfc88ee9'
p2318
VDB03279
p2319
sS'f73adffc6b8f'
p2320
VDB04630
p2321
sS'3c45ecf833cf'
p2322
VDB00617
p2323
sS'a3b83d341c02'
p2324
VDB07845
p2325
sS'b8500646c286'
p2326
VDB07717
p2327
sS'6972e1df9f93'
p2328
VDB08642
p2329
sS'63cb28f9058a'
p2330
VDB01030
p2331
sS'1ec02f1a139e'
p2332
VDB03127
p2333
sS'669bf400feb2'
p2334
VDB00142
p2335
sS'db73ec610b87'
p2336
VDB08165
p2337
sS'5ddb01bd567d'
p2338
VDB00278
p2339
sS'b6dfe08ce004'
p2340
VDB09016
p2341
sS'0ad6e9835199'
p2342
VDB02287
p2343
sS'f93da381f350'
p2344
VDB07300
p2345
sS'4494541e8f07'
p2346
VDB07208
p2347
sS'410264cf790f'
p2348
VDB08526
p2349
sS'7b08afc071c4'
p2350
VDB04864
p2351
sS'45afaa44008e'
p2352
VDB07731
p2353
sS'5156b60965dd'
p2354
VDB06207
p2355
sS'2f7759599fd0'
p2356
VDB04072
p2357
sS'd8a5f2d3a673'
p2358
VDB01481
p2359
sS'826d7e264aea'
p2360
VDB04852
p2361
sS'50030c916744'
p2362
VDB04098
p2363
sS'a65dfafc8114'
p2364
VDB11693
p2365
sS'e625c111e9c1'
p2366
VDB04392
p2367
sS'01a3ff3ee0c5'
p2368
VDB00451
p2369
sS'22acbb16a3a5'
p2370
VDB07628
p2371
sS'533d0825f2ee'
p2372
VDB00427
p2373
sS'2a276aef7c69'
p2374
VDB01949
p2375
sS'1a2608f64773'
p2376
VDB00340
p2377
sS'7af59b33f85a'
p2378
VDB02671
p2379
sS'7b6075db31d1'
p2380
VDB03307
p2381
sS'b82088d4ed1a'
p2382
VDB03206
p2383
sS'daab814cddff'
p2384
VDB03479
p2385
sS'fbed81918359'
p2386
VDB08140
p2387
sS'bb0679b4f0bd'
p2388
VDB08000
p2389
sS'a605dbf77f2d'
p2390
VDB08740
p2391
sS'80d63193bc13'
p2392
VDB01564
p2393
sS'2f32039728cb'
p2394
VDB03645
p2395
sS'cf5e69597cff'
p2396
VDB07866
p2397
sS'db5950e3742a'
p2398
VDB02989
p2399
sS'c6c3cbe92233'
p2400
VDB01001
p2401
sS'3a5e0d790e18'
p2402
VDB09536
p2403
sS'438f611f43e4'
p2404
VDB01440
p2405
sS'0cc883ca22b3'
p2406
VDB03455
p2407
sS'06f7cfd88a44'
p2408
VDB08187
p2409
sS'12fe5f81b998'
p2410
VDB00270
p2411
sS'42ec4c7d5901'
p2412
VDB00871
p2413
sS'520b299ff7b1'
p2414
VDB00988
p2415
sS'e1b4ee4dcac4'
p2416
VDB01117
p2417
sS'807d42868cb0'
p2418
VDB04557
p2419
sS'a02e3c5d8d88'
p2420
VDB00261
p2421
sS'86b925b66129'
p2422
VDB00346
p2423
sS'4710dfb50d23'
p2424
VDB00615
p2425
sS'107970a6c727'
p2426
VDB04338
p2427
sS'd3458d7637fc'
p2428
VDB04790
p2429
sS'4e734209030c'
p2430
VDB00521
p2431
sS'633861d10e9a'
p2432
VDB08729
p2433
sS'8438d8e0069e'
p2434
VDB00652
p2435
sS'229187fbc9ba'
p2436
VDB02930
p2437
sS'e91b423cfea7'
p2438
VDB07859
p2439
sS'1cd6705701ac'
p2440
VDB00290
p2441
sS'5db65c442f51'
p2442
VDB07982
p2443
sS'3c3d8259bccd'
p2444
VDB02348
p2445
sS'78925487a5b1'
p2446
VDB07379
p2447
sS'4899ad6bf071'
p2448
VDB07476
p2449
sS'6c0bac1780cb'
p2450
VDB07374
p2451
sS'd9e25414c066'
p2452
VDB04607
p2453
sS'7f163e4d3283'
p2454
VDB05713
p2455
sS'4c0f203f9899'
p2456
VDB07831
p2457
sS'668ef0aa1df7'
p2458
VDB04400
p2459
sS'2a5c63df59c6'
p2460
VDB00863
p2461
sS'f7d3ff484712'
p2462
VDB03621
p2463
sS'4a23eddccb85'
p2464
VDB08572
p2465
sS'd866298a8b98'
p2466
VDB00979
p2467
sS'a58e41c04a2a'
p2468
VDB01412
p2469
sS'e7d37f0e76b3'
p2470
VDB06212
p2471
sS'0be09b2afe83'
p2472
VDB09048
p2473
sS'c5022f2fa56e'
p2474
VDB07082
p2475
sS'1dfee67ff01e'
p2476
VDB01821
p2477
sS'bf58a2d31ff6'
p2478
VDB00382
p2479
sS'39bc9c0f823b'
p2480
VDB08613
p2481
sS'79401738fa67'
p2482
VDB02047
p2483
sS'c90ddedcf323'
p2484
VDB07029
p2485
sS'42784705d720'
p2486
VDB01520
p2487
sS'2b3edb3075aa'
p2488
VDB00212
p2489
sS'd38d8361de4e'
p2490
VDB01791
p2491
sS'bee9b454ffba'
p2492
VDB00792
p2493
sS'0231d81d8062'
p2494
VDB07107
p2495
sS'd8daf2f9edd6'
p2496
VDB03749
p2497
sS'73e75d5790a8'
p2498
VDB01897
p2499
sS'9712b8686ad0'
p2500
VDB07255
p2501
sS'a41d1da4ea61'
p2502
VDB08004
p2503
sS'6198d9184564'
p2504
VDB00132
p2505
sS'3e874067e9ad'
p2506
VDB00957
p2507
sS'5303cb631dbc'
p2508
VDB08645
p2509
sS'ce5d2e8d4b5a'
p2510
VDB07150
p2511
sS'78dbb158df86'
p2512
VDB01889
p2513
sS'25a88cfbe3e5'
p2514
VDB02986
p2515
sS'248452e69e13'
p2516
VDB02028
p2517
sS'b19cbb60871e'
p2518
VDB06335
p2519
sS'3493126d30cd'
p2520
VDB04840
p2521
sS'cfae49f973ce'
p2522
VDB01692
p2523
sS'a17a00cabc50'
p2524
VDB04115
p2525
sS'607847f8148e'
p2526
VDB02552
p2527
sS'f27a7d57201e'
p2528
VDB05343
p2529
sS'01c43c4505ac'
p2530
VDB01418
p2531
sS'83d5176a246a'
p2532
VDB04480
p2533
sS'61c44404a2e2'
p2534
VDB01050
p2535
sS'b14319d48314'
p2536
VDB01615
p2537
sS'17727fec3101'
p2538
VDB00934
p2539
sS'736ebfce9ee8'
p2540
VDB02264
p2541
sS'35ed34aeb7ec'
p2542
VDB06929
p2543
sS'00d1a8434bec'
p2544
VDB04088
p2545
sS'739302d0d4c4'
p2546
VDB01295
p2547
sS'4f62473b93c9'
p2548
VDB03338
p2549
sS'1a000b2d21b2'
p2550
VDB08166
p2551
sS'1fbafba04742'
p2552
VDB03712
p2553
sS'17b7f34a8882'
p2554
VDB07385
p2555
sS'8e557211d5fe'
p2556
VDB07141
p2557
sS'103c3c45b6fe'
p2558
VDB11772
p2559
sS'fb30f2c50200'
p2560
VDB00733
p2561
sS'67bb657fbc8f'
p2562
VDB07513
p2563
sS'9ee876fd9f9a'
p2564
VDB01565
p2565
sS'60be4ca65f03'
p2566
VDB00890
p2567
sS'62f1ba39ce90'
p2568
VDB07946
p2569
sS'6463d4de6a5a'
p2570
VDB02236
p2571
sS'95a24775e25e'
p2572
VDB00518
p2573
sS'09c77cef4ab8'
p2574
VDB00968
p2575
sS'c4e1b3f75e33'
p2576
VDB03262
p2577
sS'c04f76802f82'
p2578
VDB00363
p2579
sS'c75529b3465a'
p2580
VDB03417
p2581
sS'ddd21f166176'
p2582
VDB09053
p2583
sS'04957ced17a3'
p2584
VDB07639
p2585
sS'3cc1144f4821'
p2586
VDB12323
p2587
sS'18d607412186'
p2588
VDB07843
p2589
sS'489f8d9c0ca7'
p2590
VDB12305
p2591
sS'1fe8578cfe01'
p2592
VDB02830
p2593
sS'038c7f5da28e'
p2594
VDB01497
p2595
sS'cee70d96db59'
p2596
VDB02281
p2597
sS'74e8e307de47'
p2598
VDB04365
p2599
sS'a31ed54899cf'
p2600
VDB04620
p2601
sS'89d8e79fac69'
p2602
VDB00277
p2603
sS'4c2c0b4766a2'
p2604
VDB07059
p2605
sS'00601660e272'
p2606
VDB07039
p2607
sS'cb47a1d0d4d7'
p2608
VDB08304
p2609
sS'36da0f0d63ee'
p2610
VDB01115
p2611
sS'9128c3f761b2'
p2612
VDB08080
p2613
sS'6db44b564132'
p2614
VDB06926
p2615
sS'34bb3daad1ff'
p2616
VDB04942
p2617
sS'010729ddab05'
p2618
VDB07846
p2619
sS'e7dcdb18bb5c'
p2620
VDB00551
p2621
sS'a39190eec99f'
p2622
VDB07006
p2623
sS'6a1a693e9be5'
p2624
VDB03758
p2625
sS'ed7761805279'
p2626
VDB01357
p2627
sS'da0f19b53d90'
p2628
VDB07160
p2629
sS'8f5ad2aee5bb'
p2630
VDB04853
p2631
sS'0cc1ee7f81d9'
p2632
VDB03276
p2633
sS'6ad52f38549d'
p2634
VDB02132
p2635
sS'de26fbba13e9'
p2636
VDB07177
p2637
sS'd518a8a9464d'
p2638
VDB07131
p2639
sS'34b8cd76d1d7'
p2640
VDB09079
p2641
sS'5f7a9b0f7219'
p2642
VDB09242
p2643
sS'06dece1d13c5'
p2644
VDB00530
p2645
sS'584bfae7bfeb'
p2646
VDB07856
p2647
sS'15f7686dac1d'
p2648
VDB02497
p2649
sS'd5c19f158e1b'
p2650
VDB12865
p2651
sS'51efe57946a5'
p2652
VDB09076
p2653
sS'b2765bdc9536'
p2654
VDB04489
p2655
sS'd875c056e441'
p2656
VDB07346
p2657
sS'851896ff85a3'
p2658
VDB04752
p2659
sS'e452556f49dd'
p2660
VDB04464
p2661
sS'5cdf3757f3c2'
p2662
VDB01586
p2663
sS'f5398ed9b75f'
p2664
VDB07335
p2665
sS'8bea8b681aa3'
p2666
VDB08609
p2667
sS'46633ca76934'
p2668
VDB01083
p2669
sS'8cb3d657e223'
p2670
VDB02933
p2671
sS'8e90963aefd7'
p2672
VDB03951
p2673
sS'f39b4ed067ad'
p2674
VDB07266
p2675
sS'2480f9b8b7e5'
p2676
VDB00621
p2677
sS'62681a2f2850'
p2678
VDB00588
p2679
sS'e0a32aa44c9e'
p2680
VDB07321
p2681
sS'987ca0fbf3b9'
p2682
VDB13165
p2683
sS'2f0459e59aeb'
p2684
VDB03487
p2685
sS'98bd4f48ef36'
p2686
VDB05524
p2687
sS'bcee8cfdc034'
p2688
VDB00697
p2689
sS'7e659a4f05db'
p2690
VDB00554
p2691
sS'debf5f1434a5'
p2692
VDB04938
p2693
sS'6a453eb5f48d'
p2694
VDB00211
p2695
sS'aed1352b0176'
p2696
VDB01629
p2697
sS'604b60ce212f'
p2698
VDB08355
p2699
sS'78e6160ba344'
p2700
VDB00728
p2701
sS'6d2996141051'
p2702
VDB03297
p2703
sS'0964405631e4'
p2704
VDB08617
p2705
sS'84626ba9a99e'
p2706
VDB01063
p2707
sS'8c966427c708'
p2708
VDB04970
p2709
sS'ad43c47ada37'
p2710
VDB01826
p2711
sS'e5783413bcdd'
p2712
VDB07067
p2713
sS'3242b1cbe70c'
p2714
VDB03189
p2715
sS'9aec5c30739e'
p2716
VDB02646
p2717
sS'4f472d0599dc'
p2718
VDB03866
p2719
sS'489792471bcc'
p2720
VDB04152
p2721
sS'0578e3332bf2'
p2722
VDB12319
p2723
sS'3db4b6cc1764'
p2724
VDB06698
p2725
sS'd5599644471f'
p2726
VDB01597
p2727
sS'66a61246c3e9'
p2728
VDB02452
p2729
sS'8b3fcea39d49'
p2730
VDB02367
p2731
sS'e66a4efc56c8'
p2732
VDB02745
p2733
sS'24ee645810e1'
p2734
VDB01595
p2735
sS'19f55c31a564'
p2736
VDB01620
p2737
sS'760e708847b4'
p2738
VDB02337
p2739
sS'ebc3e9dc8993'
p2740
VDB00298
p2741
sS'2cc4432d35fc'
p2742
VDB07196
p2743
sS'b135c161f887'
p2744
VDB11723
p2745
sS'94b2fee6add3'
p2746
VDB02230
p2747
sS'e545467035b7'
p2748
VDB07645
p2749
sS'5eda349f8195'
p2750
VDB01695
p2751
sS'9ed3fab1866f'
p2752
VDB07651
p2753
sS'a1ab04cc0a62'
p2754
VDB00463
p2755
sS'dc0aa644c46b'
p2756
VDB07943
p2757
sS'21bb8c431486'
p2758
VDB06684
p2759
sS'a6970f1593cb'
p2760
VDB07630
p2761
sS'7ef13dff7bf7'
p2762
VDB01160
p2763
sS'835991ea7b4c'
p2764
VDB03073
p2765
sS'f8b8903da919'
p2766
VDB02779
p2767
sS'4fea4e22a301'
p2768
VDB07794
p2769
sS'80db83202b9d'
p2770
VDB02607
p2771
sS'e3cc296eaf8e'
p2772
VDB08932
p2773
sS'75c61869b88b'
p2774
VDB08588
p2775
sS'bd2a5a471964'
p2776
VDB05351
p2777
sS'158ea8b17ef4'
p2778
VDB01535
p2779
sS'df735a98564c'
p2780
VDB01107
p2781
sS'26d55d4d26bd'
p2782
VDB00187
p2783
sS'c4aaf7478623'
p2784
VDB07137
p2785
sS'65cab7bf943c'
p2786
VDB04865
p2787
sS'52ac48b09e4e'
p2788
VDB07217
p2789
sS'5df7932691c8'
p2790
VDB04043
p2791
sS'4271840f1d93'
p2792
VDB08742
p2793
sS'800eaa2c54a6'
p2794
VDB03707
p2795
sS'5a8b4977373e'
p2796
VDB01426
p2797
sS'6d4bbddc504c'
p2798
VDB07245
p2799
sS'09f361ffdd35'
p2800
VDB03612
p2801
sS'c5de4d7c30db'
p2802
VDB02613
p2803
sS'245bfbf3e9c4'
p2804
VDB00590
p2805
sS'aaca295cda73'
p2806
VDB00381
p2807
sS'd6f9644edbcf'
p2808
VDB02396
p2809
sS'1ccd97668160'
p2810
VDB08707
p2811
sS'f1ed5da9b10e'
p2812
VDB08744
p2813
sS'a3d32716c49e'
p2814
VDB03192
p2815
sS'64b5bdcb3f5c'
p2816
VDB00834
p2817
sS'9b8c74b7d701'
p2818
VDB04689
p2819
sS'a5062e6cefc7'
p2820
VDB03935
p2821
sS'3312803408d1'
p2822
VDB00593
p2823
sS'64d898e402b9'
p2824
VDB02716
p2825
sS'c5faac5c716a'
p2826
VDB07307
p2827
sS'a676a08c30bc'
p2828
VDB08790
p2829
sS'e4c8b7033190'
p2830
VDB02720
p2831
sS'6aefbc2b154d'
p2832
VDB03126
p2833
sS'3b4ffbdc8ecc'
p2834
VDB07528
p2835
sS'bc593930d3fd'
p2836
VDB12478
p2837
sS'00dcb78ded11'
p2838
VDB03976
p2839
sS'22a5d4dcd3ae'
p2840
VDB08881
p2841
sS'f96b7ec92fb3'
p2842
VDB02181
p2843
sS'07c9057bd3ab'
p2844
VDB04254
p2845
sS'abd26a64bc68'
p2846
VDB00348
p2847
sS'e7db3309b31e'
p2848
VDB02021
p2849
sS'a3399c16b196'
p2850
VDB00636
p2851
sS'4ce63e894102'
p2852
VDB07254
p2853
sS'3b7b1ddfb771'
p2854
VDB07274
p2855
sS'dbfaa4db38e2'
p2856
VDB02175
p2857
sS'0b0049cecfbb'
p2858
VDB01336
p2859
sS'38136b0258fd'
p2860
VDB03380
p2861
sS'5e20d22256aa'
p2862
VDB07210
p2863
sS'9d141385f2fb'
p2864
VDB06911
p2865
sS'155f9da695a7'
p2866
VDB04905
p2867
sS'9f6ec5b683f8'
p2868
VDB07427
p2869
sS'c8d8d8e17cf7'
p2870
VDB01035
p2871
sS'014b635f46ba'
p2872
VDB07855
p2873
sS'2a11f2e6d251'
p2874
VDB00455
p2875
sS'3cb6caa59dda'
p2876
VDB07051
p2877
sS'e5d4ec8f6bb8'
p2878
VDB05297
p2879
sS'938f4c3d22e6'
p2880
VDB09031
p2881
sS'4a7384b4b9a1'
p2882
VDB03382
p2883
sS'e9840164401e'
p2884
VDB03216
p2885
sS'31078c3225d7'
p2886
VDB02710
p2887
sS'f62e41bef9cf'
p2888
VDB07644
p2889
sS'a6c6d9312c52'
p2890
VDB07493
p2891
sS'effad44719e4'
p2892
VDB01131
p2893
sS'840423912414'
p2894
VDB09075
p2895
sS'5984d45f2ddf'
p2896
VDB06867
p2897
sS'dcffaa07ae97'
p2898
VDB01608
p2899
sS'3549b277d926'
p2900
VDB07907
p2901
sS'4b210132f063'
p2902
VDB00149
p2903
sS'5b71878d8b64'
p2904
VDB08258
p2905
sS'87aea545ab2e'
p2906
VDB01805
p2907
sS'68b4d7268f29'
p2908
VDB03975
p2909
sS'a7bbbc44def7'
p2910
VDB02034
p2911
sS'f7ed4cf78725'
p2912
VDB02342
p2913
sS'8d085daeae06'
p2914
VDB07960
p2915
sS'83353b3f373f'
p2916
VDB13930
p2917
sS'd4a72ea21c0d'
p2918
VDB00710
p2919
sS'93b8d33658bd'
p2920
VDB01069
p2921
sS'c08fe9c09942'
p2922
VDB00135
p2923
sS'742aa650c333'
p2924
VDB08339
p2925
sS'27fd5dad46ad'
p2926
VDB01699
p2927
sS'8ee908c3babc'
p2928
VDB02684
p2929
sS'ae60d326aa65'
p2930
VDB06842
p2931
sS'7d2d95fd6cd1'
p2932
VDB08673
p2933
sS'648569ee1c64'
p2934
VDB00280
p2935
sS'aa8df708818e'
p2936
VDB01070
p2937
sS'f1ed3f84ee2c'
p2938
VDB07941
p2939
sS'9aa67a26c69e'
p2940
VDB07580
p2941
sS'db5c8a37b694'
p2942
VDB04002
p2943
sS'd8105ae0e4bd'
p2944
VDB00411
p2945
sS'a6c5c4c237d9'
p2946
VDB07713
p2947
sS'76cd9e5a289b'
p2948
VDB09018
p2949
sS'7a44f7c2d4d7'
p2950
VDB02767
p2951
sS'c2a124574af3'
p2952
VDB08151
p2953
sS'cb4944975456'
p2954
VDB02898
p2955
sS'ad9586aea03e'
p2956
VDB05943
p2957
sS'090e4787919e'
p2958
VDB03929
p2959
sS'f44252fd5e2e'
p2960
VDB09270
p2961
sS'a2e714931c93'
p2962
VDB01809
p2963
sS'caf6865d0c2f'
p2964
VDB00201
p2965
sS'ddc5bb987b10'
p2966
VDB12518
p2967
sS'13ab62ceeed9'
p2968
VDB07514
p2969
sS'8a9d0ab544d9'
p2970
VDB00651
p2971
sS'0baa77be68a4'
p2972
VDB01915
p2973
sS'6ce439262eb7'
p2974
VDB08247
p2975
sS'6c6822b3209e'
p2976
VDB04005
p2977
sS'f8f2d0697e71'
p2978
VDB02861
p2979
sS'c2cb5d7d8d3b'
p2980
VDB00515
p2981
sS'abb8d85767ac'
p2982
VDB02754
p2983
sS'116c1c64b8a3'
p2984
VDB00312
p2985
sS'8187ce7f08f3'
p2986
VDB02166
p2987
sS'902d6def2b5d'
p2988
VDB04149
p2989
sS'3659c8edd74b'
p2990
VDB01616
p2991
sS'a7a2e6a6600d'
p2992
VDB07401
p2993
sS'ba400c268323'
p2994
VDB00308
p2995
sS'4be2208943bc'
p2996
VDB00712
p2997
sS'29a0682155ee'
p2998
VDB01433
p2999
sS'ca5fd2bcba87'
p3000
VDB07054
p3001
sS'6c9ee768218e'
p3002
VDB04523
p3003
sS'4493552f6908'
p3004
VDB08383
p3005
sS'934e487c7dd3'
p3006
VDB06829
p3007
sS'8793833ae21a'
p3008
VDB12061
p3009
sS'fe3fc2bd3214'
p3010
VDB03824
p3011
sS'af7d54d7e915'
p3012
VDB01901
p3013
sS'7f28aa0c3674'
p3014
VDB07036
p3015
sS'f04ed54a8233'
p3016
VDB07979
p3017
sS'9b31f7890fad'
p3018
VDB02347
p3019
sS'b86fc99522e4'
p3020
VDB02170
p3021
sS'771ae9624923'
p3022
VDB07298
p3023
sS'8935f15be76b'
p3024
VDB01038
p3025
sS'057c0fdff874'
p3026
VDB04672
p3027
sS'3d36042524bc'
p3028
VDB00504
p3029
sS'2eafe6c30606'
p3030
VDB09067
p3031
sS'15286c1a3700'
p3032
VDB13146
p3033
sS'cc587eca6f06'
p3034
VDB01047
p3035
sS'125c95b33c7a'
p3036
VDB04054
p3037
sS'2ab00a556ab9'
p3038
VDB04588
p3039
sS'e9274dac3a3e'
p3040
VDB04417
p3041
sS'ab3795f7da1b'
p3042
VDB00356
p3043
sS'397633194f5c'
p3044
VDB09351
p3045
sS'c6f456d54d48'
p3046
VDB01559
p3047
sS'532e1962375c'
p3048
VDB06791
p3049
sS'f6ef323ce56d'
p3050
VDB01185
p3051
sS'2ab185f3ae1e'
p3052
VDB04369
p3053
sS'010f141ac6a8'
p3054
VDB08175
p3055
sS'd6ff15087fc4'
p3056
VDB08052
p3057
sS'a33b5783d8e2'
p3058
VDB07147
p3059
sS'c12c7f67557f'
p3060
VDB04707
p3061
sS'f785c107f721'
p3062
VDB06884
p3063
sS'd6b3c5c12be8'
p3064
VDB00963
p3065
sS'1db5b2553ecf'
p3066
VDB01401
p3067
sS'4fd106c0746a'
p3068
VDB00989
p3069
sS'1c2ca0644a0f'
p3070
VDB08593
p3071
sS'f43e442bdf93'
p3072
VDB04562
p3073
sS'65cb47cdf197'
p3074
VDB07135
p3075
sS'a9be614298f2'
p3076
VDB06931
p3077
sS'8a5b1afec15c'
p3078
VDB07133
p3079
sS'93ee0392d5e8'
p3080
VDB08370
p3081
sS'e37112d76d50'
p3082
VDB03551
p3083
sS'5ce040693313'
p3084
VDB02046
p3085
sS'a9e9a6ae00ce'
p3086
VDB06210
p3087
sS'2c7e25f62da4'
p3088
VDB05009
p3089
sS'1574802a06c6'
p3090
VDB01649
p3091
sS'de70b1a1a11f'
p3092
VDB05229
p3093
sS'd56a705a36c0'
p3094
VDB03298
p3095
sS'3c87ce78656a'
p3096
VDB07218
p3097
sS'3277db7a8de8'
p3098
VDB03084
p3099
sS'de6f8f382865'
p3100
VDB00972
p3101
sS'67c2d5452035'
p3102
VDB11582
p3103
sS'edecfe531c1e'
p3104
VDB04232
p3105
sS'eafeb61c501d'
p3106
VDB02712
p3107
sS'd662b2f036b6'
p3108
VDB09030
p3109
sS'5ef863b81627'
p3110
VDB05088
p3111
sS'6ff89c91d260'
p3112
VDB07646
p3113
sS'028a1190b0ef'
p3114
VDB04117
p3115
sS'dd21cb8a56ae'
p3116
VDB02557
p3117
sS'e0db9a491adc'
p3118
VDB03144
p3119
sS'f37f3acd3681'
p3120
VDB08277
p3121
sS'1831ce17a910'
p3122
VDB01067
p3123
sS'ff72b9221152'
p3124
VDB01742
p3125
sS'acfc6d7692b7'
p3126
VDB00929
p3127
sS'b0762f515877'
p3128
VDB13872
p3129
sS'317604f219a4'
p3130
VDB07485
p3131
sS'f82f4a2d3123'
p3132
VDB03937
p3133
sS'97911c00c1ec'
p3134
VDB00366
p3135
sS'c87c0bb8b1b9'
p3136
VDB00502
p3137
sS'c2a74de582c2'
p3138
VDB00619
p3139
sS'9a5e68b1fce1'
p3140
VDB00316
p3141
sS'965bc48a8ffc'
p3142
VDB03015
p3143
sS'f4a5aef6ff95'
p3144
VDB04863
p3145
sS'e89a861611ef'
p3146
VDB08488
p3147
sS'84d1131f7110'
p3148
VDB09517
p3149
sS'8cf55e101c1b'
p3150
VDB00887
p3151
sS'1c96a630c399'
p3152
VDB04837
p3153
sS'5afcd1387798'
p3154
VDB08745
p3155
sS'ac3921d05849'
p3156
VDB08073
p3157
sS'32b2d1eafead'
p3158
VDB03643
p3159
sS'6d6d2f96ef9d'
p3160
VDB04132
p3161
sS'933ab9e06233'
p3162
VDB02628
p3163
sS'e738b4ebbe6f'
p3164
VDB00228
p3165
sS'db36f1ef27e5'
p3166
VDB08077
p3167
sS'b4527e2f308c'
p3168
VDB02918
p3169
sS'cdf8b81b10c9'
p3170
VDB08201
p3171
sS'676d63b6dbec'
p3172
VDB02220
p3173
sS'5ab594ff9ca8'
p3174
VDB04006
p3175
sS'31be9f324bf3'
p3176
VDB07986
p3177
sS'86a0f82d7e77'
p3178
VDB04462
p3179
sS'217c94d69ea1'
p3180
VDB00584
p3181
sS'bcdd09a697f3'
p3182
VDB01195
p3183
sS'56fbfb5007ed'
p3184
VDB06930
p3185
sS'944d94887d44'
p3186
VDB00253
p3187
sS'af9872bc3ee0'
p3188
VDB01077
p3189
sS'2de97d7ae170'
p3190
VDB04376
p3191
sS'7d472349819d'
p3192
VDB03021
p3193
sS'3c23b5219810'
p3194
VDB01100
p3195
sS'5581e4e5ffed'
p3196
VDB03477
p3197
sS'1068c4118f80'
p3198
VDB03557
p3199
sS'c14fbeaa32da'
p3200
VDB07354
p3201
sS'd7217596ad27'
p3202
VDB00794
p3203
sS'd5a8bc3fb615'
p3204
VDB00435
p3205
sS'b4e826ecbaf6'
p3206
VDB03059
p3207
sS'845cbd1b4c6a'
p3208
VDB03977
p3209
sS'd8bd91b23d93'
p3210
VDB07421
p3211
sS'6f2c8bbd9442'
p3212
VDB06961
p3213
sS'66f6ab909faf'
p3214
VDB00873
p3215
sS'b99135396fe9'
p3216
VDB02457
p3217
sS'1584343f88fd'
p3218
VDB07129
p3219
sS'5d8babf6b061'
p3220
VDB08916
p3221
sS'b86d6d6b648b'
p3222
VDB03393
p3223
sS'e2382e3e220c'
p3224
VDB03181
p3225
sS'3624308bce8b'
p3226
VDB05239
p3227
sS'142f8d8c3076'
p3228
VDB07271
p3229
sS'c86ac6c0b7bf'
p3230
VDB01466
p3231
sS'e7aae884e71e'
p3232
VDB00473
p3233
sS'dca9cb9841b2'
p3234
VDB00244
p3235
sS'5ffc6aa5db18'
p3236
VDB00814
p3237
sS'3acb15af7beb'
p3238
VDB01890
p3239
sS'19d1ee23a79b'
p3240
VDB08406
p3241
sS'894dbf5688b0'
p3242
VDB04337
p3243
sS'761fdda6ad75'
p3244
VDB01345
p3245
sS'134db92f69fc'
p3246
VDB04577
p3247
sS'c6171847d9e0'
p3248
VDB03085
p3249
sS'2b21b673712e'
p3250
VDB02222
p3251
sS'df47f072db9d'
p3252
VDB01536
p3253
sS'c953c1283eb5'
p3254
VDB00328
p3255
sS'6bb56ae46b89'
p3256
VDB04792
p3257
sS'9e8a79e5e7dd'
p3258
VDB00755
p3259
sS'f380560f83b7'
p3260
VDB04660
p3261
sS'ffdc907d0c1a'
p3262
VDB07920
p3263
sS'ef80a7dc161b'
p3264
VDB00759
p3265
sS'e5546703ca70'
p3266
VDB08591
p3267
sS'7ae71f7545bb'
p3268
VDB02789
p3269
sS'984e67644de3'
p3270
VDB02869
p3271
sS'0198fa1823c4'
p3272
VDB08730
p3273
sS'08bc92f4c0a7'
p3274
VDB02638
p3275
sS'd0e7734d7777'
p3276
VDB07698
p3277
sS'f05d76b1bbd6'
p3278
VDB01134
p3279
sS'76915fd891f4'
p3280
VDB02098
p3281
sS'08c88848f73c'
p3282
VDB00372
p3283
sS'8115f5859e3e'
p3284
VDB02340
p3285
sS'79ab45bd6477'
p3286
VDB01046
p3287
sS'6869559abcd3'
p3288
VDB04721
p3289
sS'ff5b272a48f7'
p3290
VDB00571
p3291
sS'5087f89fd0e8'
p3292
VDB02217
p3293
sS'7c20bab0985c'
p3294
VDB04892
p3295
sS'e2b23449f0cf'
p3296
VDB00559
p3297
sS'60fb1e94d4c3'
p3298
VDB04829
p3299
sS'83284e0ae819'
p3300
VDB01114
p3301
sS'41a668bd7952'
p3302
VDB01591
p3303
sS'184d304fe00d'
p3304
VDB13929
p3305
sS'fd634ec64b6e'
p3306
VDB04322
p3307
sS'4d28df0721ab'
p3308
VDB04579
p3309
sS'48960c5f496b'
p3310
VDB03744
p3311
sS'7172d8303c1d'
p3312
VDB09092
p3313
sS'a0355133b867'
p3314
VDB06230
p3315
sS'fcc1c18a3f2b'
p3316
VDB02345
p3317
sS'b7900fbb3f89'
p3318
VDB07027
p3319
sS'fc5ad7356f0e'
p3320
VDB01205
p3321
sS'0513eed1cdc8'
p3322
VDB00513
p3323
sS'dba48b83807d'
p3324
VDB07030
p3325
sS'619cc8d7adb5'
p3326
VDB02984
p3327
sS'1a4c4567d3ac'
p3328
VDB01262
p3329
sS'a708cc7e00e4'
p3330
VDB02309
p3331
sS'c48fe164438d'
p3332
VDB00198
p3333
sS'c868dad5d84f'
p3334
VDB01056
p3335
sS'46934fdb08c0'
p3336
VDB08569
p3337
sS'92aa3ebfa677'
p3338
VDB00207
p3339
sS'59322ec55916'
p3340
VDB05382
p3341
sS'e7e9e67da2db'
p3342
VDB04260
p3343
sS'2578146679ec'
p3344
VDB01858
p3345
sS'e828a200fd4c'
p3346
VDB07455
p3347
sS'47e8eeb0a440'
p3348
VDB07461
p3349
sS'074efca95753'
p3350
VDB03347
p3351
sS'e74e72c16c2e'
p3352
VDB02258
p3353
sS'b5ef01b7bb9c'
p3354
VDB01161
p3355
sS'6bf8aa0f7bd4'
p3356
VDB03207
p3357
sS'854943499bd1'
p3358
VDB07985
p3359
sS'64349abe1b04'
p3360
VDB04020
p3361
sS'ba5df62390ee'
p3362
VDB04126
p3363
sS'7431b00fa4cf'
p3364
VDB03891
p3365
sS'5011ffa2c2fc'
p3366
VDB11967
p3367
sS'138e73bfee33'
p3368
VDB02490
p3369
sS'3e9f39874a49'
p3370
VDB07026
p3371
sS'24246944f980'
p3372
VDB03415
p3373
sS'9b2977d5f26c'
p3374
VDB08837
p3375
sS'962a9e3c9ae0'
p3376
VDB00337
p3377
sS'e7665dc47130'
p3378
VDB06274
p3379
sS'd830f3dfd3c9'
p3380
VDB03459
p3381
sS'6a7cc9d0b71e'
p3382
VDB03267
p3383
sS'ee49a6cd973e'
p3384
VDB02279
p3385
sS'1e0a625b9f15'
p3386
VDB02398
p3387
sS'103ddb6de924'
p3388
VDB09014
p3389
sS'35ec53506fb8'
p3390
VDB00603
p3391
sS'00d3ffd9f072'
p3392
VDB04857
p3393
sS'a7193661727d'
p3394
VDB08162
p3395
sS'ef2ead5cdc62'
p3396
VDB03772
p3397
sS'2a8f6c95de9f'
p3398
VDB07586
p3399
sS'62ddfd232cb7'
p3400
VDB07078
p3401
sS'd23cbb0e9a68'
p3402
VDB00985
p3403
sS'95449d1a18bd'
p3404
VDB07658
p3405
sS'80450ab5ca75'
p3406
VDB12961
p3407
sS'851f06b2b044'
p3408
VDB06834
p3409
sS'5b4fbb06b8d1'
p3410
VDB00847
p3411
sS'b60034eab6eb'
p3412
VDB08688
p3413
sS'69f1de1efabd'
p3414
VDB08557
p3415
sS'85e72a4623e2'
p3416
VDB07226
p3417
sS'188a13b87e34'
p3418
VDB06830
p3419
sS'516305ab6047'
p3420
VDB07842
p3421
sS'af89b682ec52'
p3422
VDB06775
p3423
sS'5b8700a84de6'
p3424
VDB07314
p3425
sS'd0c9a5de0228'
p3426
VDB05885
p3427
sS'ce392a4ceb5a'
p3428
VDB04263
p3429
sS'50bbe39b408b'
p3430
VDB00592
p3431
sS'e8cd331c7369'
p3432
VDB04612
p3433
sS'ab7f67bb2b78'
p3434
VDB00343
p3435
sS'6cefd2726359'
p3436
VDB07130
p3437
sS'e1e64a32530b'
p3438
VDB00409
p3439
sS'28b9bc6a45ca'
p3440
VDB03657
p3441
sS'24b45d7290c1'
p3442
VDB00786
p3443
sS'3f5093cb62f2'
p3444
VDB07070
p3445
sS'9e648310ed11'
p3446
VDB03633
p3447
sS'2e1c6d7f2291'
p3448
VDB00752
p3449
sS'0ccb58d211bc'
p3450
VDB04880
p3451
sS'21b8a2b0f6b7'
p3452
VDB00616
p3453
sS'48296b45cf30'
p3454
VDB03769
p3455
sS'3720bed4a8bc'
p3456
VDB02621
p3457
sS'aa88eb1277b2'
p3458
VDB03359
p3459
sS'04acd8f71cba'
p3460
VDB07605
p3461
sS'b94f9cad50cd'
p3462
VDB07742
p3463
sS'e05b146923a1'
p3464
VDB01632
p3465
sS'ef28f3529cf3'
p3466
VDB04253
p3467
sS'c27c98e29e20'
p3468
VDB01177
p3469
sS'b7cac614a662'
p3470
VDB08234
p3471
sS'85f69f8c1ddb'
p3472
VDB05025
p3473
sS'd3f046e2ac7a'
p3474
VDB01927
p3475
sS'da53c58ae8c8'
p3476
VDB00754
p3477
sS'28ba769866d2'
p3478
VDB07008
p3479
sS'c4d415d50db8'
p3480
VDB07430
p3481
sS'9798a4542615'
p3482
VDB07265
p3483
sS'dee1a1ae7bc2'
p3484
VDB09239
p3485
sS'9bb8f5b0b06f'
p3486
VDB04099
p3487
sS'56c0c8cc2b3d'
p3488
VDB04844
p3489
sS'1ae1d7649893'
p3490
VDB07847
p3491
sS'fbbf050f2198'
p3492
VDB08462
p3493
sS'5d6e60fb1657'
p3494
VDB03953
p3495
sS'71f11578a62b'
p3496
VDB07138
p3497
sS'78f206792854'
p3498
VDB09185
p3499
sS'eb060bd08711'
p3500
VDB08320
p3501
sS'433d93d65276'
p3502
VDB00242
p3503
sS'3e33997c2fd2'
p3504
VDB01084
p3505
sS'c812907faa24'
p3506
VDB03484
p3507
sS'2c5b1fe3764a'
p3508
VDB01088
p3509
sS'456de3e3496d'
p3510
VDB03179
p3511
sS'ccefa808c02f'
p3512
VDB07128
p3513
sS'4e674cfe8930'
p3514
VDB00773
p3515
sS'79fefc89c20a'
p3516
VDB01245
p3517
sS'08feee19966a'
p3518
VDB03587
p3519
sS'ed4bacdb0994'
p3520
VDB13873
p3521
sS'8585b41381cd'
p3522
VDB00218
p3523
sS'c22010d5ab5e'
p3524
VDB07397
p3525
sS'b4887e8e62db'
p3526
VDB07359
p3527
sS'6044482a5836'
p3528
VDB04510
p3529
sS'c3760acfc1f4'
p3530
VDB06757
p3531
sS'b6b97b5d09f2'
p3532
VDB02506
p3533
sS'ed63598119ab'
p3534
VDB00269
p3535
sS'44c2e316a849'
p3536
VDB04898
p3537
sS'1f3ae0e89329'
p3538
VDB03663
p3539
sS'ba0f303565bb'
p3540
VDB00920
p3541
sS'970d82536170'
p3542
VDB05412
p3543
sS'd53db87223e2'
p3544
VDB01366
p3545
sS'267982a47198'
p3546
VDB03309
p3547
sS'b6125c1fa05e'
p3548
VDB01399
p3549
sS'bffcaf787a8b'
p3550
VDB04345
p3551
sS'4b3d507c4c10'
p3552
VDB03968
p3553
sS'a08080649791'
p3554
VDB00223
p3555
sS'201f6ad5902e'
p3556
VDB01189
p3557
sS'9133401d4035'
p3558
VDB02216
p3559
sS'1b9bbc1c7504'
p3560
VDB08804
p3561
sS'0736a0a4e274'
p3562
VDB07506
p3563
sS'92e9326a5d56'
p3564
VDB07388
p3565
sS'babbb564aa2f'
p3566
VDB08445
p3567
sS'05c02cfeb5d7'
p3568
VDB01340
p3569
sS'251a255e68e6'
p3570
VDB08708
p3571
sS'bb897733cf7d'
p3572
VDB01705
p3573
sS'822adeac17b7'
p3574
VDB01062
p3575
sS'5521980a07de'
p3576
VDB08235
p3577
sS'beba6736b8a9'
p3578
VDB00528
p3579
sS'f6e14e7bf117'
p3580
VDB03904
p3581
sS'679fbde07eba'
p3582
VDB01082
p3583
sS'9d7adcf15d19'
p3584
VDB02701
p3585
sS'0e0e01d9d8d3'
p3586
VDB00598
p3587
sS'1dc87b7e02e2'
p3588
VDB07280
p3589
sS'd1c43aaab7b1'
p3590
VDB02116
p3591
sS'adc5520dc910'
p3592
VDB08743
p3593
sS'a06137ed9c05'
p3594
VDB08022
p3595
sS'e782aaa350e9'
p3596
VDB03220
p3597
sS'37b180d28203'
p3598
VDB07567
p3599
sS'7a8c8df9d32f'
p3600
VDB03660
p3601
sS'fec6374d1238'
p3602
VDB00708
p3603
sS'd33a2c07c292'
p3604
VDB01238
p3605
sS'cb9a8ab1c89b'
p3606
VDB01840
p3607
sS'ca94ccef7180'
p3608
VDB07158
p3609
sS'e95a5b74567f'
p3610
VDB03686
p3611
sS'6fa04126bcd9'
p3612
VDB00998
p3613
sS'8536196a7491'
p3614
VDB03594
p3615
sS'65de78cc8ea2'
p3616
VDB00448
p3617
sS'8933b988cf84'
p3618
VDB06196
p3619
sS'60a3479fa8a5'
p3620
VDB06956
p3621
sS'93d73ceae288'
p3622
VDB02481
p3623
sS'491411d3a761'
p3624
VDB03401
p3625
sS'387bbc2ed95d'
p3626
VDB01496
p3627
sS'7428ede81b6d'
p3628
VDB07425
p3629
sS'a62f65ef61c8'
p3630
VDB07119
p3631
sS'a8302637ccbb'
p3632
VDB00855
p3633
sS'6da61e310f37'
p3634
VDB08539
p3635
sS'0f818b7a2b5f'
p3636
VDB08476
p3637
sS'c9b3c2b6260c'
p3638
VDB04564
p3639
sS'1c4cf202abc3'
p3640
VDB04234
p3641
sS'd17b92312a94'
p3642
VDB02272
p3643
sS'929fdc4791f2'
p3644
VDB04894
p3645
sS'4521170a94ca'
p3646
VDB04669
p3647
sS'2b0f0c989e91'
p3648
VDB00924
p3649
sS'1e994b1cf795'
p3650
VDB08371
p3651
sS'be0793eefedd'
p3652
VDB03332
p3653
sS'6866cc08cff2'
p3654
VDB03425
p3655
sS'93751bb97b0e'
p3656
VDB01784
p3657
sS'abf7b09d810a'
p3658
VDB05461
p3659
sS'f810b56f2036'
p3660
VDB03467
p3661
sS'38db605214f8'
p3662
VDB00514
p3663
sS'a196ed7eab1d'
p3664
VDB07637
p3665
sS'cdcf33ecec81'
p3666
VDB08280
p3667
sS'd8ce07f06749'
p3668
VDB00661
p3669
sS'ec4633791802'
p3670
VDB01284
p3671
sS'd8098b2109d9'
p3672
VDB01240
p3673
sS'319ccbc1e644'
p3674
VDB00804
p3675
sS'b2f6c9750392'
p3676
VDB01592
p3677
sS'447803c40c74'
p3678
VDB09082
p3679
sS'05323be57fa7'
p3680
VDB07143
p3681
sS'a0994b11ee1f'
p3682
VDB00443
p3683
sS'899dfc6a42e4'
p3684
VDB08361
p3685
sS'e0c3c02eb7b9'
p3686
VDB00555
p3687
sS'ab98838d9273'
p3688
VDB06413
p3689
sS'9f3891335262'
p3690
VDB08020
p3691
sS'7fb2f8dec3e3'
p3692
VDB06695
p3693
sS'535a0d669626'
p3694
VDB02335
p3695
sS'ecdf7009d88b'
p3696
VDB02573
p3697
sS'9b560414058c'
p3698
VDB02195
p3699
sS'32353a496626'
p3700
VDB07574
p3701
sS'f9562d3531f5'
p3702
VDB03667
p3703
sS'7e887fac0580'
p3704
VDB02205
p3705
sS'3fd1cfbfcd24'
p3706
VDB08810
p3707
sS'ce07ee0534b8'
p3708
VDB01085
p3709
sS'5630025d8e85'
p3710
VDB08889
p3711
sS'1fbde64f84a1'
p3712
VDB02778
p3713
sS'0d07b3a44c6c'
p3714
VDB08661
p3715
sS'9a85ee508af1'
p3716
VDB07622
p3717
sS'1b57e741f8a8'
p3718
VDB03329
p3719
sS'0f346b4db2e6'
p3720
VDB02690
p3721
sS'673de4bb8155'
p3722
VDB08484
p3723
sS'1baae13035a7'
p3724
VDB02032
p3725
sS'92991ab5dcb1'
p3726
VDB01129
p3727
sS'3a6d280514a0'
p3728
VDB12702
p3729
sS'7fe49f6faac4'
p3730
VDB07234
p3731
sS'ff48b0fd3752'
p3732
VDB06654
p3733
sS'77e98ac9350d'
p3734
VDB07515
p3735
sS'5d32da4682f3'
p3736
VDB04791
p3737
sS'aa6c917c4fff'
p3738
VDB08553
p3739
sS'b73b12bb16a6'
p3740
VDB08138
p3741
sS'e12ad26531e1'
p3742
VDB02622
p3743
sS'7ed9a49fcd94'
p3744
VDB06148
p3745
sS'afc5c6f2c06f'
p3746
VDB01725
p3747
sS'9e2a5ea42b41'
p3748
VDB07284
p3749
sS'820ef99a2c84'
p3750
VDB01919
p3751
sS'8aadfad44e8f'
p3752
VDB03100
p3753
sS'6a7370ea1968'
p3754
VDB03896
p3755
sS'f899864d5882'
p3756
VDB01175
p3757
sS'a2ea96071167'
p3758
VDB02594
p3759
sS'7d5d2958da4d'
p3760
VDB11830
p3761
sS'159ac568a71b'
p3762
VDB07524
p3763
sS'a8aa849137c8'
p3764
VDB07545
p3765
sS'e60a97b43818'
p3766
VDB08028
p3767
sS'bc202f64613a'
p3768
VDB06512
p3769
sS'3c82cca970e6'
p3770
VDB03372
p3771
sS'20be59a67e2f'
p3772
VDB11348
p3773
sS'19ff201a5019'
p3774
VDB02872
p3775
sS'b3e1450919b4'
p3776
VDB06833
p3777
sS'a8806de7dd56'
p3778
VDB00837
p3779
sS'd13ee7f504aa'
p3780
VDB00579
p3781
sS'30e064f81120'
p3782
VDB04645
p3783
sS'357339b25312'
p3784
VDB07670
p3785
sS'9e74eff57422'
p3786
VDB07419
p3787
sS'1c0b3649e328'
p3788
VDB07446
p3789
sS'0b33cba41af4'
p3790
VDB04466
p3791
sS'7a0922494da6'
p3792
VDB08950
p3793
sS'b416a51b4f6f'
p3794
VDB07608
p3795
sS'7b9cb3b50d8a'
p3796
VDB00148
p3797
sS'849017b0271f'
p3798
VDB07324
p3799
sS'a111af3fa1b4'
p3800
VDB00199
p3801
sS'92943a8ae508'
p3802
VDB00640
p3803
sS'7f033edbb61d'
p3804
VDB01727
p3805
sS'a276c9ddb354'
p3806
VDB03093
p3807
sS'6e7879d29af1'
p3808
VDB07204
p3809
sS'96c3c8b531b9'
p3810
VDB00884
p3811
sS'2b815477de3c'
p3812
VDB01790
p3813
sS'e2282e4e1091'
p3814
VDB04429
p3815
sS'34e9ea9da89b'
p3816
VDB04256
p3817
sS'7877663dcd6e'
p3818
VDB06741
p3819
sS'1bf8f8b564cd'
p3820
VDB00820
p3821
sS'a50c3a8c4005'
p3822
VDB03559
p3823
sS'dd007ec7c7a6'
p3824
VDB01179
p3825
sS'2e60adc623f6'
p3826
VDB08129
p3827
sS'2586d30eefea'
p3828
VDB03128
p3829
sS'df4ef545d97d'
p3830
VDB07947
p3831
sS'bf7f6f5ab856'
p3832
VDB07209
p3833
sS'68e1148ec431'
p3834
VDB04594
p3835
sS'9418ada29207'
p3836
VDB07005
p3837
sS'6a59813b4e3b'
p3838
VDB02825
p3839
sS'ff80c7145aee'
p3840
VDB07356
p3841
sS'e505c5bde8a1'
p3842
VDB01425
p3843
sS'd405d06734cc'
p3844
VDB00173
p3845
sS'502961e86c66'
p3846
VDB01762
p3847
sS'81f88bf4a662'
p3848
VDB00391
p3849
sS'7931bd578f77'
p3850
VDB02887
p3851
sS'2a08e071717d'
p3852
VDB03449
p3853
sS'fac2955a6bcb'
p3854
VDB02069
p3855
sS'8cfa6b46e2f5'
p3856
VDB03788
p3857
sS'a241af453139'
p3858
VDB08114
p3859
sS'5e83cca68a8b'
p3860
VDB00860
p3861
sS'dccc6095bd23'
p3862
VDB01166
p3863
sS'fa5938343d3d'
p3864
VDB08818
p3865
sS'699860911583'
p3866
VDB06832
p3867
sS'30f4a5a4007b'
p3868
VDB01419
p3869
sS'51e122526885'
p3870
VDB03392
p3871
sS'0d3e02b7aaca'
p3872
VDB07148
p3873
sS'a386be61c131'
p3874
VDB02991
p3875
sS'a5d5dbc36d20'
p3876
VDB03390
p3877
sS'ad335b853d40'
p3878
VDB00843
p3879
sS'6c59f8d132ec'
p3880
VDB06869
p3881
sS'ca00cf827ef3'
p3882
VDB02215
p3883
sS'44c51ba97167'
p3884
VDB00738
p3885
sS'd6fefcde88d9'
p3886
VDB13139
p3887
sS'a3ed6ff49533'
p3888
VDB07099
p3889
sS'6ba35086a122'
p3890
VDB12548
p3891
sS'288b4c2002a2'
p3892
VDB00669
p3893
sS'829a7e1ba913'
p3894
VDB08422
p3895
sS'3f6b8f7442db'
p3896
VDB13869
p3897
sS'862816ebb20f'
p3898
VDB00162
p3899
sS'56b720d8162b'
p3900
VDB04859
p3901
sS'930d652f08d1'
p3902
VDB02106
p3903
sS'2581e46fb8c3'
p3904
VDB01878
p3905
sS'e8d8c0fd36b8'
p3906
VDB09071
p3907
sS'6f769d9940f2'
p3908
VDB07959
p3909
sS'5ec6df42fc72'
p3910
VDB07627
p3911
sS'c66348d56ebb'
p3912
VDB00241
p3913
sS'cc5fb98aec36'
p3914
VDB04908
p3915
sS'67c15237f75f'
p3916
VDB02429
p3917
sS'8ffff9ba1cfc'
p3918
VDB00358
p3919
sS'f3e3e581fcbd'
p3920
VDB03102
p3921
sS'bd15bcb9b2f4'
p3922
VDB01646
p3923
sS'e1d456e8fda3'
p3924
VDB06713
p3925
sS'b1575eef2157'
p3926
VDB01843
p3927
sS'305a4b049a32'
p3928
VDB05869
p3929
sS'0f742d201f94'
p3930
VDB07256
p3931
sS'672477adb370'
p3932
VDB05428
p3933
sS'99764bcc227d'
p3934
VDB02528
p3935
sS'e2bbd2ea4ab5'
p3936
VDB03218
p3937
sS'63392582b2c5'
p3938
VDB03944
p3939
sS'4aac4a196780'
p3940
VDB08608
p3941
sS'40923a0cbd75'
p3942
VDB07195
p3943
sS'e55c49658665'
p3944
VDB04513
p3945
sS'4a82ec55a6e8'
p3946
VDB07230
p3947
sS'450da83d7a37'
p3948
VDB04461
p3949
sS'4169693793f3'
p3950
VDB07311
p3951
sS'2bba133239dd'
p3952
VDB07211
p3953
sS'5c8b5c0f76d2'
p3954
VDB06932
p3955
sS'94bad4a8d8eb'
p3956
VDB00745
p3957
sS'bb58ea086099'
p3958
VDB12140
p3959
sS'2602f3448e5f'
p3960
VDB09131
p3961
sS'7f94344fcda6'
p3962
VDB01225
p3963
sS'7b66fcaadcd2'
p3964
VDB07162
p3965
sS'494cd56c3f8b'
p3966
VDB09186
p3967
sS'8f1c8a60c404'
p3968
VDB07966
p3969
sS'09928a7fd955'
p3970
VDB07791
p3971
sS'65669fd3320e'
p3972
VDB08882
p3973
sS'90d73dd04485'
p3974
VDB04700
p3975
sS'6c1bee9e1520'
p3976
VDB00883
p3977
sS'f844474f7b83'
p3978
VDB00570
p3979
sS'dc2c0614bc77'
p3980
VDB00342
p3981
sS'163adcef2cb9'
p3982
VDB07680
p3983
sS'c8c4c9b9ef44'
p3984
VDB00332
p3985
sS'5ef6b5f689b3'
p3986
VDB06589
p3987
sS'94c59544844e'
p3988
VDB02197
p3989
sS'd71ceabd7af8'
p3990
VDB06912
p3991
sS'9156a2023161'
p3992
VDB13170
p3993
sS'970ce574ba5d'
p3994
VDB02463
p3995
sS'921ed5f7a406'
p3996
VDB03461
p3997
sS'd87a6b6a5ffb'
p3998
VDB05470
p3999
sS'7ced150f5487'
p4000
VDB05104
p4001
sS'00ac07dba11b'
p4002
VDB03577
p4003
sS'4badc3772cca'
p4004
VDB00569
p4005
sS'6efa0941e690'
p4006
VDB03967
p4007
sS'dcf75e592907'
p4008
VDB01664
p4009
sS'0fcb26d83b96'
p4010
VDB00121
p4011
sS'1a675302ad75'
p4012
VDB01280
p4013
sS'a8755927d75b'
p4014
VDB07596
p4015
sS'fc74376e4afe'
p4016
VDB00484
p4017
sS'6cc89385deac'
p4018
VDB11691
p4019
sS'359344a59f60'
p4020
VDB07252
p4021
sS'1e3e2b7aca5d'
p4022
VDB07080
p4023
sS'9c5f9cc73873'
p4024
VDB04889
p4025
sS'2059120a4ef5'
p4026
VDB02165
p4027
sS'77e7709552b1'
p4028
VDB00726
p4029
sS'22715db3a496'
p4030
VDB07827
p4031
sS'359b0cb4a038'
p4032
VDB00219
p4033
sS'58cd6b7b2937'
p4034
VDB01623
p4035
sS'1065ff5417f6'
p4036
VDB03072
p4037
sS'47eda5e84cd8'
p4038
VDB03040
p4039
sS'56bb083a9a3d'
p4040
VDB00436
p4041
sS'5f7760347757'
p4042
VDB02341
p4043
sS'4d1f860770d2'
p4044
VDB08535
p4045
sS'3c599bddcfde'
p4046
VDB04552
p4047
sS'3c066bf17b21'
p4048
VDB08629
p4049
sS'ba4d455c0576'
p4050
VDB03893
p4051
sS'3889889ae68b'
p4052
VDB08365
p4053
sS'f8a374750549'
p4054
VDB03039
p4055
sS'27e94925b47b'
p4056
VDB00688
p4057
sS'1a1e35e7ea35'
p4058
VDB07363
p4059
sS'6f4d1061b37c'
p4060
VDB00423
p4061
sS'244dfe1fdec2'
p4062
VDB04281
p4063
sS'd7f6d52401e9'
p4064
VDB03637
p4065
sS'e3270a0afd94'
p4066
VDB03974
p4067
sS'c265e5b6eae6'
p4068
VDB06920
p4069
sS'd55af9d93c2e'
p4070
VDB07134
p4071
sS'10df25232ade'
p4072
VDB00131
p4073
sS'1d8e38121288'
p4074
VDB02072
p4075
sS'621b1380bd67'
p4076
VDB03507
p4077
sS'873acaca308f'
p4078
VDB04315
p4079
sS'0804b89bf58e'
p4080
VDB02938
p4081
sS'539bbcf49d0d'
p4082
VDB03135
p4083
sS'eeeaaebb7f14'
p4084
VDB00471
p4085
sS'456d5a586ede'
p4086
VDB04982
p4087
sS'09e4ff113116'
p4088
VDB08895
p4089
sS'c1eeda0aecb3'
p4090
VDB00637
p4091
sS'7a09c0a2087e'
p4092
VDB02644
p4093
sS'f57cc2e342ff'
p4094
VDB08202
p4095
sS'dfd725ebf4c1'
p4096
VDB00268
p4097
sS'fbe00ecab3f6'
p4098
VDB02796
p4099
sS'b01c670e1431'
p4100
VDB08087
p4101
sS'4a188fb3e56c'
p4102
VDB12116
p4103
sS'1d58494a6845'
p4104
VDB08399
p4105
sS'642569195582'
p4106
VDB04697
p4107
sS'ef6ab69dbf9a'
p4108
VDB00996
p4109
sS'aedfc3a146e9'
p4110
VDB02079
p4111
sS'4e8670a5872c'
p4112
VDB06858
p4113
sS'e3de767befbe'
p4114
VDB01917
p4115
sS'584d06548477'
p4116
VDB08130
p4117
sS'84428736dbbd'
p4118
VDB07756
p4119
sS'c09b8625757d'
p4120
VDB00539
p4121
sS'b61ef022e3fe'
p4122
VDB00361
p4123
sS'8f9d147e83f3'
p4124
VDB04459
p4125
sS'e5bc3f0e14aa'
p4126
VDB02177
p4127
sS'd015fbebc3d6'
p4128
VDB07877
p4129
sS'43bd67eeb385'
p4130
VDB07313
p4131
sS'3bde14108ad9'
p4132
VDB07821
p4133
sS'7bae5441195f'
p4134
VDB08354
p4135
sS'56e2389c520f'
p4136
VDB06987
p4137
sS'2c258df624b7'
p4138
VDB03245
p4139
sS'c3a7626f56bd'
p4140
VDB08491
p4141
sS'56281a24e003'
p4142
VDB06218
p4143
sS'27c5ffa9723f'
p4144
VDB00604
p4145
sS'2825483fda65'
p4146
VDB02447
p4147
sS'8ddf0620450b'
p4148
VDB04216
p4149
sS'46b52cf6d882'
p4150
VDB07533
p4151
sS'82d9e546c993'
p4152
VDB08922
p4153
sS'46be92d2a302'
p4154
VDB04534
p4155
sS'960e77d11ce8'
p4156
VDB07546
p4157
sS'6b0d71c1a5a7'
p4158
VDB03153
p4159
sS'1ec766c635d4'
p4160
VDB08005
p4161
sS'103534d56db0'
p4162
VDB07684
p4163
sS'1814fb8ff2ef'
p4164
VDB09198
p4165
sS'e36624afa6cb'
p4166
VDB00496
p4167
sS'7573f16d612d'
p4168
VDB04147
p4169
sS'c67314e19d3c'
p4170
VDB07942
p4171
sS'c07c536b0cc9'
p4172
VDB04522
p4173
sS'a0a5a39beaed'
p4174
VDB03104
p4175
sS'df48319c896a'
p4176
VDB04410
p4177
sS'9c3ffd6b0c80'
p4178
VDB12418
p4179
sS'9f8da190432b'
p4180
VDB02363
p4181
sS'1f429e5687f5'
p4182
VDB03064
p4183
sS'67714105754b'
p4184
VDB08624
p4185
sS'c334e157a7a5'
p4186
VDB06711
p4187
sS'b95ae611a359'
p4188
VDB07874
p4189
sS'05ebc0cdb41e'
p4190
VDB04194
p4191
sS'65dcaf3067bf'
p4192
VDB11652
p4193
sS'579b7abf7d57'
p4194
VDB08099
p4195
sS'9736b0ed5592'
p4196
VDB05806
p4197
sS'1a617f0dd088'
p4198
VDB07702
p4199
sS'cfd8b8c803d2'
p4200
VDB02878
p4201
sS'cb9bb330cd74'
p4202
VDB07525
p4203
sS'477513e68b03'
p4204
VDB08096
p4205
sS'f5464b6d69fc'
p4206
VDB04912
p4207
sS'ca0fc4b9e37d'
p4208
VDB12307
p4209
sS'c8fbc20ff55a'
p4210
VDB08659
p4211
sS'6a10de2f6ad8'
p4212
VDB04089
p4213
sS'5c9b23007367'
p4214
VDB02338
p4215
sS'b51f7e72d041'
p4216
VDB03706
p4217
sS'da2bb735d7e6'
p4218
VDB08180
p4219
sS'9a0bf5a7734b'
p4220
VDB00035
p4221
sS'f975dd453a68'
p4222
VDB04278
p4223
sS'6167737cfb7f'
p4224
VDB02602
p4225
sS'5b4c47cedc33'
p4226
VDB06725
p4227
sS'ea18829b69ce'
p4228
VDB00663
p4229
sS'57a1e75e2fbe'
p4230
VDB07462
p4231
sS'97f5d43df6f4'
p4232
VDB01128
p4233
sS'99fa7a8952e8'
p4234
VDB08244
p4235
sS'6e4fa7a41ff8'
p4236
VDB04485
p4237
sS'dce16f0ba1cd'
p4238
VDB08532
p4239
sS'bd63a33bf642'
p4240
VDB03736
p4241
sS'db7400aba588'
p4242
VDB05013
p4243
sS'bfc362684320'
p4244
VDB01198
p4245
sS'b066d9a42d13'
p4246
VDB01905
p4247
sS'8bc143743b04'
p4248
VDB05479
p4249
sS'8d0b6e022cdf'
p4250
VDB07173
p4251
sS'3c475d5ddebd'
p4252
VDB07139
p4253
sS'ce42fe7bd479'
p4254
VDB02611
p4255
sS'71c77f2f3748'
p4256
VDB11731
p4257
sS'8116d097d026'
p4258
VDB08687
p4259
sS'6a63a2f24f94'
p4260
VDB07193
p4261
sS'9a29d15fd6d0'
p4262
VDB04275
p4263
sS'e6df02b63a5f'
p4264
VDB02715
p4265
sS'857921c8f065'
p4266
VDB07501
p4267
sS'60cb157e1e89'
p4268
VDB02931
p4269
sS'bae13f2d9a61'
p4270
VDB07537
p4271
sS'466c8a138553'
p4272
VDB07320
p4273
sS'e67575dff804'
p4274
VDB08400
p4275
sS'0b080596f100'
p4276
VDB03907
p4277
sS'0c83afa23783'
p4278
VDB08387
p4279
sS'7f965e84ceda'
p4280
VDB03213
p4281
sS'8ad3d506681b'
p4282
VDB01075
p4283
sS'8a81dd297a8a'
p4284
VDB08478
p4285
sS'56c06349d6c2'
p4286
VDB08765
p4287
sS'61fa66ac0054'
p4288
VDB00846
p4289
sS'79e2018d241d'
p4290
VDB07410
p4291
sS'52a663f21541'
p4292
VDB01939
p4293
sS'446566143d2e'
p4294
VDB02855
p4295
sS'40b8c6bec2df'
p4296
VDB07423
p4297
sS'a4285e06d4de'
p4298
VDB04933
p4299
sS'cf6d5d13bee8'
p4300
VDB03125
p4301
sS'46d403199c6f'
p4302
VDB00673
p4303
sS'019d3a142b34'
p4304
VDB02661
p4305
sS'8431fc1312a6'
p4306
VDB08134
p4307
sS'216707d3be7d'
p4308
VDB03186
p4309
sS'932664ea709f'
p4310
VDB08561
p4311
sS'14e0ed41aeb1'
p4312
VDB00159
p4313
sS'fc4719d21e7e'
p4314
VDB08055
p4315
sS'57ae655734a2'
p4316
VDB09039
p4317
sS'7b7f59225289'
p4318
VDB02266
p4319
sS'30bd3302a629'
p4320
VDB02509
p4321
sS'4b4dd9ec13b3'
p4322
VDB00254
p4323
sS'6934de6379cd'
p4324
VDB00624
p4325
sS'a0d886feba86'
p4326
VDB07686
p4327
sS'0f62cc71792b'
p4328
VDB07202
p4329
sS'37a3575efbc5'
p4330
VDB12695
p4331
sS'8451b513c78a'
p4332
VDB08778
p4333
sS'9a6b9ce5dd4d'
p4334
VDB01438
p4335
sS'50c9c5a87637'
p4336
VDB05478
p4337
sS'1942ccdb0cb2'
p4338
VDB02709
p4339
sS'23e581bd65ab'
p4340
VDB01087
p4341
sS'87ea37471642'
p4342
VDB02723
p4343
sS'adf745d8559f'
p4344
VDB03996
p4345
sS'79cf140c38cf'
p4346
VDB03115
p4347
sS'bbf01bb55ffd'
p4348
VDB00812
p4349
sS'f079b5862bec'
p4350
VDB08507
p4351
sS'9325f4a5ded4'
p4352
VDB00014
p4353
sS'fa64a102ed89'
p4354
VDB07154
p4355
sS'7fbe7caab5fe'
p4356
VDB07079
p4357
sS'86510bf21aef'
p4358
VDB00227
p4359
sS'7ced806ee1b8'
p4360
VDB03781
p4361
sS'08d94baf3ed4'
p4362
VDB09130
p4363
sS'9beb81aa102a'
p4364
VDB04967
p4365
sS'1e97730f73d1'
p4366
VDB08489
p4367
sS'8d3bdf76d1b7'
p4368
VDB11737
p4369
sS'436630bac847'
p4370
VDB01021
p4371
sS'328473419a23'
p4372
VDB09194
p4373
sS'd867ab4d4b17'
p4374
VDB06976
p4375
sS'2ba30f3b2ca2'
p4376
VDB01219
p4377
sS'c50751a1f1c1'
p4378
VDB02310
p4379
sS'733fe446939c'
p4380
VDB07257
p4381
sS'431f8240a4b7'
p4382
VDB05234
p4383
sS'44df48dd0504'
p4384
VDB00695
p4385
sS'e194019d7b0a'
p4386
VDB01613
p4387
sS'e9a0acc30abb'
p4388
VDB08392
p4389
sS'c10a67efe5f2'
p4390
VDB00373
p4391
sS'5401fcde3120'
p4392
VDB03003
p4393
sS'534e51b75b67'
p4394
VDB04276
p4395
sS'd3eca07dc090'
p4396
VDB04787
p4397
sS'4bbbc8e16bd6'
p4398
VDB08463
p4399
sS'601972c83a68'
p4400
VDB11979
p4401
sS'c2bf5e494d95'
p4402
VDB05434
p4403
sS'40f7299b35da'
p4404
VDB03121
p4405
sS'179764b6e006'
p4406
VDB04426
p4407
sS'16ccd9a4f4a1'
p4408
VDB08093
p4409
sS'23cca7d22b68'
p4410
VDB04016
p4411
sS'e2c7780d495f'
p4412
VDB00230
p4413
sS'56b4ac11e6f3'
p4414
VDB02562
p4415
sS'd592342df233'
p4416
VDB07406
p4417
sS'39c0d658f1cd'
p4418
VDB01844
p4419
sS'794cb94b204c'
p4420
VDB08674
p4421
sS'8c5d9d780fb6'
p4422
VDB07562
p4423
sS'94ffe533a815'
p4424
VDB01970
p4425
sS'422521c2059d'
p4426
VDB07025
p4427
sS'ef6c42742264'
p4428
VDB08651
p4429
sS'85f6c45eca53'
p4430
VDB03615
p4431
sS'f41f1bd32c38'
p4432
VDB00192
p4433
sS'0a4060cc468d'
p4434
VDB02108
p4435
sS'3b3923a61039'
p4436
VDB03311
p4437
sS'6aa40a37939d'
p4438
VDB00583
p4439
sS'945d553caf82'
p4440
VDB07841
p4441
sS'd943f7284100'
p4442
VDB07853
p4443
sS'77c4e4255abf'
p4444
VDB08538
p4445
sS'f1010a938d7d'
p4446
VDB03081
p4447
sS'b64b68ecc7ab'
p4448
VDB07221
p4449
sS'57d294ee318c'
p4450
VDB01226
p4451
sS'92c08a5e4d34'
p4452
VDB03628
p4453
sS'bddcecaef607'
p4454
VDB00987
p4455
sS'5de131de5a16'
p4456
VDB00491
p4457
sS'bc1a33a2cabd'
p4458
VDB07872
p4459
sS'f7b589a68a02'
p4460
VDB00836
p4461
sS'fa5ac7e60be0'
p4462
VDB07558
p4463
sS'e090ef8b22da'
p4464
VDB01180
p4465
sS'f9ac4c6ab62c'
p4466
VDB07991
p4467
sS'0212ccec635f'
p4468
VDB07105
p4469
sS'bc849ace47ca'
p4470
VDB02472
p4471
sS'c20b0b6485ad'
p4472
VDB07977
p4473
sS'98f833414530'
p4474
VDB12693
p4475
sS'eeab6d4189c9'
p4476
VDB05381
p4477
sS'11de5c380211'
p4478
VDB01220
p4479
sS'6635d818b484'
p4480
VDB07482
p4481
sS'464e35dc3c41'
p4482
VDB02685
p4483
sS'fab1795ff013'
p4484
VDB05039
p4485
sS'6cc247f6686e'
p4486
VDB00586
p4487
sS'64e2b01633fd'
p4488
VDB04530
p4489
sS'8c3521f64977'
p4490
VDB07629
p4491
sS'025a50230c70'
p4492
VDB03341
p4493
sS'6cda75d93a2e'
p4494
VDB08658
p4495
sS'ff427f1a87f9'
p4496
VDB00704
p4497
sS'7e7047e5b624'
p4498
VDB08113
p4499
sS'ae2c720775ee'
p4500
VDB01571
p4501
sS'0996b49af35b'
p4502
VDB00864
p4503
sS'67c54448e5e9'
p4504
VDB01454
p4505
sS'9edbca32ebe3'
p4506
VDB04059
p4507
sS'574ddfa4b64f'
p4508
VDB02103
p4509
sS'9ecc4eb0d842'
p4510
VDB09300
p4511
sS'29970f7b67c9'
p4512
VDB01931
p4513
sS'a7b3fcbfe352'
p4514
VDB07750
p4515
sS'89ceca2a36c1'
p4516
VDB07829
p4517
sS'fe9fb1c471c3'
p4518
VDB02360
p4519
sS'0f96ae027809'
p4520
VDB01327
p4521
sS'539073868d2d'
p4522
VDB07615
p4523
sS'833fe3925755'
p4524
VDB01835
p4525
sS'd68f6ec63002'
p4526
VDB08285
p4527
sS'cccba82ad85d'
p4528
VDB00351
p4529
sS'b9a55efed747'
p4530
VDB05796
p4531
sS'7c56fe515238'
p4532
VDB00273
p4533
sS'8be68d6fa0a6'
p4534
VDB08486
p4535
sS'7d01a9de09c9'
p4536
VDB12483
p4537
sS'6ec8b2088140'
p4538
VDB07619
p4539
sS'24b4b14582de'
p4540
VDB04156
p4541
sS'2282de595e13'
p4542
VDB07104
p4543
sS'e61eb428f36b'
p4544
VDB02067
p4545
sS'68744dabfd6a'
p4546
VDB00936
p4547
sS'5749a53ba55e'
p4548
VDB01208
p4549
sS'5ac459502d4c'
p4550
VDB13874
p4551
sS'47099e863483'
p4552
VDB02466
p4553
sS'9ca3093ec30a'
p4554
VDB08461
p4555
sS'c3b98c3a4a05'
p4556
VDB00892
p4557
sS'f550d08beba9'
p4558
VDB08690
p4559
sS'8bd985b4c753'
p4560
VDB04476
p4561
sS'af44ca7ab5d8'
p4562
VDB08802
p4563
sS'19c3d434d4bc'
p4564
VDB01191
p4565
sS'7b2e7e2c48d1'
p4566
VDB08677
p4567
sS'3531a2d03e01'
p4568
VDB06887
p4569
sS'3d9467b5fdd1'
p4570
VDB00635
p4571
sS'cb747ba88a25'
p4572
VDB02049
p4573
sS'fb50f83a4e03'
p4574
VDB01579
p4575
sS'd4dd01b5bb0a'
p4576
VDB08030
p4577
sS'439ea324aefd'
p4578
VDB08814
p4579
sS'0f3ef2c20728'
p4580
VDB04014
p4581
sS'8a78c667fefd'
p4582
VDB04847
p4583
sS'ee2b68ffc7d3'
p4584
VDB08321
p4585
sS'fadd588b17c9'
p4586
VDB08449
p4587
sS'bdfad8ac2714'
p4588
VDB02329
p4589
sS'49c797ffa6ee'
p4590
VDB04643
p4591
sS'fb1afd3d49d6'
p4592
VDB03443
p4593
sS'0eb378be4b3f'
p4594
VDB08450
p4595
sS'7ca62b484744'
p4596
VDB01569
p4597
sS'5b3a6c4b1e6c'
p4598
VDB02311
p4599
sS'aaf65160d77d'
p4600
VDB06898
p4601
sS'dee2dad18ad8'
p4602
VDB08168
p4603
sS'a34bf7f79fb7'
p4604
VDB03480
p4605
sS'31b343ebb42e'
p4606
VDB00953
p4607
sS'5cd09dbfba51'
p4608
VDB01831
p4609
sS'c0c51ee74350'
p4610
VDB02610
p4611
sS'4c70b2291a72'
p4612
VDB08531
p4613
sS'16614a1915e2'
p4614
VDB00320
p4615
sS'4a37c297c16d'
p4616
VDB08443
p4617
sS'6c3b959faf4e'
p4618
VDB07263
p4619
sS'8848fd546335'
p4620
VDB07754
p4621
sS'2955e1f2edda'
p4622
VDB07535
p4623
sS'3c6d1a2dc919'
p4624
VDB04477
p4625
sS'b77a1db097c5'
p4626
VDB13164
p4627
sS'4b9676820c70'
p4628
VDB08137
p4629
sS'75c7a0063686'
p4630
VDB04397
p4631
sS'42cd1787a98e'
p4632
VDB00623
p4633
sS'e9dca7a6bafd'
p4634
VDB07480
p4635
sS'7a6670b8c939'
p4636
VDB02845
p4637
sS'8c462cfd9495'
p4638
VDB00129
p4639
sS'f6acab95dacd'
p4640
VDB13003
p4641
sS'52f0b78c838a'
p4642
VDB00659
p4643
sS'fabeabf8ad42'
p4644
VDB04714
p4645
sS'fa5746177dfd'
p4646
VDB09477
p4647
sS'e6dbef8094ea'
p4648
VDB07286
p4649
sS'4768f6e5ed88'
p4650
VDB03351
p4651
sS'a318cfb67aeb'
p4652
VDB02420
p4653
sS'b51f1af426f6'
p4654
VDB00523
p4655
sS'2844a0f83811'
p4656
VDB01209
p4657
sS'fe89a0f825b1'
p4658
VDB07081
p4659
sS'6dce403172c3'
p4660
VDB02541
p4661
sS'3dacee618d7c'
p4662
VDB03814
p4663
sS'5883919662ad'
p4664
VDB00246
p4665
sS'a87d2cbd6f08'
p4666
VDB03957
p4667
sS'1e2f591bfe72'
p4668
VDB01022
p4669
sS'5d3d1c9eefb7'
p4670
VDB00243
p4671
sS'8c25793bb8de'
p4672
VDB00769
p4673
sS'7d3d094d2d3f'
p4674
VDB02159
p4675
sS'6f119ae7225b'
p4676
VDB04057
p4677
sS'b0cef1a0b21b'
p4678
VDB03026
p4679
sS'6a5da0a96d50'
p4680
VDB06288
p4681
sS'df1b015c3f96'
p4682
VDB01761
p4683
sS'b17d0563adb0'
p4684
VDB05383
p4685
sS'73bdea04cdfd'
p4686
VDB06875
p4687
sS'23192c1b61de'
p4688
VDB00203
p4689
sS'e38ba068010e'
p4690
VDB04311
p4691
sS'062120df4658'
p4692
VDB00264
p4693
sS'7616abb403ce'
p4694
VDB08195
p4695
sS'934078b5d323'
p4696
VDB00275
p4697
sS'c4006cccb84a'
p4698
VDB02640
p4699
sS'e38074858a8b'
p4700
VDB08348
p4701
sS'f5948bcd5b25'
p4702
VDB01656
p4703
sS'8b5da5d60b6b'
p4704
VDB08611
p4705
sS'fca31596607c'
p4706
VDB05129
p4707
sS'3b5f802f1bca'
p4708
VDB00157
p4709
sS'3f1cb0a1608a'
p4710
VDB01267
p4711
sS'd63dbde6adcd'
p4712
VDB07712
p4713
sS'810dde56ec02'
p4714
VDB02388
p4715
sS'8750c53ca553'
p4716
VDB02359
p4717
sS'd23d67872d75'
p4718
VDB04727
p4719
sS'7573cc35b78a'
p4720
VDB07763
p4721
sS'fcbae25f8558'
p4722
VDB07477
p4723
sS'edc59a353df5'
p4724
VDB01748
p4725
sS'46bf5447117e'
p4726
VDB03958
p4727
sS'3df00ba50af2'
p4728
VDB00527
p4729
sS'5fe99530a0b6'
p4730
VDB04363
p4731
sS'2cc6fd69d726'
p4732
VDB01165
p4733
sS'8f1e6a1972c1'
p4734
VDB07224
p4735
sS'e416a3804dec'
p4736
VDB00882
p4737
sS'7723ac4b068e'
p4738
VDB08864
p4739
sS'84c6c77a490c'
p4740
VDB00483
p4741
sS'6ddc892ad30b'
p4742
VDB02320
p4743
sS'3be0e3018736'
p4744
VDB01436
p4745
sS'e5230c34d0b1'
p4746
VDB09091
p4747
sS'fe0945856c14'
p4748
VDB08172
p4749
sS'47da377636d0'
p4750
VDB07116
p4751
sS'a672bb569bb2'
p4752
VDB08241
p4753
sS'856162d78630'
p4754
VDB07930
p4755
sS'd8f847885d4e'
p4756
VDB06964
p4757
sS'846fbe054335'
p4758
VDB02187
p4759
sS'2b2a5e1c60cd'
p4760
VDB01558
p4761
sS'02b27373070f'
p4762
VDB07544
p4763
sS'492bab3a4fca'
p4764
VDB04951
p4765
sS'fc85b6f8d46d'
p4766
VDB11577
p4767
sS'504398e7fcbb'
p4768
VDB08091
p4769
sS'471eaf82a892'
p4770
VDB08352
p4771
sS'6c66c3a0dd15'
p4772
VDB08691
p4773
sS'59cd342440fb'
p4774
VDB07403
p4775
sS'479602aa8f82'
p4776
VDB00114
p4777
sS'9d36c0487f27'
p4778
VDB00823
p4779
sS'2eef76af67eb'
p4780
VDB00399
p4781
sS'db2bbf596b95'
p4782
VDB08402
p4783
sS'016b4ab66e49'
p4784
VDB03670
p4785
sS'97ca6ec4632b'
p4786
VDB06894
p4787
sS'3c02321a4478'
p4788
VDB03512
p4789
sS'afd6ad118b8a'
p4790
VDB02105
p4791
sS'ecc1236bdc6d'
p4792
VDB06865
p4793
sS'600a151d252d'
p4794
VDB08046
p4795
sS'7f82f2cf315d'
p4796
VDB08045
p4797
sS'382a7eea106a'
p4798
VDB02859
p4799
sS'9bbc89360cd4'
p4800
VDB01842
p4801
sS'f70e0f107cbc'
p4802
VDB01186
p4803
sS'09d214ba2e52'
p4804
VDB00599
p4805
sS'c189afe5cd32'
p4806
VDB03740
p4807
sS'15d205d363ef'
p4808
VDB05339
p4809
sS'300933eb7592'
p4810
VDB01880
p4811
sS'77a285e4181f'
p4812
VDB07860
p4813
sS'5e670ad8154d'
p4814
VDB01860
p4815
sS'f3dfb6ee6f04'
p4816
VDB00245
p4817
sS'f8da1d9a65ae'
p4818
VDB09241
p4819
sS'b7e113f3e124'
p4820
VDB09201
p4821
sS'bec2abea2527'
p4822
VDB04931
p4823
sS'c37131313ed4'
p4824
VDB03597
p4825
sS'96378a15a121'
p4826
VDB01106
p4827
sS'b99a4fdd2d0e'
p4828
VDB01686
p4829
sS'255e1d554896'
p4830
VDB01580
p4831
sS'333e3ec0fb3a'
p4832
VDB01151
p4833
sS'e49b6788ab09'
p4834
VDB01005
p4835
sS'1240ec0b920d'
p4836
VDB01019
p4837
sS'71ca0e1f259a'
p4838
VDB09074
p4839
sS'8fc3b15abbef'
p4840
VDB07459
p4841
sS'28d5f01a54be'
p4842
VDB03319
p4843
sS'f16b296d5787'
p4844
VDB07657
p4845
sS'774c0c8474de'
p4846
VDB01681
p4847
sS'8a8a2cb5e514'
p4848
VDB00869
p4849
sS'83deeb07cd4e'
p4850
VDB00986
p4851
sS'eddc71bc9069'
p4852
VDB04214
p4853
sS'eced9de2edad'
p4854
VDB01442
p4855
sS'9d066e61b77e'
p4856
VDB07011
p4857
sS'0f3dade32b6c'
p4858
VDB01013
p4859
sS'186e6db52e35'
p4860
VDB06844
p4861
sS'99e2b8d532ad'
p4862
VDB00469
p4863
sS'019b1e7d6676'
p4864
VDB06909
p4865
sS'6ae7a7fbb1f8'
p4866
VDB04960
p4867
sS'78e9711bb86e'
p4868
VDB02371
p4869
sS'0123aab8218b'
p4870
VDB00318
p4871
sS'6d09545d3282'
p4872
VDB00234
p4873
sS'0e30fbc0d550'
p4874
VDB03608
p4875
sS'8887a236904c'
p4876
VDB07064
p4877
sS'a2358364e02c'
p4878
VDB02057
p4879
sS'949a595cba71'
p4880
VDB01156
p4881
sS'4b9b38333c54'
p4882
VDB01772
p4883
sS'60dcc657353a'
p4884
VDB05460
p4885
sS'a2b7ebac5f5d'
p4886
VDB00178
p4887
sS'aef1f757d75e'
p4888
VDB08123
p4889
sS'64cca3c2fbcd'
p4890
VDB02494
p4891
sS'dc298902a524'
p4892
VDB08676
p4893
sS'52c6e1f1a0fd'
p4894
VDB07734
p4895
sS'9060fbd167f6'
p4896
VDB02518
p4897
sS'fb301c098062'
p4898
VDB13166
p4899
sS'24a0f6ca11d9'
p4900
VDB11614
p4901
sS'b745cc1b4280'
p4902
VDB06595
p4903
sS'd09df844b321'
p4904
VDB06936
p4905
sS'270e3e311200'
p4906
VDB07094
p4907
sS'8ec961d4e5a1'
p4908
VDB02422
p4909
sS'86b115a3f3c0'
p4910
VDB00481
p4911
sS'e8d754c1b3c6'
p4912
VDB08179
p4913
sS'4812795f71a1'
p4914
VDB08784
p4915
sS'c353faa2592a'
p4916
VDB08346
p4917
sS'8e7fe55c1009'
p4918
VDB01031
p4919
sS'896a5457324e'
p4920
VDB11793
p4921
sS'1f5a44fff63b'
p4922
VDB07995
p4923
sS'0ac69589c224'
p4924
VDB05087
p4925
sS'0052b0b8e418'
p4926
VDB00557
p4927
sS'06234e0b041a'
p4928
VDB01014
p4929
sS'409316b05cc2'
p4930
VDB07889
p4931
sS'5540602093e7'
p4932
VDB01645
p4933
sS'b9a232106e53'
p4934
VDB03095
p4935
sS'cc5a17ff0f68'
p4936
VDB13167
p4937
sS'e2e2a8418d62'
p4938
VDB06900
p4939
sS'914e5deba87f'
p4940
VDB08035
p4941
sS'769b467114d1'
p4942
VDB06948
p4943
sS'6cbd6d030d7b'
p4944
VDB02762
p4945
sS'cf1d76a5f582'
p4946
VDB00540
p4947
sS'b39f6b110efa'
p4948
VDB01614
p4949
sS'ab84ec27c8cc'
p4950
VDB00347
p4951
sS'1347b38fd11d'
p4952
VDB00991
p4953
sS'2c3f13537b6f'
p4954
VDB01549
p4955
sS'73534a447b9f'
p4956
VDB07377
p4957
sS'397b90f0fe5e'
p4958
VDB01017
p4959
sS'e012cdb1466f'
p4960
VDB04690
p4961
sS'01d0fd71acb6'
p4962
VDB07601
p4963
sS'4dea3897bf25'
p4964
VDB00909
p4965
sS'6a945bd2fc32'
p4966
VDB00465
p4967
sS'636d42e9f20e'
p4968
VDB04760
p4969
sS'947556af129b'
p4970
VDB00176
p4971
sS'139db47895cf'
p4972
VDB00824
p4973
sS'a1b0341f91d5'
p4974
VDB12334
p4975
sS'67f9ac1cc0ce'
p4976
VDB07585
p4977
sS'21da72ae76d0'
p4978
VDB04204
p4979
sS'969df07b0c3c'
p4980
VDB08697
p4981
sS'82fef12a2fe9'
p4982
VDB07786
p4983
sS'62c19042a709'
p4984
VDB06855
p4985
sS'3dfe79eecc75'
p4986
VDB00154
p4987
sS'e12c611b6245'
p4988
VDB00683
p4989
sS'ad0028908134'
p4990
VDB01239
p4991
sS'f6985668f1a5'
p4992
VDB06939
p4993
sS'fd826abd0640'
p4994
VDB01902
p4995
sS'e482e6f7c4a3'
p4996
VDB07124
p4997
sS'f6268623ad31'
p4998
VDB08257
p4999
sS'18ca5396be73'
p5000
VDB02210
p5001
sS'463034606234'
p5002
VDB00493
p5003
sS'b7d5455f3fe8'
p5004
VDB03499
p5005
sS'12ba7c598585'
p5006
VDB01820
p5007
sS'fdc902ce3c01'
p5008
VDB02774
p5009
sS'3593175cdd32'
p5010
VDB01242
p5011
sS'30ec8aded970'
p5012
VDB02007
p5013
sS'f64316b89dfc'
p5014
VDB00262
p5015
sS'3e0093a0ff6d'
p5016
VDB04680
p5017
sS'c85a52833442'
p5018
VDB04424
p5019
sS'0e882d2f90b9'
p5020
VDB05038
p5021
sS'5afd5a248a50'
p5022
VDB04141
p5023
sS'7f0352bc118c'
p5024
VDB08527
p5025
sS'a4372979f7d2'
p5026
VDB00798
p5027
sS'd80e33d781ee'
p5028
VDB07457
p5029
sS'fb8b8b78e92e'
p5030
VDB06774
p5031
sS'c0ab5e7b1539'
p5032
VDB03041
p5033
sS'5921a05459f1'
p5034
VDB03428
p5035
sS'a8e49776019a'
p5036
VDB08303
p5037
sS'c68765d35e35'
p5038
VDB08174
p5039
sS'eae56b9d421e'
p5040
VDB06266
p5041
sS'ab9cefe2cfd2'
p5042
VDB05022
p5043
sS'5b850ba5e3d5'
p5044
VDB02162
p5045
sS'1aef02575bf4'
p5046
VDB02045
p5047
sS'46ef717e3001'
p5048
VDB07802
p5049
sS'd571d044952a'
p5050
VDB01283
p5051
sS'156e37f27f9e'
p5052
VDB03784
p5053
sS'd140e47a48e5'
p5054
VDB07607
p5055
sS'440f670206ee'
p5056
VDB03623
p5057
sS'e05aec476425'
p5058
VDB11093
p5059
sS'fd68b5c62407'
p5060
VDB07068
p5061
sS'365ea9f7f9ab'
p5062
VDB08694
p5063
sS'dd617b5579e1'
p5064
VDB13014
p5065
sS'bb01d0c0ea00'
p5066
VDB06061
p5067
sS'9807445ef99e'
p5068
VDB00772
p5069
sS'c4d46235ad6a'
p5070
VDB04352
p5071
sS'4901bcb0377a'
p5072
VDB02148
p5073
sS'bc791255f3e7'
p5074
VDB01183
p5075
sS'c58f2a916b7f'
p5076
VDB08660
p5077
sS'5c10f6a3dc89'
p5078
VDB05737
p5079
sS'16f399bcba92'
p5080
VDB02016
p5081
sS'9ef0647eedc0'
p5082
VDB01589
p5083
sS'4e28e1091639'
p5084
VDB05944
p5085
sS'8158315b71e2'
p5086
VDB03963
p5087
sS'd20c308f0980'
p5088
VDB08781
p5089
sS'8a12f6f8940c'
p5090
VDB07110
p5091
sS'e38e35590944'
p5092
VDB07921
p5093
sS'9c3ab6a63627'
p5094
VDB03110
p5095
sS'1dc0fd5ee82e'
p5096
VDB00721
p5097
sS'ee3052c359eb'
p5098
VDB07111
p5099
sS'160d2cb37282'
p5100
VDB02391
p5101
sS'd062c2a47af7'
p5102
VDB05413
p5103
sS'0f99722833d7'
p5104
VDB00978
p5105
sS'1bda133ce1e5'
p5106
VDB07336
p5107
sS'3368519a269c'
p5108
VDB02226
p5109
sS'af2410a61173'
p5110
VDB08388
p5111
sS'8abc3d9ee8c6'
p5112
VDB04172
p5113
sS'e5cac00b2df9'
p5114
VDB09460
p5115
sS'8e4a5b924db7'
p5116
VDB03240
p5117
sS'849045444099'
p5118
VDB07317
p5119
sS'65976ea86f0d'
p5120
VDB00982
p5121
sS'c482eeb2e459'
p5122
VDB03731
p5123
sS'3aadcc27139d'
p5124
VDB07145
p5125
sS'5d9bb00e79bd'
p5126
VDB00959
p5127
sS'474171407c9e'
p5128
VDB00777
p5129
sS'6e38ba7cb482'
p5130
VDB07205
p5131
sS'b71a522585a7'
p5132
VDB00720
p5133
sS'5a1957afd325'
p5134
VDB02271
p5135
sS'966bcd01e836'
p5136
VDB03754
p5137
sS'4ac820165979'
p5138
VDB08363
p5139
sS'af35b398abb5'
p5140
VDB01765
p5141
sS'4a37b4c48e37'
p5142
VDB01483
p5143
sS'b5611ed147c9'
p5144
VDB04125
p5145
sS'5c25a7d4f84d'
p5146
VDB08546
p5147
sS'eec7ab0d5a08'
p5148
VDB07844
p5149
sS'0dbf786d171e'
p5150
VDB00233
p5151
sS'b76bd789fc10'
p5152
VDB01213
p5153
sS'979ec037c802'
p5154
VDB07789
p5155
sS'1e512399ec75'
p5156
VDB09167
p5157
sS'35ba3761a447'
p5158
VDB07633
p5159
sS'a1cfc96ee502'
p5160
VDB04246
p5161
sS'050e010cba33'
p5162
VDB00536
p5163
sS'f7a8e92fc63b'
p5164
VDB07277
p5165
sS'ef14433ff7ea'
p5166
VDB11811
p5167
sS'92f8131e14dd'
p5168
VDB04389
p5169
sS'bb5c177043c0'
p5170
VDB04237
p5171
sS'9a7ad996e5a7'
p5172
VDB04451
p5173
sS'efd66634a537'
p5174
VDB07206
p5175
sS'20f748d1d780'
p5176
VDB00197
p5177
sS'0f04d59a36bb'
p5178
VDB08334
p5179
sS'2a304cf1c49c'
p5180
VDB07647
p5181
sS'699da0d6ca83'
p5182
VDB08615
p5183
sS'7cea2b9b3f6e'
p5184
VDB01023
p5185
sS'422c57c1e159'
p5186
VDB01028
p5187
sS'52d6925e50b1'
p5188
VDB04326
p5189
sS'b12d7f3b3ce6'
p5190
VDB01206
p5191
sS'c3b1bd3e922c'
p5192
VDB08092
p5193
sS'f45b6246b3ef'
p5194
VDB09330
p5195
sS'ec9955b8663e'
p5196
VDB08426
p5197
sS'b712b77700d6'
p5198
VDB02784
p5199
sS'298874cca30c'
p5200
VDB01125
p5201
sS'ed132348433b'
p5202
VDB01819
p5203
sS'193624923a4c'
p5204
VDB03962
p5205
sS'6ec4919073a7'
p5206
VDB06918
p5207
sS'73c73f99870d'
p5208
VDB04975
p5209
sS'e5a299685125'
p5210
VDB00914
p5211
sS'1a697b8e8b13'
p5212
VDB07260
p5213
sS'ad576f361b85'
p5214
VDB02900
p5215
sS'3ac13287ea50'
p5216
VDB08807
p5217
sS'c1fff2353076'
p5218
VDB08522
p5219
sS'bae0e29dc233'
p5220
VDB07294
p5221
sS'aab1fd95e721'
p5222
VDB01403
p5223
sS'e9164c98d957'
p5224
VDB01827
p5225
sS'8af85f3c10d2'
p5226
VDB01944
p5227
sS'4ac2d5a9198d'
p5228
VDB03286
p5229
sS'f71928ad1e2f'
p5230
VDB08848
p5231
sS'ae75c4293192'
p5232
VDB08437
p5233
sS'f1807463255e'
p5234
VDB04601
p5235
sS'e414ffbc6699'
p5236
VDB04739
p5237
sS'5cc1075ae77e'
p5238
VDB07364
p5239
sS'fdaab37ad923'
p5240
VDB07233
p5241
sS'b40519951235'
p5242
VDB07974
p5243
sS'c0dba6d856bd'
p5244
VDB01124
p5245
sS'1c21ecb45d78'
p5246
VDB01036
p5247
sS'39d2f821e3e0'
p5248
VDB01199
p5249
sS'302ead21cb95'
p5250
VDB06972
p5251
sS'18d596c396cd'
p5252
VDB04615
p5253
sS'00950cd94658'
p5254
VDB02659
p5255
sS'3e38460881e6'
p5256
VDB07180
p5257
sS'1bac01a28b65'
p5258
VDB07691
p5259
sS'50c2453f5668'
p5260
VDB08283
p5261
sS'05e18d2bcdac'
p5262
VDB02705
p5263
sS'a19954ffc2fa'
p5264
VDB11560
p5265
sS'76f55fd3ae3c'
p5266
VDB00925
p5267
sS'69887544ee11'
p5268
VDB06908
p5269
sS'2f5c89fb57ec'
p5270
VDB03399
p5271
sS'302971181198'
p5272
VDB06782
p5273
sS'9f9f1465e9fe'
p5274
VDB12731
p5275
sS'721ebdeadf4e'
p5276
VDB08249
p5277
sS'8559f3453579'
p5278
VDB07121
p5279
sS'ff886887ccaf'
p5280
VDB04012
p5281
sS'8e5677b8a0fc'
p5282
VDB03226
p5283
sS'f6ee4dc4ae30'
p5284
VDB01812
p5285
sS'ac3386a814a2'
p5286
VDB07509
p5287
sS'127a6b7be5d6'
p5288
VDB08746
p5289
sS'f1b33f72f935'
p5290
VDB07584
p5291
sS'12a001bc0671'
p5292
VDB07583
p5293
sS'8d775198feed'
p5294
VDB02519
p5295
sS'94cfbd772f39'
p5296
VDB01411
p5297
sS'df0d994afeb9'
p5298
VDB08082
p5299
sS'32f7d967dd48'
p5300
VDB01039
p5301
sS'81fafb191ee6'
p5302
VDB04677
p5303
sS'557d7024e2c3'
p5304
VDB08057
p5305
sS'b3e9e6eac005'
p5306
VDB04068
p5307
sS'3e98f7a46948'
p5308
VDB02207
p5309
sS'9492d5ae4502'
p5310
VDB04662
p5311
sS'e913e2933335'
p5312
VDB02297
p5313
sS'bf89d7842dcb'
p5314
VDB00690
p5315
sS'883d3dc3a569'
p5316
VDB00116
p5317
sS'9f1eed133f28'
p5318
VDB01248
p5319
sS'6ad6287a35ce'
p5320
VDB08305
p5321
sS'ed638edd574b'
p5322
VDB03882
p5323
sS'e027d836c590'
p5324
VDB02547
p5325
sS'c394d74d5e98'
p5326
VDB00495
p5327
sS'835139c85b65'
p5328
VDB07521
p5329
sS'df5798b303cf'
p5330
VDB02379
p5331
sS'2963f2a83ae3'
p5332
VDB03504
p5333
sS'20f4170cb5b8'
p5334
VDB03639
p5335
sS'9a2f9549b4fb'
p5336
VDB06691
p5337
sS'80f6033aa75b'
p5338
VDB07353
p5339
sS'487114bedabb'
p5340
VDB00790
p5341
sS'c4a2c2899c97'
p5342
VDB07504
p5343
sS'7945943698ef'
p5344
VDB05003
p5345
sS'61317fe0a178'
p5346
VDB02570
p5347
sS'4f3aa2777608'
p5348
VDB03742
p5349
sS'df68b9e0ab51'
p5350
VDB03345
p5351
sS'4db71614edf7'
p5352
VDB06861
p5353
sS'7556ece00991'
p5354
VDB00422
p5355
sS'110f4635ffe5'
p5356
VDB01972
p5357
sS'332acae60b66'
p5358
VDB00900
p5359
sS'f5086f515ff9'
p5360
VDB02805
p5361
sS'c82e98c05eb4'
p5362
VDB03793
p5363
sS'180db1471a86'
p5364
VDB00764
p5365
sS'13ff1108f4f2'
p5366
VDB08672
p5367
sS'e5e24c794531'
p5368
VDB01347
p5369
sS'682c5a59feef'
p5370
VDB07073
p5371
sS'25b0346fdae2'
p5372
VDB01253
p5373
sS'd7d04a94c47f'
p5374
VDB07467
p5375
sS'58cbbd98b933'
p5376
VDB01667
p5377
sS'6cc3fb1e7ba8'
p5378
VDB08293
p5379
sS'fe3d2a205f04'
p5380
VDB07987
p5381
sS'a5b6aba1eb2c'
p5382
VDB13783
p5383
sS'22e023986216'
p5384
VDB09151
p5385
sS'9a4a4d79977d'
p5386
VDB03101
p5387
sS'a9befd69b67b'
p5388
VDB02585
p5389
sS'2ba9fbb9979a'
p5390
VDB03187
p5391
sS'7b180deed567'
p5392
VDB03832
p5393
sS'ec8e09195f1f'
p5394
VDB08358
p5395
sS'0e94886e3a15'
p5396
VDB02269
p5397
sS'a807c517f274'
p5398
VDB07579
p5399
sS'864f83d0c233'
p5400
VDB00181
p5401
sS'649bc2f7faf3'
p5402
VDB12267
p5403
sS'ee6e7ac4be14'
p5404
VDB03732
p5405
sS'6f73f333c63f'
p5406
VDB07361
p5407
sS'dd8fb167ed67'
p5408
VDB00668
p5409
sS'5865a7ff1f4a'
p5410
VDB00171
p5411
sS'180e2e2f6d5a'
p5412
VDB00928
p5413
sS'a1b13d7395d7'
p5414
VDB00202
p5415
sS'8010aaee5545'
p5416
VDB07344
p5417
sS'ede4337eaf24'
p5418
VDB03600
p5419
sS'2cebd9f3ffc4'
p5420
VDB06933
p5421
sS'2c0cd3941169'
p5422
VDB08927
p5423
sS'1d63ce921631'
p5424
VDB03035
p5425
sS'707a291195e3'
p5426
VDB00997
p5427
sS'f644518e67e8'
p5428
VDB00685
p5429
sS'b05b02c47982'
p5430
VDB02755
p5431
sS'257605d13ed3'
p5432
VDB03899
p5433
sS'db79901817db'
p5434
VDB05035
p5435
sS'7621798067f5'
p5436
VDB00602
p5437
sS'511693fe22f8'
p5438
VDB08044
p5439
sS'b51a29f7b1e5'
p5440
VDB07117
p5441
sS'5a74fec15db1'
p5442
VDB00723
p5443
sS'151c1bd6a07e'
p5444
VDB08442
p5445
sS'6675760a3746'
p5446
VDB04544
p5447
sS'ede814b21a27'
p5448
VDB07163
p5449
sS'3d1835a0660b'
p5450
VDB01437
p5451
sS'16773435d8b4'
p5452
VDB01689
p5453
sS'6d441075a4ec'
p5454
VDB00907
p5455
sS'87983592ef51'
p5456
VDB00838
p5457
sS'e59b6cdf2dd3'
p5458
VDB00383
p5459
sS'61c1308e3bb3'
p5460
VDB07837
p5461
sS'f71a8cc03f67'
p5462
VDB07936
p5463
sS'153e640bea8a'
p5464
VDB07495
p5465
sS'c1d8b0104b5e'
p5466
VDB01073
p5467
sS'6648cd674950'
p5468
VDB01018
p5469
sS'be8f53de2877'
p5470
VDB00865
p5471
sS'f4b44cbfd92a'
p5472
VDB03719
p5473
sS'c25b635d8ce7'
p5474
VDB03703
p5475
sS'1386c71e05be'
p5476
VDB00737
p5477
sS'8e7501a2770f'
p5478
VDB07643
p5479
sS'a9d18cd1d19e'
p5480
VDB00807
p5481
sS'c15f32ca4a2b'
p5482
VDB06877
p5483
sS'61ec73c5ec41'
p5484
VDB04751
p5485
sS'88946e37b0f8'
p5486
VDB09202
p5487
sS'7e1a8e9234ff'
p5488
VDB03980
p5489
sS'abc236421979'
p5490
VDB08703
p5491
sS'ca4b5c660cf9'
p5492
VDB04709
p5493
sS'49b79739c051'
p5494
VDB07801
p5495
sS'3076d4c8d0b8'
p5496
VDB03058
p5497
sS'ee22af84036f'
p5498
VDB07940
p5499
sS'a49110f77a22'
p5500
VDB00226
p5501
sS'1b619eea320c'
p5502
VDB07723
p5503
sS'751bd1aef503'
p5504
VDB06616
p5505
sS'40bf915dd365'
p5506
VDB02568
p5507
sS'11c559b82742'
p5508
VDB08800
p5509
sS'27a0675289df'
p5510
VDB01204
p5511
sS'47e230458588'
p5512
VDB04270
p5513
sS'b119ad2a96dd'
p5514
VDB06603
p5515
sS'bc3ae72adc3f'
p5516
VDB01159
p5517
sS'7c1ba2d58916'
p5518
VDB00749
p5519
sS'c38909d7a4c3'
p5520
VDB07345
p5521
sS'afab1d2819a9'
p5522
VDB02955
p5523
sS'45026a45e183'
p5524
VDB01032
p5525
sS'a3f63d2942d5'
p5526
VDB07046
p5527
sS'145014e4720a'
p5528
VDB00946
p5529
sS'963ecd1bbf15'
p5530
VDB03221
p5531
sS'05d68e61dc60'
p5532
VDB07340
p5533
sS'1d2b918b74e4'
p5534
VDB04381
p5535
sS'4dbb8dfbdd6d'
p5536
VDB05482
p5537
sS'a92f3d7f9ee4'
p5538
VDB02386
p5539
sS'a267a9008462'
p5540
VDB00722
p5541
sS'e3614382f050'
p5542
VDB06982
p5543
sS'd39a7203b250'
p5544
VDB08391
p5545
sS'e0de521889a4'
p5546
VDB11817
p5547
sS'48abe0610ea6'
p5548
VDB11219
p5549
sS'389475f26226'
p5550
VDB02062
p5551
sS'21bacbf771db'
p5552
VDB00524
p5553
sS'01bbc42d2099'
p5554
VDB03137
p5555
sS'8a879c5ac403'
p5556
VDB01055
p5557
sS'39e3401821f3'
p5558
VDB09069
p5559
sS'2e24a3ba344e'
p5560
VDB08429
p5561
sS'75e50e97e0da'
p5562
VDB02144
p5563
sS'197464425f6d'
p5564
VDB07249
p5565
sS'f3c72570a587'
p5566
VDB07087
p5567
sS'c6846416889d'
p5568
VDB03900
p5569
sS'b6ccb192ff96'
p5570
VDB02078
p5571
sS'7f24ac2dba5f'
p5572
VDB06699
p5573
sS'fe5946aca0e2'
p5574
VDB01780
p5575
sS'1c1938150e84'
p5576
VDB04793
p5577
sS'186793f863b6'
p5578
VDB11363
p5579
sS'8e531a16af83'
p5580
VDB03695
p5581
sS'5afd82b34d28'
p5582
VDB02435
p5583
sS'eb78d7191101'
p5584
VDB07832
p5585
sS'a97c96387a07'
p5586
VDB00630
p5587
sS'5c204240d14c'
p5588
VDB07028
p5589
sS'311b673571e3'
p5590
VDB04715
p5591
sS'f172db92e467'
p5592
VDB04957
p5593
sS'fbfc992f4706'
p5594
VDB02988
p5595
sS'685f756b674b'
p5596
VDB08768
p5597
sS'590c7d119032'
p5598
VDB08828
p5599
sS'36cfb1abd69a'
p5600
VDB00139
p5601
sS'579ef7f4dc7a'
p5602
VDB01807
p5603
sS'27f2c2708c5d'
p5604
VDB03491
p5605
sS'2ecb36e28b04'
p5606
VDB01644
p5607
sS'70d170ff8563'
p5608
VDB07708
p5609
sS'fba38038282d'
p5610
VDB12328
p5611
sS'036d4e1e0ab9'
p5612
VDB12228
p5613
sS'b7637cf036df'
p5614
VDB02656
p5615
sS'781d1ed7a08b'
p5616
VDB09552
p5617
sS'eb139f9d7539'
p5618
VDB00810
p5619
sS'3844f2a92d63'
p5620
VDB07895
p5621
sS'bc33afd21531'
p5622
VDB02448
p5623
sS'125fb002a034'
p5624
VDB00134
p5625
sS'a457aea4a081'
p5626
VDB00767
p5627
sS'86c96027ecd8'
p5628
VDB02833
p5629
sS'da7e7eac3d61'
p5630
VDB07760
p5631
sS'6f88c7cdcaea'
p5632
VDB03466
p5633
sS'5990b7ac4105'
p5634
VDB07312
p5635
sS'36eda09543fd'
p5636
VDB06282
p5637
sS'd50d16b0f7a2'
p5638
VDB00918
p5639
sS'819c809b0931'
p5640
VDB04203
p5641
sS'40aeae18ac7e'
p5642
VDB06706
p5643
sS'e517fe3c4ccb'
p5644
VDB00641
p5645
sS'ecba1971f334'
p5646
VDB00279
p5647
sS'1775669324e7'
p5648
VDB02580
p5649
sS'6d01085603b8'
p5650
VDB06986
p5651
sS'206aec4dedf0'
p5652
VDB08838
p5653
sS'ec62a8657c5c'
p5654
VDB01373
p5655
sS'7951d7754d46'
p5656
VDB08060
p5657
sS'c696e4988ce6'
p5658
VDB07358
p5659
sS'02b348b3123e'
p5660
VDB02942
p5661
sS'0bea1e66c175'
p5662
VDB01785
p5663
sS'8f32a6f80704'
p5664
VDB01933
p5665
sS'a66043ac9c9b'
p5666
VDB05295
p5667
sS'23b570fd74ea'
p5668
VDB01624
p5669
sS'f02b112143de'
p5670
VDB06954
p5671
sS'415e34cd29a1'
p5672
VDB01097
p5673
sS'6d16daae90ba'
p5674
VDB12442
p5675
sS'7c3c9b334cbe'
p5676
VDB00995
p5677
sS'2cc9bdb0cadc'
p5678
VDB04238
p5679
sS'8550cef383d8'
p5680
VDB06857
p5681
sS'1b058c9627de'
p5682
VDB02757
p5683
sS'9087a9a4cf89'
p5684
VDB07225
p5685
sS'2fe7d1995215'
p5686
VDB01081
p5687
sS'35b11bd1194a'
p5688
VDB01429
p5689
sS'77ab567bd5cc'
p5690
VDB00960
p5691
sS'bfd1d1992091'
p5692
VDB00748
p5693
sS'9d882786e1f7'
p5694
VDB07638
p5695
sS'253df98c0321'
p5696
VDB02449
p5697
sS'0d660985d090'
p5698
VDB04618
p5699
sS'42a618da6663'
p5700
VDB00740
p5701
sS'b18b972df68f'
p5702
VDB09118
p5703
sS'da628a75712d'
p5704
VDB00232
p5705
sS'9bd46257d70e'
p5706
VDB06831
p5707
sS'39819907ce63'
p5708
VDB00117
p5709
sS'5de79029fc93'
p5710
VDB02300
p5711
sS'f8e1e5a86883'
p5712
VDB01297
p5713
sS'4102b64e84b6'
p5714
VDB02306
p5715
sS'03100af6afbd'
p5716
VDB07016
p5717
sS'1e103900409a'
p5718
VDB03008
p5719
sS'17a277246d6a'
p5720
VDB08513
p5721
sS'075ce5f60260'
p5722
VDB00462
p5723
sS'f8981b4a8c9f'
p5724
VDB02073
p5725
sS'11f0521575a2'
p5726
VDB00994
p5727
sS'f09f2dbf3874'
p5728
VDB00645
p5729
sS'1070b297eef5'
p5730
VDB00457
p5731
sS'db60292c2084'
p5732
VDB01647
p5733
sS'64cb19ce1ef1'
p5734
VDB02665
p5735
sS'68d9324477f7'
p5736
VDB08533
p5737
sS'bc626f18543b'
p5738
VDB04351
p5739
sS'4432b776c962'
p5740
VDB01946
p5741
sS'1d050edb61ec'
p5742
VDB04334
p5743
sS'9857321078cd'
p5744
VDB08453
p5745
sS'37dc23fc8f9b'
p5746
VDB07390
p5747
sS'823fc3ce4a9d'
p5748
VDB07529
p5749
sS'cf9cd4a52fe1'
p5750
VDB11937
p5751
sS'af639ef2d4cc'
p5752
VDB04197
p5753
sS'9d6632b9e256'
p5754
VDB01214
p5755
sS'f74125b00f74'
p5756
VDB00612
p5757
sS'6ffe293ce2b4'
p5758
VDB04273
p5759
sS'3620e4da8f26'
p5760
VDB01600
p5761
sS'ab0169cdd49f'
p5762
VDB00629
p5763
sS'c63b807238f9'
p5764
VDB08068
p5765
sS'ff6b204ebda3'
p5766
VDB02152
p5767
sS'9e63a8f26e14'
p5768
VDB00694
p5769
sS'bd76f487c23c'
p5770
VDB01431
p5771
sS'01f40f13f9ec'
p5772
VDB03918
p5773
sS'8373d5be6983'
p5774
VDB06470
p5775
sS'd713e15daa0d'
p5776
VDB01348
p5777
sS'c3da38f9df51'
p5778
VDB13179
p5779
sS'074ccbaa1120'
p5780
VDB00184
p5781
sS'c62e684fc2b2'
p5782
VDB09086
p5783
sS'b6540e2462c5'
p5784
VDB02473
p5785
sS'0f032f9dd924'
p5786
VDB08066
p5787
sS'85e0cbab3c75'
p5788
VDB08021
p5789
sS'338dc723fe70'
p5790
VDB01132
p5791
sS'7e01dd7e8dd6'
p5792
VDB04860
p5793
sS'357a8492ee5d'
p5794
VDB08214
p5795
sS'd9103461daa0'
p5796
VDB07175
p5797
sS'ce8355c801f4'
p5798
VDB01750
p5799
sS'802e786447d3'
p5800
VDB04674
p5801
sS'50b7527a603f'
p5802
VDB04377
p5803
sS'96580ac89df4'
p5804
VDB01823
p5805
sS'f86e9e7ecb80'
p5806
VDB08441
p5807
sS'1d01bf304389'
p5808
VDB07771
p5809
sS'e456371b6512'
p5810
VDB01767
p5811
sS'1fd6ff326cb3'
p5812
VDB07437
p5813
sS'5bc6c392cd2a'
p5814
VDB08465
p5815
sS'ca39953c2cb7'
p5816
VDB04367
p5817
sS'de838a5563b3'
p5818
VDB03928
p5819
sS'bef14e3f74db'
p5820
VDB00868
p5821
sS'dce399f3bf93'
p5822
VDB01158
p5823
sS'd582e08e16e1'
p5824
VDB07922
p5825
sS'5ffe010d80a8'
p5826
VDB00775
p5827
sS'0e29eec62ed4'
p5828
VDB00185
p5829
sS'574063529364'
p5830
VDB08330
p5831
sS'fa47255716d0'
p5832
VDB01717
p5833
sS'd1448544f583'
p5834
VDB03696
p5835
sS'552f8984d5e0'
p5836
VDB07369
p5837
sS'98b9438563b7'
p5838
VDB00193
p5839
sS'10814711877b'
p5840
VDB05423
p5841
sS'ddd50c2766a0'
p5842
VDB00315
p5843
sS'b459b8bb0cf1'
p5844
VDB04559
p5845
sS'51310efb53d1'
p5846
VDB07908
p5847
sS'3a10a9d61eeb'
p5848
VDB07772
p5849
sS'0528a6e47b8d'
p5850
VDB01698
p5851
sS'3f2aee470d09'
p5852
VDB02004
p5853
sS'd7470212d867'
p5854
VDB08479
p5855
sS'bb6e6a1fa088'
p5856
VDB04681
p5857
sS'828c03c96b18'
p5858
VDB04753
p5859
sS'a4d15a9ea80e'
p5860
VDB04215
p5861
sS'ff4d850c33d6'
p5862
VDB09280
p5863
sS'cc3a9735cccf'
p5864
VDB02919
p5865
sS'4d3f8b7566d8'
p5866
VDB00093
p5867
sS'9bdc51f4a926'
p5868
VDB01583
p5869
sS'68c5c906ba23'
p5870
VDB00401
p5871
sS'dd5c5e34ab3c'
p5872
VDB07061
p5873
sS'70db7b6d628d'
p5874
VDB06083
p5875
sS'40f5cc4283c3'
p5876
VDB08088
p5877
sS'4be5075178d3'
p5878
VDB08089
p5879
sS'0ba302df4d55'
p5880
VDB03429
p5881
sS'd627b7bd36de'
p5882
VDB02471
p5883
sS'9f5ad99db94e'
p5884
VDB00310
p5885
sS'6f2ab3f63b92'
p5886
VDB03531
p5887
sS'609de82454b1'
p5888
VDB01184
p5889
sS'dc0882132571'
p5890
VDB08880
p5891
sS'f285d51db9bd'
p5892
VDB01380
p5893
sS'79714cdeeee2'
p5894
VDB08515
p5895
sS'83466651dbad'
p5896
VDB00858
p5897
sS'498d08362ffc'
p5898
VDB07981
p5899
sS'a0fae50fd2b1'
p5900
VDB07229
p5901
sS'00591f7caa67'
p5902
VDB07009
p5903
sS'd998f5cc9d96'
p5904
VDB00408
p5905
sS'bbe15ab14d20'
p5906
VDB01338
p5907
sS'768c5195b22a'
p5908
VDB00333
p5909
sS'fc61ce31859d'
p5910
VDB08655
p5911
sS'bb11d5565f85'
p5912
VDB00831
p5913
sS'ebe9f34d328d'
p5914
VDB08583
p5915
sS'bf88dda7d384'
p5916
VDB05541
p5917
sS'2ec7954fb3e2'
p5918
VDB02860
p5919
sS'4c60d8242531'
p5920
VDB02498
p5921
sS'f946e867bd84'
p5922
VDB02895
p5923
sS'53f6301a4ca4'
p5924
VDB08466
p5925
sS'43c2aded4daf'
p5926
VDB07833
p5927
sS'606bc148df40'
p5928
VDB09265
p5929
sS'0bb6e15d6d60'
p5930
VDB07903
p5931
sS'77429190b75a'
p5932
VDB00205
p5933
sS'5b3500ab93a5'
p5934
VDB04759
p5935
sS'685118836f6c'
p5936
VDB08224
p5937
sS'e397aab1e7f9'
p5938
VDB04094
p5939
sS'5ba7267b5a55'
p5940
VDB03693
p5941
sS'adae8b1cbf57'
p5942
VDB07737
p5943
sS'b2ad652dc644'
p5944
VDB02282
p5945
sS'add4ca839698'
p5946
VDB07849
p5947
sS'4d78588a4edf'
p5948
VDB08313
p5949
sS'0490456284f5'
p5950
VDB08584
p5951
sS'd322feebbf21'
p5952
VDB01422
p5953
sS'1163c87a6dfe'
p5954
VDB00854
p5955
sS'75b8a4483b72'
p5956
VDB08231
p5957
sS'a869583fb839'
p5958
VDB04903
p5959
sS'f027c29c0c6e'
p5960
VDB07366
p5961
sS'b8b98d20f15b'
p5962
VDB08009
p5963
sS'c2bba9750ffa'
p5964
VDB07396
p5965
sS'84ed8f058ec7'
p5966
VDB04767
p5967
sS'2e5e5e4a11a6'
p5968
VDB05492
p5969
sS'29a474ca1a6d'
p5970
VDB00903
p5971
sS'eb7fd23360c9'
p5972
VDB07616
p5973
sS'c0b2006c7d77'
p5974
VDB02598
p5975
sS'6d9bd3f7d637'
p5976
VDB08500
p5977
sS'33fde037a6c2'
p5978
VDB02773
p5979
sS'54557a25e5a3'
p5980
VDB08827
p5981
sS'f2230de7cec6'
p5982
VDB00285
p5983
sS'63c27c54e48e'
p5984
VDB01588
p5985
sS'df0ed67240de'
p5986
VDB00591
p5987
sS'328e5403035b'
p5988
VDB02929
p5989
sS'cef783220fa6'
p5990
VDB02761
p5991
sS'e5955f2a1a4c'
p5992
VDB11421
p5993
sS'548fcafe24ca'
p5994
VDB04069
p5995
sS'63161e9fcde8'
p5996
VDB08219
p5997
sS'd705afef047e'
p5998
VDB07223
p5999
sS'4c0d5753cfc4'
p6000
VDB07360
p6001
sS'27dae4683c5f'
p6002
VDB07931
p6003
sS'37b95a77aca3'
p6004
VDB03214
p6005
sS'a6a656fea51a'
p6006
VDB01977
p6007
sS'a84fad2c7489'
p6008
VDB08774
p6009
sS'e9d4e2195133'
p6010
VDB04573
p6011
sS'0d173d8ad4ec'
p6012
VDB08493
p6013
sS'c7cb5642d701'
p6014
VDB07741
p6015
sS'6740864546b0'
p6016
VDB03374
p6017
sS'59111920e5c9'
p6018
VDB01078
p6019
sS'27109211fa5a'
p6020
VDB00935
p6021
sS'fd50ecc9a6df'
p6022
VDB02813
p6023
sS'3ab964a57133'
p6024
VDB00368
p6025
sS'c678f89bfb1d'
p6026
VDB08699
p6027
sS'b20ba52d2ccf'
p6028
VDB02741
p6029
sS'9e05e13a37b1'
p6030
VDB08995
p6031
sS'24fd3ab7e092'
p6032
VDB04445
p6033
sS'e98f9e2901b2'
p6034
VDB02901
p6035
sS'86e8dd3b3243'
p6036
VDB06203
p6037
sS'baeefe961d6b'
p6038
VDB00403
p6039
sS'64c063c23e94'
p6040
VDB06751
p6041
sS'643cfc4d7ec7'
p6042
VDB00546
p6043
sS'11852a345a1c'
p6044
VDB02014
p6045
sS'5df12944a4f6'
p6046
VDB07323
p6047
sS'c190dd140014'
p6048
VDB06663
p6049
sS'aa4a0805a27a'
p6050
VDB08560
p6051
sS'7ea86167ac33'
p6052
VDB00160
p6053
sS'56b9b1b1430d'
p6054
VDB07710
p6055
sS'f9dc3e33a06c'
p6056
VDB08384
p6057
sS'00920e9e5054'
p6058
VDB02336
p6059
sS'd6f73dd696d8'
p6060
VDB07811
p6061
sS'e7f6046998f2'
p6062
VDB00123
p6063
sS'be9f560be1b0'
p6064
VDB09149
p6065
sS'1273c088186a'
p6066
VDB07093
p6067
sS'e829d51040c0'
p6068
VDB02583
p6069
sS'70273311e31e'
p6070
VDB00657
p6071
sS'6c34550860d6'
p6072
VDB05289
p6073
sS'13c2084043e9'
p6074
VDB00153
p6075
sS'6d7a069f1364'
p6076
VDB00531
p6077
sS'e757aaa8baf0'
p6078
VDB08047
p6079
sS'4671b3e35702'
p6080
VDB04001
p6081
sS'75b18b83aee9'
p6082
VDB01288
p6083
sS'2a7770c2dcf9'
p6084
VDB08931
p6085
sS'3dfc304209f1'
p6086
VDB04825
p6087
sS'f21759b21494'
p6088
VDB02395
p6089
sS'fe0b0d83bfeb'
p6090
VDB07231
p6091
sS'c677a1f7d9f5'
p6092
VDB01296
p6093
sS'c027b3f1a440'
p6094
VDB01378
p6095
sS'37c5f0b826c4'
p6096
VDB01541
p6097
sS'04f7538f58cd'
p6098
VDB07714
p6099
sS'f3255a4ecc9b'
p6100
VDB03346
p6101
sS'e2f6c2df2d1b'
p6102
VDB07038
p6103
sS'2a563ab7c476'
p6104
VDB12458
p6105
sS'fa3cca760fc0'
p6106
VDB07906
p6107
sS'c8de1bd752b3'
p6108
VDB00648
p6109
sS'1505859bf8e8'
p6110
VDB08897
p6111
sS'01bb188a0347'
p6112
VDB01071
p6113
sS'114c9e9738cc'
p6114
VDB08136
p6115
sS'dc3af419651d'
p6116
VDB04563
p6117
sS'02802529ab10'
p6118
VDB04724
p6119
sS'edd5190fa6fc'
p6120
VDB00908
p6121
sS'a07d2cf46e1b'
p6122
VDB04682
p6123
sS'525f189e2a5e'
p6124
VDB07219
p6125
sS'ae65971819fc'
p6126
VDB02189
p6127
sS'19525303ce70'
p6128
VDB01712
p6129
sS'd4e3e3c80670'
p6130
VDB05812
p6131
sS'dee329207ec4'
p6132
VDB00716
p6133
sS'b5a9b6422d24'
p6134
VDB08040
p6135
sS'3a331aa0c3fb'
p6136
VDB00522
p6137
sS'8077fc873e87'
p6138
VDB08133
p6139
sS'afb807380677'
p6140
VDB00146
p6141
sS'4a8b61b511ad'
p6142
VDB03133
p6143
sS'3f28efb49312'
p6144
VDB06262
p6145
sS'20239947e05f'
p6146
VDB04478
p6147
sS'122d2691643c'
p6148
VDB04021
p6149
sS'8edb2586db2a'
p6150
VDB01010
p6151
sS'833c9706e162'
p6152
VDB03554
p6153
sS'42b7168b80c5'
p6154
VDB00829
p6155
sS'ec356d984369'
p6156
VDB00221
p6157
sS'3bf31f6fee03'
p6158
VDB05232
p6159
sS'5f7ddbe2d804'
p6160
VDB04180
p6161
sS'40f22ae96803'
p6162
VDB04797
p6163
sS'cea0753b1d0f'
p6164
VDB00511
p6165
sS'dab30fcc4ea7'
p6166
VDB06882
p6167
sS'8c7d4d56d102'
p6168
VDB07002
p6169
sS'844b775edb34'
p6170
VDB05630
p6171
sS'5f18bdd90b49'
p6172
VDB01033
p6173
sS'b1d7638a3b9b'
p6174
VDB09112
p6175
sS'05932da5d31c'
p6176
VDB01630
p6177
sS'd06ee87b42e5'
p6178
VDB07316
p6179
sS'ec58396de3b3'
p6180
VDB03737
p6181
sS'992b046f0157'
p6182
VDB08815
p6183
sS'992912598e6e'
p6184
VDB01962
p6185
sS'56a419240f7d'
p6186
VDB03981
p6187
sS'18e9f9ece8fb'
p6188
VDB01567
p6189
sS'b8013749186c'
p6190
VDB03006
p6191
sS'7fcfd7283e51'
p6192
VDB03956
p6193
sS'93ff173d9c23'
p6194
VDB09143
p6195
sS'f8211c4b005a'
p6196
VDB07595
p6197
sS'68c91e14331c'
p6198
VDB03677
p6199
sS'd55cccf47d2c'
p6200
VDB06917
p6201
sS'0187d2dbb558'
p6202
VDB02633
p6203
sS'aa85650ae055'
p6204
VDB01095
p6205
sS'fa9218d17e6c'
p6206
VDB03044
p6207
sS'd0a35c328c8d'
p6208
VDB00680
p6209
sS'163a5558e41a'
p6210
VDB09213
p6211
sS'b3eea4aba6cc'
p6212
VDB08159
p6213
sS'3b51e0212db2'
p6214
VDB06694
p6215
sS'26d5958192c9'
p6216
VDB00813
p6217
sS'a2c10a44ac37'
p6218
VDB03397
p6219
sS'cc7dab9b2873'
p6220
VDB07376
p6221
sS'bbb14b2c2b65'
p6222
VDB01228
p6223
sS'15040ee30969'
p6224
VDB00940
p6225
sS'71f4d08f6888'
p6226
VDB02255
p6227
sS'ca3a360c3fdd'
p6228
VDB09220
p6229
sS'b82bd3c9d04e'
p6230
VDB04285
p6231
sS'ee32396ae949'
p6232
VDB00933
p6233
sS'b5216b661fb2'
p6234
VDB00450
p6235
sS'58fd29f10bec'
p6236
VDB05298
p6237
sS'f128239322bf'
p6238
VDB06850
p6239
sS'f8904ed24a08'
p6240
VDB00552
p6241
sS'710bcc6a1378'
p6242
VDB02803
p6243
sS'58cdcf87c54f'
p6244
VDB07675
p6245
sS'2bbc362fb05a'
p6246
VDB01370
p6247
sS'fea0fededc1e'
p6248
VDB08435
p6249
sS'c7dbdc930f78'
p6250
VDB02052
p6251
sS'8dab46103c3d'
p6252
VDB04868
p6253
sS'33ad6a8a9532'
p6254
VDB03273
p6255
sS'b2b84fcd466e'
p6256
VDB07769
p6257
sS'35d006f79fe8'
p6258
VDB01948
p6259
sS'872bede0451c'
p6260
VDB07431
p6261
sS'ee9f44db3b45'
p6262
VDB00195
p6263
sS'3e4319596efc'
p6264
VDB05015
p6265
sS'36330cef693b'
p6266
VDB04846
p6267
sS'f50110854178'
p6268
VDB03932
p6269
sS'ca14bf30fdbc'
p6270
VDB07486
p6271
sS'4387a8402b62'
p6272
VDB07757
p6273
sS'700bae65dc7d'
p6274
VDB03889
p6275
sS'b762adc60404'
p6276
VDB04083
p6277
sS'93a86b8dcdc9'
p6278
VDB03017
p6279
sS'a1927e47dfd6'
p6280
VDB07216
p6281
sS'b8910ced399b'
p6282
VDB00294
p6283
sS'15a9c092c431'
p6284
VDB07302
p6285
sS'5c241e6c282a'
p6286
VDB06739
p6287
sS'ba1ca1a70271'
p6288
VDB07072
p6289
sS'e224292f71ba'
p6290
VDB01439
p6291
sS'6bc605528c76'
p6292
VDB01352
p6293
sS'6acbaaf44b02'
p6294
VDB00945
p6295
sS'4da9f0364329'
p6296
VDB01076
p6297
sS'5a9dd6182b88'
p6298
VDB08751
p6299
sS'80c441237cc7'
p6300
VDB12340
p6301
sS'61a171f1e2e9'
p6302
VDB01260
p6303
sS'f2690a1e94d4'
p6304
VDB06836
p6305
sS'7bd38bfd9ba8'
p6306
VDB02376
p6307
sS'7e6d6c33eb6f'
p6308
VDB01400
p6309
sS'1d7c893fb49f'
p6310
VDB03365
p6311
sS'b094aac3c51c'
p6312
VDB04783
p6313
sS'6f8c4a3953a6'
p6314
VDB08024
p6315
sS'47310a5cf614'
p6316
VDB04065
p6317
sS'93b8b755a3b8'
p6318
VDB07384
p6319
sS'271cfca7ff3d'
p6320
VDB00517
p6321
sS'd9ae90abdf8a'
p6322
VDB03005
p6323
sS'17903910cd4f'
p6324
VDB00789
p6325
sS'620d8c5824ea'
p6326
VDB01074
p6327
sS'7660679e8553'
p6328
VDB08779
p6329
sS'8e6a6cdd2be0'
p6330
VDB09026
p6331
sS'11f578f436c1'
p6332
VDB00394
p6333
sS'905b0c74a418'
p6334
VDB03317
p6335
sS'd746a3c76480'
p6336
VDB08750
p6337
sS'754395fab379'
p6338
VDB00715
p6339
sS'0fa7a330bc32'
p6340
VDB04396
p6341
sS'9539a409cfb7'
p6342
VDB00499
p6343
sS'11b2394c05f1'
p6344
VDB02058
p6345
sS'4c0302582e59'
p6346
VDB04493
p6347
sS'a4c65d94ff4a'
p6348
VDB01395
p6349
sS'5cdfc9379ea2'
p6350
VDB08675
p6351
sS'13dff1d25ab7'
p6352
VDB00806
p6353
sS'ef6bc8efec65'
p6354
VDB02405
p6355
sS'397e1b644b6a'
p6356
VDB11949
p6357
sS'efdc01af02c5'
p6358
VDB04801
p6359
sS'5ddb5b80e913'
p6360
VDB01955
p6361
sS'e83c8d48be44'
p6362
VDB08516
p6363
sS'543eeb021918'
p6364
VDB06859
p6365
sS'14206a1b4c45'
p6366
VDB07227
p6367
sS'9c0c4d4db772'
p6368
VDB03809
p6369
sS'186c002704a0'
p6370
VDB00477
p6371
sS'38fec9d9fe56'
p6372
VDB05458
p6373
sS'd7a2e706e974'
p6374
VDB03606
p6375
sS'ba15ca10ea75'
p6376
VDB02963
p6377
sS'c8831b702b18'
p6378
VDB00458
p6379
sS'44199f3dea19'
p6380
VDB00492
p6381
sS'ed17fd2032ac'
p6382
VDB00901
p6383
sS'72b1508ebd2f'
p6384
VDB08001
p6385
sS'6f7722befc0a'
p6386
VDB06866
p6387
sS'3997660db9c8'
p6388
VDB02812
p6389
sS'8ada89f909c9'
p6390
VDB03176
p6391
sS'd7d8348f064e'
p6392
VDB02101
p6393
sS'8948de055982'
p6394
VDB05416
p6395
sS'54f7e15d53d1'
p6396
VDB08003
p6397
sS'009a1885fce1'
p6398
VDB03552
p6399
sS'cc611b800b7c'
p6400
VDB01736
p6401
sS'f52325a12fec'
p6402
VDB08568
p6403
sS'f156be9750f7'
p6404
VDB07003
p6405
sS'46ec405bb95f'
p6406
VDB06892
p6407
sS'7f70921ce0bd'
p6408
VDB05814
p6409
sS'7ffe18db7e0a'
p6410
VDB02550
p6411
sS'fd1115104457'
p6412
VDB06777
p6413
sS'21127fec5f22'
p6414
VDB06880
p6415
sS'abb04692f746'
p6416
VDB08908
p6417
sS'bd760787f8af'
p6418
VDB00286
p6419
sS'aceeb44c7ae7'
p6420
VDB09120
p6421
sS'604adcd4b281'
p6422
VDB01611
p6423
sS'54da42e40ccb'
p6424
VDB02155
p6425
sS'470d183e8633'
p6426
VDB02479
p6427
sS'0b77257cd23d'
p6428
VDB01877
p6429
sS'334a2d77bb28'
p6430
VDB00653
p6431
sS'279e1b844dea'
p6432
VDB08097
p6433
sS'cc5ff27fc5a5'
p6434
VDB06795
p6435
sS'f0297d53740c'
p6436
VDB08482
p6437
sS'4b63613b6077'
p6438
VDB00217
p6439
sS'9ffa8b71eeee'
p6440
VDB03516
p6441
sS'3377789fd9a3'
p6442
VDB07330
p6443
sS'2aa563a9f37d'
p6444
VDB02393
p6445
sS'ddbd6ba50513'
p6446
VDB01144
p6447
sS'7853f7e89488'
p6448
VDB07454
p6449
sS'fefff5b18987'
p6450
VDB09166
p6451
sS'b8fff4123315'
p6452
VDB08607
p6453
sS'801b39162e66'
p6454
VDB02647
p6455
sS'1822d3b8ab6d'
p6456
VDB00175
p6457
sS'a5e403220f59'
p6458
VDB08395
p6459
sS'a122427219e7'
p6460
VDB08233
p6461
sS'f453e19f77cf'
p6462
VDB00741
p6463
sS'8f2509a80ed7'
p6464
VDB04525
p6465
sS'b4eecf5d9d53'
p6466
VDB08534
p6467
sS'0058231340db'
p6468
VDB00360
p6469
sS'ac8cfef20d38'
p6470
VDB03354
p6471
sS'c25585fae7bb'
p6472
VDB02183
p6473
sS'ff254fe0d2c9'
p6474
VDB03193
p6475
sS'9da34924f2db'
p6476
VDB00949
p6477
sS'c9528b601f0b'
p6478
VDB08232
p6479
sS'6fb3c348ca6a'
p6480
VDB07164
p6481
sS'4b5df829c87e'
p6482
VDB04469
p6483
sS'1eb91b1e40c5'
p6484
VDB07929
p6485
sS'b5adff27940e'
p6486
VDB07538
p6487
sS'8f3ee4771aa6'
p6488
VDB08844
p6489
sS'e035cf1b57f5'
p6490
VDB08070
p6491
sS'3b4c7795648a'
p6492
VDB02020
p6493
sS'd064f665f443'
p6494
VDB02994
p6495
sS'6653b2ea4dd3'
p6496
VDB01951
p6497
sS'6cbb4fa2a14c'
p6498
VDB08373
p6499
sS'fbb2ebf46385'
p6500
VDB07258
p6501
sS'0569a26be153'
p6502
VDB00424
p6503
sS'a339b4a2a58a'
p6504
VDB03850
p6505
sS'8a7deefc15de'
p6506
VDB03602
p6507
sS'e8eed9235754'
p6508
VDB09279
p6509
sS'10390236fffd'
p6510
VDB02260
p6511
sS'9de80a176c41'
p6512
VDB06828
p6513
sS'a4ec4b6d6922'
p6514
VDB02325
p6515
sS'864a86fb39be'
p6516
VDB04505
p6517
sS'5f1260ec6bdb'
p6518
VDB02292
p6519
sS'11c544278741'
p6520
VDB06579
p6521
sS'8b9ebbcc96dc'
p6522
VDB11132
p6523
sS'9c27fc358282'
p6524
VDB04144
p6525
sS'98b9c33b90b6'
p6526
VDB01211
p6527
sS'66ffb6d1f117'
p6528
VDB02299
p6529
sS'47e7953956db'
p6530
VDB01961
p6531
sS'1ea52877a625'
p6532
VDB06891
p6533
sS'5845bcbe7f0c'
p6534
VDB04600
p6535
sS'670d717f4ba6'
p6536
VDB01146
p6537
sS'54f298c1b399'
p6538
VDB12569
p6539
sS'c09f8c5d866f'
p6540
VDB01640
p6541
sS'04ab9b9ee086'
p6542
VDB04653
p6543
sS'203e92364bcf'
p6544
VDB01275
p6545
sS'a08d79996f40'
p6546
VDB07519
p6547
sS'21bacbd40bdf'
p6548
VDB06809
p6549
sS'edf44565e769'
p6550
VDB00670
p6551
sS'e7646550e476'
p6552
VDB04842
p6553
sS'ed8870fb3650'
p6554
VDB01738
p6555
sS'5d609898a51e'
p6556
VDB07076
p6557
sS'0b554365693b'
p6558
VDB06151
p6559
sS'abb2d709ab54'
p6560
VDB00476
p6561
sS'6e42753b81fb'
p6562
VDB07740
p6563
sS'0fe7bb2c1208'
p6564
VDB01007
p6565
sS'e15e3ee12ba2'
p6566
VDB00239
p6567
sS'061748b9b047'
p6568
VDB07626
p6569
sS'e7d942314849'
p6570
VDB07548
p6571
sS'db78cf4b02ad'
p6572
VDB04602
p6573
sS'9f0dc0530f79'
p6574
VDB07612
p6575
sS'50b1eb40435d'
p6576
VDB07272
p6577
sS'29eba8dfb1ee'
p6578
VDB11581
p6579
sS'330d648fb6d2'
p6580
VDB01959
p6581
sS'298c472c39e2'
p6582
VDB01273
p6583
sS'3e3909ea5218'
p6584
VDB08403
p6585
sS'45830a583e78'
p6586
VDB12001
p6587
sS'4ae37fb5c5c7'
p6588
VDB07096
p6589
sS'6ffb1f030bba'
p6590
VDB08597
p6591
sS'2818521c8271'
p6592
VDB04946
p6593
sS'8584b0f74300'
p6594
VDB03048
p6595
sS'7634812a925d'
p6596
VDB09119
p6597
sS'87e91c6577f6'
p6598
VDB08964
p6599
sS'526aa75e98d2'
p6600
VDB01861
p6601
sS'266de3f695f0'
p6602
VDB07159
p6603
sS'df6cc2fa078d'
p6604
VDB08846
p6605
sS'8e7cb19f34e0'
p6606
VDB02462
p6607
sS'00ac3cd1d8af'
p6608
VDB07362
p6609
sS'ff634343dbd2'
p6610
VDB00753
p6611
sS'403e74d3fdb0'
p6612
VDB02838
p6613
sS'2f649175ea27'
p6614
VDB02890
p6615
sS'a85bc3ffcf6d'
p6616
VDB02852
p6617
sS'035e821551ef'
p6618
VDB07017
p6619
sS'56bc2bee7afc'
p6620
VDB08423
p6621
sS'a6670cdd9aa0'
p6622
VDB06959
p6623
sS'a3f9acb84fa7'
p6624
VDB08464
p6625
sS'b0884b787d4a'
p6626
VDB00222
p6627
sS'431f44967fdb'
p6628
VDB08169
p6629
sS'64408fd1768f'
p6630
VDB08503
p6631
sS'66e94c6f7521'
p6632
VDB03010
p6633
sS'65d95e1b5f29'
p6634
VDB00851
p6635
sS'b99f36e120a6'
p6636
VDB01577
p6637
sS'7f4514355ee2'
p6638
VDB00898
p6639
sS'f876d350519c'
p6640
VDB03860
p6641
sS'c7e226dbbeee'
p6642
VDB07015
p6643
sS'2563295ce175'
p6644
VDB01224
p6645
sS'43c54ee909c4'
p6646
VDB01169
p6647
sS'4b996c4a2d4c'
p6648
VDB03326
p6649
sS'31096d412db9'
p6650
VDB03136
p6651
sS'6511d5d1b226'
p6652
VDB03729
p6653
sS'f62b55580a5a'
p6654
VDB11071
p6655
sS'10f1340a625d'
p6656
VDB04583
p6657
sS'76fc00a04bf9'
p6658
VDB02545
p6659
sS'efe0fb604797'
p6660
VDB00309
p6661
sS'41df414c9ae3'
p6662
VDB04851
p6663
sS'6d02b59ecfd2'
p6664
VDB06942
p6665
sS'24eecedae00c'
p6666
VDB05408
p6667
sS'eb2ee609a1b5'
p6668
VDB07168
p6669
sS'c4506b31bbe6'
p6670
VDB01086
p6671
sS'8c69939eb714'
p6672
VDB04209
p6673
sS'776e4c2eda98'
p6674
VDB07297
p6675
sS'dad21f48a940'
p6676
VDB00533
p6677
sS'e0ffbd517ed2'
p6678
VDB06851
p6679
sS'b232c498daba'
p6680
VDB09090
p6681
sS'a647cfdc892e'
p6682
VDB00182
p6683
sS'fa5085bc1a8d'
p6684
VDB11611
p6685
sS'd3994a59f0e4'
p6686
VDB06973
p6687
sS'f8f75dc0b427'
p6688
VDB08309
p6689
sS'bf64a75e993e'
p6690
VDB02419
p6691
sS'f004c0c18185'
p6692
VDB07857
p6693
sS'918436c574ff'
p6694
VDB07187
p6695
sS'581e8557bcc4'
p6696
VDB06202
p6697
sS'b185735faab2'
p6698
VDB08049
p6699
sS'b5e6fbf04eb1'
p6700
VDB04648
p6701
sS'6962950e0a5b'
p6702
VDB01221
p6703
sS'e973962131fa'
p6704
VDB07598
p6705
sS'0672bdfa9f51'
p6706
VDB04327
p6707
sS'9620f0d36d8a'
p6708
VDB07264
p6709
sS'3e9f5fae294e'
p6710
VDB00144
p6711
sS'54549c116159'
p6712
VDB08892
p6713
sS'02230d429397'
p6714
VDB00486
p6715
sS'4e1836c1b9d0'
p6716
VDB07678
p6717
sS'e93e84fe398a'
p6718
VDB04796
p6719
sS'ca8850281335'
p6720
VDB03616
p6721
sS'c52f014ece8c'
p6722
VDB00830
p6723
sS'e92f63678f9c'
p6724
VDB01089
p6725
sS'8402c9a34c3f'
p6726
VDB07593
p6727
sS'106d6508ff13'
p6728
VDB00821
p6729
sS'b1a4cb6768db'
p6730
VDB12651
p6731
sS'354f94e5d963'
p6732
VDB02381
p6733
sS'00fdc3d4f4ee'
p6734
VDB04917
p6735
sS'b3993c1a5db4'
p6736
VDB11674
p6737
sS'26db1d25ac7d'
p6738
VDB01628
p6739
sS'93064be72ed3'
p6740
VDB03132
p6741
sS'ae73d1d464cc'
p6742
VDB00237
p6743
sS'716a80567e6f'
p6744
VDB00686
p6745
sS'26b9507ee481'
p6746
VDB07236
p6747
sS'367a593e29be'
p6748
VDB03395
p6749
sS'72a28a2e9834'
p6750
VDB08521
p6751
sS'17a203e2e2a0'
p6752
VDB02556
p6753
sS'eee267b1351b'
p6754
VDB03088
p6755
sS'1d1e57ead594'
p6756
VDB00323
p6757
sS'7eeb40b382ac'
p6758
VDB02714
p6759
sS'0bacd313f41a'
p6760
VDB00282
p6761
sS'978a430fb9ee'
p6762
VDB00558
p6763
sS'503f406dda6a'
p6764
VDB00418
p6765
sS'ad568f19b8ed'
p6766
VDB02318
p6767
sS'c160b697bff9'
p6768
VDB01241
p6769
sS'41159f4cb363'
p6770
VDB07113
p6771
sS'5f5572138f28'
p6772
VDB02354
p6773
sS'1dcf77d1853e'
p6774
VDB03704
p6775
sS'76775ecb8178'
p6776
VDB01193
p6777
sS'0ed826ac2c37'
p6778
VDB04775
p6779
sS'b3a676f873d1'
p6780
VDB00897
p6781
sS'a74399f3211e'
p6782
VDB04866
p6783
sS'4bf9019f5336'
p6784
VDB04454
p6785
sS'a350252a5c84'
p6786
VDB04575
p6787
sS'021fc08c9506'
p6788
VDB00691
p6789
sS'b20437ea4012'
p6790
VDB00247
p6791
sS'b5626e3be456'
p6792
VDB01142
p6793
sS'71f5116c9dda'
p6794
VDB11781
p6795
sS'f7f883bcfbf6'
p6796
VDB07954
p6797
sS'c7fb67ed8e3f'
p6798
VDB04882
p6799
sS'6d4c5b083d24'
p6800
VDB00497
p6801
sS'9811b188a485'
p6802
VDB02563
p6803
sS'17bd96b4debc'
p6804
VDB01888
p6805
sS'a803c5d3afc5'
p6806
VDB00631
p6807
sS'3cadf8f1f09b'
p6808
VDB01252
p6809
sS'db463abba533'
p6810
VDB01866
p6811
sS'3e938fe4bd8c'
p6812
VDB07666
p6813
sS'4cb826e5ba11'
p6814
VDB03673
p6815
sS'fa1df079cce4'
p6816
VDB13025
p6817
sS'f0a52d85f278'
p6818
VDB02983
p6819
sS'18e6a0fe4033'
p6820
VDB08780
p6821
sS'0a31f09327ac'
p6822
VDB00341
p6823
sS'71ea10929387'
p6824
VDB08270
p6825
sS'2fb9f7f78cbf'
p6826
VDB00293
p6827
sS'3c687dbe20d7'
p6828
VDB07146
p6829
sS'40db7303b7ea'
p6830
VDB00376
p6831
sS'4ff373534d42'
p6832
VDB01811
p6833
sS'635247ad25a6'
p6834
VDB02326
p6835
sS'd0ea2568868b'
p6836
VDB00825
p6837
sS'da8d39035f88'
p6838
VDB07347
p6839
sS'7566bf953ae7'
p6840
VDB02427
p6841
sS'1af93636aa3e'
p6842
VDB04540
p6843
sS'9471812bedb3'
p6844
VDB04136
p6845
sS'576d68754262'
p6846
VDB06977
p6847
sS'e0757f9c56c6'
p6848
VDB00849
p6849
sS'd6e66c188afa'
p6850
VDB00167
p6851
sS'46881a2ee336'
p6852
VDB04954
p6853
sS'e77f3a451163'
p6854
VDB03950
p6855
sS'f5ac40b6fabb'
p6856
VDB07460
p6857
sS'1601bf76efe0'
p6858
VDB00866
p6859
sS'd1ac582981e2'
p6860
VDB01983
p6861
sS'c3f6794e70a3'
p6862
VDB01947
p6863
sS'a110e6d2c2df'
p6864
VDB07766
p6865
sS'742054b14191'
p6866
VDB03983
p6867
sS'f06c95cd0080'
p6868
VDB06940
p6869
sS'd0e4a01a6e93'
p6870
VDB04763
p6871
sS'b0427be87974'
p6872
VDB07876
p6873
sS'31c3eac953a7'
p6874
VDB05171
p6875
sS'7d34d957864f'
p6876
VDB04638
p6877
sS'a44903461a04'
p6878
VDB06969
p6879
sS'0bf690e0aac5'
p6880
VDB07189
p6881
sS'c529a26b36a7'
p6882
VDB01135
p6883
sS'e6f8c02536c9'
p6884
VDB07873
p6885
sS'c842e0e18e9d'
p6886
VDB07024
p6887
sS'adc2f1b5089f'
p6888
VDB07606
p6889
sS'4875e9fc7daa'
p6890
VDB04876
p6891
sS'9920443e7c07'
p6892
VDB00952
p6893
sS'36004446dc91'
p6894
VDB07830
p6895
sS'90b4fbc89e71'
p6896
VDB08340
p6897
sS'571f5d0f66fb'
p6898
VDB07863
p6899
sS'8bb2ce68edf8'
p6900
VDB00762
p6901
sS'5ad377c0c93d'
p6902
VDB07790
p6903
sS'2a9b33e97a7b'
p6904
VDB00006
p6905
sS'ddbd88d17b34'
p6906
VDB12379
p6907
sS'439452eb928f'
p6908
VDB00304
p6909
sS'74808745b63f'
p6910
VDB02551
p6911
sS'76c03840429a'
p6912
VDB02763
p6913
sS'b5a89eebc20a'
p6914
VDB03159
p6915
sS'12c70d0d2600'
p6916
VDB05403
p6917
sS'a3ada98347d5'
p6918
VDB06927
p6919
sS'26097127dea6'
p6920
VDB08632
p6921
sS'6b5aa758f423'
p6922
VDB05010
p6923
sS'a00130fafb54'
p6924
VDB06077
p6925
sS'5e4fcd623d3e'
p6926
VDB01246
p6927
sS'43a45c92c08b'
p6928
VDB03611
p6929
sS'6f9c5f0e0c39'
p6930
VDB04725
p6931
sS'dbd21ae02772'
p6932
VDB07151
p6933
sS'c0b38b02b286'
p6934
VDB01666
p6935
sS'0d8e7ad7f21e'
p6936
VDB07540
p6937
sS'1c4d02db9d4b'
p6938
VDB07660
p6939
sS'65b34dd8fdb5'
p6940
VDB07237
p6941
sS'cf253501141a'
p6942
VDB07020
p6943
sS'7f07d15d7886'
p6944
VDB05389
p6945
sS'c56767d23afa'
p6946
VDB07412
p6947
sS'f9a0765681e3'
p6948
VDB02728
p6949
sS'40b11b20a922'
p6950
VDB02407
p6951
sS'8f4bdcafbab1'
p6952
VDB04820
p6953
sS'6dc579d845a3'
p6954
VDB04407
p6955
sS'8e4a1323b368'
p6956
VDB00744
p6957
sS'eb3352d16759'
p6958
VDB00470
p6959
sS'aa3c1819be32'
p6960
VDB06216
p6961
sS'3888e521dd82'
p6962
VDB08801
p6963
sS'b6c9ced61b2f'
p6964
VDB02651
p6965
sS'5419b57e9dba'
p6966
VDB07787
p6967
sS'bbbbdaef1a00'
p6968
VDB03435
p6969
sS'360ccc700bb2'
p6970
VDB02054
p6971
sS'e6f4bac5615d'
p6972
VDB04608
p6973
sS'8ac753811e85'
p6974
VDB09123
p6975
sS'8097cea0eae5'
p6976
VDB04101
p6977
sS'c4e238b1ddf1'
p6978
VDB05399
p6979
sS'9a5162e8c396'
p6980
VDB03987
p6981
sS'658fefd3878c'
p6982
VDB04659
p6983
sS'fd66406f25e0'
p6984
VDB08643
p6985
sS'ff790ddb618d'
p6986
VDB07239
p6987
sS'a176670f5305'
p6988
VDB02288
p6989
sS'04a744e160d0'
p6990
VDB08292
p6991
sS'5c69fa7413b4'
p6992
VDB05018
p6993
sS'67161160f9d4'
p6994
VDB07075
p6995
sS'efe59d4145cd'
p6996
VDB03405
p6997
sS'b28d8aeda19c'
p6998
VDB00926
p6999
sS'7750097675e5'
p7000
VDB00543
p7001
sS'f94a2f72cb01'
p7002
VDB00850
p7003
sS'2d78a1b8cc90'
p7004
VDB02772
p7005
sS'84eae7d3fcad'
p7006
VDB04948
p7007
sS'dc44ac8e2c2c'
p7008
VDB03955
p7009
sS'45eea1887cca'
p7010
VDB06916
p7011
sS'd414db6a98d6'
p7012
VDB03777
p7013
sS'0944d3172fc7'
p7014
VDB00727
p7015
sS'f332efef9492'
p7016
VDB00505
p7017
sS'943b78c4817b'
p7018
VDB02857
p7019
sS'60ae9dacf262'
p7020
VDB03067
p7021
sS'9f63c75d8109'
p7022
VDB01119
p7023
sS'23f36046fef2'
p7024
VDB07707
p7025
sS'9960a7ffed3b'
p7026
VDB00666
p7027
sS'a490f259dede'
p7028
VDB08155
p7029
sS'35f02b659e58'
p7030
VDB04224
p7031
sS'3ff6a8c8d59e'
p7032
VDB04491
p7033
sS'fd93b9382f77'
p7034
VDB07648
p7035
sS'e45365b4d4f0'
p7036
VDB00589
p7037
sS'87ede0c27137'
p7038
VDB04803
p7039
sS'576bed210a30'
p7040
VDB04566
p7041
sS'fa76b695416c'
p7042
VDB08025
p7043
sS'eba1b1e3ce53'
p7044
VDB02662
p7045
sS'694842b34f6e'
p7046
VDB08248
p7047
sS'ad81263a7c8f'
p7048
VDB06213
p7049
sS'969619d06428'
p7050
VDB04282
p7051
sS'4601d939aeb4'
p7052
VDB07636
p7053
sS'f27ccd5d226a'
p7054
VDB01197
p7055
sS'c9b3f984eba1'
p7056
VDB01960
p7057
sS'141f5aafaace'
p7058
VDB00950
p7059
sS'3a2d4a428d7f'
p7060
VDB03476
p7061
sS'2383646dbdc6'
p7062
VDB03331
p7063
sS'7acece69edee'
p7064
VDB08029
p7065
sS'81d69f60ba5a'
p7066
VDB08890
p7067
sS'b9b02117c0fe'
p7068
VDB04685
p7069
sS'b3598ff52cdf'
p7070
VDB04798
p7071
sS'479b8fff1f4b'
p7072
VDB00724
p7073
sS'c9d7219a509b'
p7074
VDB02795
p7075
sS'935b5e2489a2'
p7076
VDB00240
p7077
sS'55d4a862c223'
p7078
VDB08594
p7079
sS'8f4420a69f2c'
p7080
VDB02635
p7081
sS'0c6fbc6d5a28'
p7082
VDB07542
p7083
sS'd5ca1237f30e'
p7084
VDB04673
p7085
sS'1179824bdd96'
p7086
VDB02731
p7087
sS'f9ec044ef38a'
p7088
VDB07037
p7089
sS'cd483c2e79fd'
p7090
VDB03439
p7091
sS'4497a55e965f'
p7092
VDB07527
p7093
sS'7e9949613931'
p7094
VDB08604
p7095
sS'a56d7421305f'
p7096
VDB00542
p7097
sS'aafde12c09eb'
p7098
VDB07021
p7099
sS'759d715c8767'
p7100
VDB07152
p7101
sS'f8839354ecc5'
p7102
VDB00687
p7103
sS'9bc9075709d4'
p7104
VDB00547
p7105
sS'9aa544058e84'
p7106
VDB08575
p7107
sS'5bbad9ae110d'
p7108
VDB01397
p7109
sS'6a9fd61d0717'
p7110
VDB00128
p7111
sS'1a041b04dd04'
p7112
VDB05266
p7113
sS'28cf3ec0c694'
p7114
VDB00174
p7115
sS'8bd4a8ff6985'
p7116
VDB03120
p7117
sS'f801307c3863'
p7118
VDB07058
p7119
sS'de5f7ecf1950'
p7120
VDB08058
p7121
sS'497771184d08'
p7122
VDB01594
p7123
sS'61d20368f53a'
p7124
VDB03934
p7125
sS'8ca5748aa844'
p7126
VDB04356
p7127
sS'ce5731d1743e'
p7128
VDB07243
p7129
sS'f59c30af984c'
p7130
VDB08809
p7131
sS'aad21a6474bb'
p7132
VDB08595
p7133
sS'676fd0fe322b'
p7134
VDB00327
p7135
sS'1cbdc21d9a4e'
p7136
VDB01223
p7137
sS'f9873e065313'
p7138
VDB00104
p7139
sS'25a80761bcc7'
p7140
VDB07964
p7141
sS'001760bb8b76'
p7142
VDB00140
p7143
sS'a3477fd668bc'
p7144
VDB07328
p7145
sS'93af5c0f271c'
p7146
VDB03880
p7147
sS'f5bcaaf0d942'
p7148
VDB00050
p7149
sS'a6cc45d33290'
p7150
VDB00214
p7151
sS'6151db740f6e'
p7152
VDB07879
p7153
sS'7d650f6b571f'
p7154
VDB07839
p7155
sS'c226587d6575'
p7156
VDB11081
p7157
sS'684d919eb7bd'
p7158
VDB04703
p7159
sS'6fa70ad5541f'
p7160
VDB04551
p7161
sS'77c12850ed8d'
p7162
VDB02383
p7163
sS'8bdf5a403c86'
p7164
VDB07996
p7165
sS'f0fd8eec06a5'
p7166
VDB03766
p7167
sS'53c603e9b0ff'
p7168
VDB08191
p7169
sS'33372661abaa'
p7170
VDB01098
p7171
sS'0ded0ff6726f'
p7172
VDB04468
p7173
sS'35df6b9e5a97'
p7174
VDB06802
p7175
sS'5c6b932f4d01'
p7176
VDB06594
p7177
sS'f00bccfdacc5'
p7178
VDB02035
p7179
sS'84ed845708d0'
p7180
VDB00331
p7181
sS'e86649e6869f'
p7182
VDB04268
p7183
sS'5a614bd56f3b'
p7184
VDB00206
p7185
sS'8e34c3f7674f'
p7186
VDB04841
p7187
sS'4e719a07cd33'
p7188
VDB07852
p7189
sS'399d6c8dc6b0'
p7190
VDB00937
p7191
sS'743cb0b50871'
p7192
VDB04013
p7193
sS'd8fc9b00d893'
p7194
VDB07798
p7195
sS'2df609f982e1'
p7196
VDB07306
p7197
sS'3152406ea407'
p7198
VDB04947
p7199
sS'eb402b33815c'
p7200
VDB04516
p7201
sS'76780792898c'
p7202
VDB08032
p7203
sS'c98a3a68899b'
p7204
VDB01130
p7205
sS'1d416465237e'
p7206
VDB01782
p7207
sS'20fbe5e44cb5'
p7208
VDB00922
p7209
sS'7ff073b1166a'
p7210
VDB03490
p7211
sS'ac37c9939628'
p7212
VDB04556
p7213
sS'bd9f3661519b'
p7214
VDB00482
p7215
sS'9925402e50ad'
p7216
VDB04112
p7217
sS'f63d97d833fb'
p7218
VDB04474
p7219
sS'eb39d8aa3d37'
p7220
VDB03725
p7221
sS'512a9d19e7ef'
p7222
VDB03807
p7223
sS'1e6958fd1be4'
p7224
VDB00133
p7225
sS'192dc490eec2'
p7226
VDB07194
p7227
sS'83b26b7269ff'
p7228
VDB01188
p7229
sS'fc95d4617b97'
p7230
VDB04003
p7231
sS'67f6d359485b'
p7232
VDB11672
p7233
sS'377db9c4ef4f'
p7234
VDB04187
p7235
sS'82000553d5c4'
p7236
VDB07736
p7237
sS'3a43d5454d0c'
p7238
VDB00384
p7239
sS'e2a34e3c56ae'
p7240
VDB00296
p7241
sS'19e0f149a187'
p7242
VDB00802
p7243
sS'd248c945ae55'
p7244
VDB08006
p7245
sS'f51df7c5f876'
p7246
VDB04606
p7247
sS'0f6720bceee0'
p7248
VDB08610
p7249
sS'a43ef20b663b'
p7250
VDB07681
p7251
sS'0e0daa7472a5'
p7252
VDB00374
p7253
sS'bb5bdb9c1665'
p7254
VDB01428
p7255
sS'bd8fd514a656'
p7256
VDB09078
p7257
sS'ce1cbe036ce9'
p7258
VDB06204
p7259
sS'58cfadee6a8f'
p7260
VDB01162
p7261
sS'539e9f645607'
p7262
VDB01988
p7263
sS'ab3c30fd7ed1'
p7264
VDB07295
p7265
sS'ae16c5bc84c1'
p7266
VDB00317
p7267
sS'9f36bbe090bc'
p7268
VDB11831
p7269
sS'e0ce7b6b9bdc'
p7270
VDB08530
p7271
sS'837824ce2c79'
p7272
VDB01953
p7273
sS'9f31486140cc'
p7274
VDB00091
p7275
sS'146fdb719e19'
p7276
VDB08799
p7277
sS'3acb4777f709'
p7278
VDB03622
p7279
sS'd1802473b24f'
p7280
VDB07543
p7281
sS'00a6333c0750'
p7282
VDB02377
p7283
sS'f369ebf4941f'
p7284
VDB02515
p7285
sS'8ebbc209ae1f'
p7286
VDB03381
p7287
sS'8e8d17ad4594'
p7288
VDB07549
p7289
sS'd6470a81762f'
p7290
VDB01754
p7291
sS'fa0a7a874261'
p7292
VDB07557
p7293
sS'23e5f7c5ca0b'
p7294
VDB03566
p7295
sS'cac1363773ea'
p7296
VDB03383
p7297
sS'179c2ef0b543'
p7298
VDB07687
p7299
sS'de8ce14ce98a'
p7300
VDB04910
p7301
sS'183a92e38b78'
p7302
VDB08875
p7303
sS'b0344a22ab81'
p7304
VDB04657
p7305
sS'8c46b70a2149'
p7306
VDB07858
p7307
sS'6750a49ccc0e'
p7308
VDB08398
p7309
sS'91aea1b66e56'
p7310
VDB13520
p7311
sS'8b76117d6e03'
p7312
VDB07917
p7313
sS'560ee1a31bf8'
p7314
VDB02424
p7315
sS'91019707e6f3'
p7316
VDB01127
p7317
sS'1b90f3ba947d'
p7318
VDB00354
p7319
sS'98fad7900120'
p7320
VDB03767
p7321
sS'6f3d9c8be1d4'
p7322
VDB00627
p7323
sS'c9310b30faf7'
p7324
VDB00464
p7325
sS'8301a43e623f'
p7326
VDB07768
p7327
sS'f26630cebfb8'
p7328
VDB03256
p7329
sS'962fec20c927'
p7330
VDB01408
p7331
sS'b30446628aad'
p7332
VDB00158
p7333
sS'3201047619be'
p7334
VDB03635
p7335
sS'549595502ae3'
p7336
VDB01926
p7337
sS'16bc538a11c2'
p7338
VDB02535
p7339
sS'32b3b1809595'
p7340
VDB05864
p7341
sS'dd4b60d4f926'
p7342
VDB00961
p7343
sS'156a6dec0498'
p7344
VDB01113
p7345
sS'5de01d56b437'
p7346
VDB00870
p7347
sS'a3d76bd4906a'
p7348
VDB08230
p7349
sS'fab6e3e9edbe'
p7350
VDB06871
p7351
sS'4582cc01d7fb'
p7352
VDB08360
p7353
sS'0fc120a27cbd'
p7354
VDB00498
p7355
sS'e1643a3a0626'
p7356
VDB00587
p7357
sS'e4020de08bcc'
p7358
VDB00143
p7359
sS'76fdface9ead'
p7360
VDB00596
p7361
sS'fb37da9e8200'
p7362
VDB01059
p7363
sS'cbcd588c2c86'
p7364
VDB07428
p7365
sS'082dd5321246'
p7366
VDB06764
p7367
sS'99efd9c1907d'
p7368
VDB00608
p7369
sS'671d83a5e03e'
p7370
VDB02843
p7371
sS'4ed700e0bb6a'
p7372
VDB04395
p7373
sS'ca6ef6736167'
p7374
VDB00776
p7375
sS'15362685e3f2'
p7376
VDB00973
p7377
sS'08327d9fa8e9'
p7378
VDB07095
p7379
sS'2ab6c7dfefc3'
p7380
VDB02261
p7381
sS'04f90fe3e6d8'
p7382
VDB00311
p7383
sS'a0ca093827dd'
p7384
VDB02153
p7385
sS'8909dfe018c8'
p7386
VDB07807
p7387
sS'fb6866ac5a0d'
p7388
VDB08184
p7389
sS'ce3fef66c187'
p7390
VDB01700
p7391
sS'4c84b9b6470d'
p7392
VDB08190
p7393
sS'bab5a8136e75'
p7394
VDB01472
p7395
sS'8f7a410c41ed'
p7396
VDB01776
p7397
sS'bf5397e45710'
p7398
VDB00975
p7399
sS'686587d4b06e'
p7400
VDB00913
p7401
sS'f90099dd4b6d'
p7402
VDB08416
p7403
sS'e8459181e30f'
p7404
VDB03583
p7405
sS'dcbc4984be7a'
p7406
VDB06983
p7407
sS'69cffe872c42'
p7408
VDB07013
p7409
sS'9ae14d51d64f'
p7410
VDB03878
p7411
sS'a96f7766e3ad'
p7412
VDB04391
p7413
sS'6d48d45f3268'
p7414
VDB03642
p7415
sS'484a5c5ba9a1'
p7416
VDB02091
p7417
sS'6f555c9cb5bf'
p7418
VDB03046
p7419
sS'77253a6eacad'
p7420
VDB03175
p7421
sS'eb54c1d69026'
p7422
VDB00917
p7423
sS'3b01bb964201'
p7424
VDB07655
p7425
sS'4f3389fb7ebb'
p7426
VDB08868
p7427
sS'33919cb77d86'
p7428
VDB04272
p7429
sS'ede74863a495'
p7430
VDB00130
p7431
sS'ef28f62f5f46'
p7432
VDB00297
p7433
sS'4a34881ca931'
p7434
VDB11973
p7435
sS'4e619882f4c7'
p7436
VDB08480
p7437
sS'e60dbaf6d4a5'
p7438
VDB04447
p7439
sS'240f221e1adf'
p7440
VDB06996
p7441
sS'7b9765a558b7'
p7442
VDB02459
p7443
sS'facc2eb64dcd'
p7444
VDB00119
p7445
sS'7a974622ab08'
p7446
VDB06879
p7447
sS'f96b008a839e'
p7448
VDB03396
p7449
sS'728a6a0d38ee'
p7450
VDB12733
p7451
sS'717af482f704'
p7452
VDB00413
p7453
sS'9cdd125592a6'
p7454
VDB00266
p7455
sS'0315af019922'
p7456
VDB04799
p7457
sS'd398504ff3ac'
p7458
VDB00719
p7459
sS'28cd65b0f839'
p7460
VDB12565
p7461
sS'b7af1885a7dc'
p7462
VDB05271
p7463
sS'd9aef81c8533'
p7464
VDB02350
p7465
sS'600513c7fc8e'
p7466
VDB00402
p7467
sS'eae6b846fbc5'
p7468
VDB03572
p7469
sS'235f10147067'
p7470
VDB03316
p7471
sS'73081cec6fb1'
p7472
VDB02404
p7473
sS'04902d608c5a'
p7474
VDB08126
p7475
sS'9887b3320298'
p7476
VDB02115
p7477
sS'b79e94448a00'
p7478
VDB08157
p7479
sS'22b6693b112b'
p7480
VDB08836
p7481
sS'141747f5fe08'
p7482
VDB07733
p7483
sS'cd5001835877'
p7484
VDB03501
p7485
sS'b97bf231626a'
p7486
VDB00169
p7487
sS'ea4c91c95522'
p7488
VDB00350
p7489
sS'abf9931e0dba'
p7490
VDB01154
p7491
sS'ae508d7b2ad8'
p7492
VDB07779
p7493
sS'd56195d6e5ea'
p7494
VDB01118
p7495
sS'c307c4965959'
p7496
VDB08529
p7497
sS'dd56aa0cd30d'
p7498
VDB06994
p7499
sS'b6cf5a1339a2'
p7500
VDB06876
p7501
sS'a99941777e3b'
p7502
VDB00461
p7503
sS'4ed896885fee'
p7504
VDB02742
p7505
sS'ed1af719909f'
p7506
VDB00155
p7507
sS'e8b5934db09e'
p7508
VDB06201
p7509
sS'8c5a1e5f72c3'
p7510
VDB07322
p7511
sS'238e43fa71aa'
p7512
VDB04440
p7513
sS'e135b714c97b'
p7514
VDB08033
p7515
sS'e08a1d0be398'
p7516
VDB08072
p7517
sS'2cdfe9ddab55'
p7518
VDB01678
p7519
sS'e5ab0422bcf2'
p7520
VDB01675
p7521
sS'3076293fd363'
p7522
VDB03070
p7523
sS'b10f88a0b92b'
p7524
VDB08385
p7525
sS'd76063da782b'
p7526
VDB00344
p7527
sS'4adb1be1d7e2'
p7528
VDB03697
p7529
sS'40461d6dc8b9'
p7530
VDB04774
p7531
sS'e6923f15c330'
p7532
VDB05187
p7533
sS'2d5214853dc6'
p7534
VDB04223
p7535
sS'77b43851addd'
p7536
VDB05168
p7537
sS'0b576711b4e6'
p7538
VDB07468
p7539
sS'e72c8edb413a'
p7540
VDB04878
p7541
sS'e2c148136aad'
p7542
VDB03496
p7543
sS'76b19ee5fc3b'
p7544
VDB02109
p7545
sS'6d1fd17dd401'
p7546
VDB07089
p7547
sS'8319e514267b'
p7548
VDB01194
p7549
sS'5cf33facfa63'
p7550
VDB06738
p7551
sS'0368ff973680'
p7552
VDB07718
p7553
sS'7846e2ab8e64'
p7554
VDB07848
p7555
sS'970a7669fa40'
p7556
VDB09409
p7557
sS'7ca5a4aa628b'
p7558
VDB07589
p7559
sS'24df6016b1e5'
p7560
VDB04186
p7561
sS'7195ef9835e2'
p7562
VDB01043
p7563
sS'ea96d921f83b'
p7564
VDB02824
p7565
sS'779849bc806f'
p7566
VDB03884
p7567
sS'047f2286aff5'
p7568
VDB00392
p7569
sS'c16e7461fbc4'
p7570
VDB06789
p7571
sS'f89f8c1520fa'
p7572
VDB03367
p7573
sS'85d05337090c'
p7574
VDB00378
p7575
sS'efbdf9f54dcd'
p7576
VDB03847
p7577
sS'c4612667121f'
p7578
VDB00449
p7579
sS'123eda53d93c'
p7580
VDB04888
p7581
sS'ce9ef4a7f32e'
p7582
VDB00292
p7583
sS'e1bacdd31377'
p7584
VDB05540
p7585
sS'a367d753726e'
p7586
VDB00788
p7587
sS'cb457868eb0b'
p7588
VDB00179
p7589
sS'eebcfcaf4126'
p7590
VDB07279
p7591
sS'378fe1463e36'
p7592
VDB07720
p7593
sS'ae8ceefc6f68'
p7594
VDB08756
p7595
sS'c542ffb2f1d1'
p7596
VDB07449
p7597
sS'09bc85ecde92'
p7598
VDB05786
p7599
sS'0d3fbbbc0cf1'
p7600
VDB03802
p7601
sS'0316d15f576d'
p7602
VDB03902
p7603
sS'fda89ff4cc9b'
p7604
VDB02827
p7605
sS'988d0d7b898c'
p7606
VDB04849
p7607
sS'a34195299048'
p7608
VDB08218
p7609
sS'9c5a657fc1e9'
p7610
VDB09089
p7611
sS'9e424f994fe3'
p7612
VDB04871
p7613
sS'6106ff1945c0'
p7614
VDB08065
p7615
sS'6cb74583a84d'
p7616
VDB00188
p7617
sS'a70e8f03d350'
p7618
VDB02431
p7619
sS'07f2539dcb8e'
p7620
VDB04652
p7621
sS'c5849a7f72f1'
p7622
VDB01227
p7623
sS'517ce27d0472'
p7624
VDB02689
p7625
sS'c9ba90c7bca0'
p7626
VDB00183
p7627
sS'5db14764353c'
p7628
VDB07171
p7629
sS'8d55a4d6feb3'
p7630
VDB08911
p7631
sS'e30be3d9abfe'
p7632
VDB02378
p7633
sS'dd23f5d06b10'
p7634
VDB00380
p7635
sS'bf99cf57fd4c'
p7636
VDB01873
p7637
sS'e40de0a0e9d8'
p7638
VDB02643
p7639
sS'ff15ab541ee7'
p7640
VDB08596
p7641
sS'3ac46b419b6c'
p7642
VDB05327
p7643
sS'c22d3d56b0a1'
p7644
VDB08822
p7645
sS'9de111f343ff'
p7646
VDB07049
p7647
sS'3328c6886c9e'
p7648
VDB04213
p7649
sS'b79668426235'
p7650
VDB08350
p7651
sS'ee6cf44ef55b'
p7652
VDB07840
p7653
sS'2a51e8822637'
p7654
VDB00414
p7655
sS'41078d284462'
p7656
VDB04044
p7657
sS'e5089e124a1f'
p7658
VDB04679
p7659
sS'ad121400b236'
p7660
VDB05284
p7661
sS'7ae58f34e51e'
p7662
VDB02358
p7663
sS'088dd3df789c'
p7664
VDB08067
p7665
sS'3b34aa666a64'
p7666
VDB00257
p7667
sS'79ba6cd8c320'
p7668
VDB05223
p7669
sS'f7a6769f3132'
p7670
VDB01054
p7671
sS'd8168cc2b479'
p7672
VDB00801
p7673
sS'68b9d597104b'
p7674
VDB05265
p7675
sS'ccc6a7e9cad5'
p7676
VDB02999
p7677
sS'783077da2019'
p7678
VDB07165
p7679
sS'2017782bb7c6'
p7680
VDB07902
p7681
sS'c70991627340'
p7682
VDB03366
p7683
sS'490371d6fd60'
p7684
VDB02740
p7685
sS'a7180997c04f'
p7686
VDB07692
p7687
sS'4214c34a22d0'
p7688
VDB07970
p7689
sS'deac65fb86a7'
p7690
VDB09068
p7691
sS'd8bd875f6083'
p7692
VDB00138
p7693
sS'6b987b3b7c70'
p7694
VDB08835
p7695
sS'878b51c222b1'
p7696
VDB02093
p7697
sS'6f87b3e577cb'
p7698
VDB08473
p7699
sS'227aad5787a1'
p7700
VDB08326
p7701
sS'2379d0632a6e'
p7702
VDB04838
p7703
sS'13ea8189e223'
p7704
VDB04875
p7705
sS'daea3412e776'
p7706
VDB01342
p7707
sS'5161b16ec145'
p7708
VDB00799
p7709
sS'758ef24ee8ca'
p7710
VDB12200
p7711
sS'09f4b4ef0e0e'
p7712
VDB04920
p7713
sS'dbdfc2810d23'
p7714
VDB06914
p7715
sS'06f0004c5511'
p7716
VDB03782
p7717
sS'971255dde245'
p7718
VDB02445
p7719
sS'0979647f92e2'
p7720
VDB07235
p7721
sS'a7bbce491264'
p7722
VDB02979
p7723
sS'cc2d83b7f4c2'
p7724
VDB08240
p7725
sS'c1ad0ea2c04c'
p7726
VDB06937
p7727
sS'4da9f42f8c2b'
p7728
VDB08626
p7729
sS'437632942c88'
p7730
VDB08860
p7731
sS'25b081e75e5e'
p7732
VDB01671
p7733
sS'e17cbe64407c'
p7734
VDB00106
p7735
sS'5d9bf4af50ce'
p7736
VDB05220
p7737
sS'b04a96ff2bd1'
p7738
VDB04843
p7739
sS'3caa46265d45'
p7740
VDB02759
p7741
sS'bf2d24f4a6db'
p7742
VDB07122
p7743
sS'2fe97f27f8ac'
p7744
VDB03800
p7745
sS'6b4eee667939'
p7746
VDB03183
p7747
sS'd51b46994102'
p7748
VDB06267
p7749
sS'a79a70e18e3e'
p7750
VDB04287
p7751
sS'312f75f988df'
p7752
VDB01992
p7753
sS'1533ad059380'
p7754
VDB07654
p7755
sS'79676608d722'
p7756
VDB03062
p7757
sS'5790261ee89f'
p7758
VDB01255
p7759
sS'5257663bbe5b'
p7760
VDB02209
p7761
sS'940cd5abde94'
p7762
VDB06701
p7763
sS'09af02158656'
p7764
VDB04824
p7765
sS'609273185319'
p7766
VDB00947
p7767
sS'5ce5a56a7a6d'
p7768
VDB13928
p7769
sS'0a27a368dbdd'
p7770
VDB07950
p7771
sS'd2bd5661c244'
p7772
VDB08048
p7773
sS'36da0ffa0079'
p7774
VDB06670
p7775
sS'561a12cb69d2'
p7776
VDB08733
p7777
sS'bf48079749ec'
p7778
VDB02081
p7779
sS'4b96338e1bbc'
p7780
VDB07497
p7781
sS'a991815c53c1'
p7782
VDB09097
p7783
sS'1cb50ddccebe'
p7784
VDB07984
p7785
sS'762df083b74e'
p7786
VDB07944
p7787
sS'377107fe03e1'
p7788
VDB07949
p7789
sS'9425ca487ca7'
p7790
VDB04178
p7791
sS'6be4800237f0'
p7792
VDB06938
p7793
sS'88ced0d3afac'
p7794
VDB06925
p7795
sS'58ff814e09fc'
p7796
VDB07838
p7797
sS'60e7ef2a3d38'
p7798
VDB09203
p7799
sS'71c6d155e7dc'
p7800
VDB08439
p7801
sS'7c4b0d9a8222'
p7802
VDB02508
p7803
sS'628bb088f722'
p7804
VDB00915
p7805
sS'358b01e1d338'
p7806
VDB01741
p7807
sS'843f259f06d7'
p7808
VDB01157
p7809
sS'314b67023eb0'
p7810
VDB00147
p7811
sS'f33b33fdb442'
p7812
VDB08633
p7813
sS'29b00716e546'
p7814
VDB04661
p7815
sS'e06b68e96304'
p7816
VDB04009
p7817
sS'555848d72b5f'
p7818
VDB02875
p7819
sS'4708bf0b5a2e'
p7820
VDB00474
p7821
sS'057fc6c18f8a'
p7822
VDB01002
p7823
sS'f7d80c04ff8f'
p7824
VDB07625
p7825
sS'2d86e0837924'
p7826
VDB08936
p7827
sS'aa1305a888a3'
p7828
VDB04076
p7829
sS'0b2222ee12f5'
p7830
VDB02620
p7831
sS'97163bc60c53'
p7832
VDB01942
p7833
sS'1e7a073b21db'
p7834
VDB04855
p7835
sS'1b41dc595911'
p7836
VDB03451
p7837
sS'17df4ea8467a'
p7838
VDB01122
p7839
sS'96505b438b1b'
p7840
VDB08156
p7841
sS'765b8e7e4766'
p7842
VDB08147
p7843
sS'c8a9c1bc8bb3'
p7844
VDB04472
p7845
sS'c2ee185d4641'
p7846
VDB07746
p7847
sS'cc052a55a45a'
p7848
VDB01174
p7849
sS'3b667b439c87'
p7850
VDB08008
p7851
sS'5a2dc825f50c'
p7852
VDB07555
p7853
sS'd11a22d77b75'
p7854
VDB00941
p7855
sS'925912987a01'
p7856
VDB01537
p7857
sS'65bf4f2406eb'
p7858
VDB02964
p7859
sS'5082bb3bb78f'
p7860
VDB08418
p7861
sS'1cb28cfecdb6'
p7862
VDB02126
p7863
sS'3785669581d0'
p7864
VDB09343
p7865
sS'667932f73d8e'
p7866
VDB02998
p7867
sS'e46d4cf11b1c'
p7868
VDB02296
p7869
sS'bf537f6f8dc0'
p7870
VDB08220
p7871
sS'2f42cd9e2277'
p7872
VDB08163
p7873
sS'd1126b4cb3cf'
p7874
VDB04599
p7875
sS'f5ca735148ff'
p7876
VDB03523
p7877
sS'b41f59f1d996'
p7878
VDB08495
p7879
sS'98f2f1cba1b8'
p7880
VDB03591
p7881
sS'12f2fff061aa'
p7882
VDB02846
p7883
sS'76bfd7fcb71c'
p7884
VDB00842
p7885
sS'a35438cf14b6'
p7886
VDB01025
p7887
sS'1eafdb69d5ff'
p7888
VDB05116
p7889
sS'0bf32872950d'
p7890
VDB04470
p7891
sS'3fffea96037d'
p7892
VDB00283
p7893
sS'763a8c155d91'
p7894
VDB08872
p7895
sS'd26f4bb41932'
p7896
VDB01997
p7897
sS'3c4f1452a846'
p7898
VDB00916
p7899
sS'99f91115bf07'
p7900
VDB06992
p7901
sS'52b7d28b92aa'
p7902
VDB06094
p7903
sS'017dba1ce126'
p7904
VDB00172
p7905
sS'3af4431362f8'
p7906
VDB05107
p7907
sS'da44e59a10dc'
p7908
VDB02343
p7909
sS'92e6fc56b23d'
p7910
VDB04519
p7911
sS'b26fb485bc73'
p7912
VDB00964
p7913
sS'df7923f17a5e'
p7914
VDB00899
p7915
sS'27cce54c7909'
p7916
VDB08362
p7917
sS'c0bf4a7fd4a5'
p7918
VDB02565
p7919
sS'9ad8b9b97891'
p7920
VDB03760
p7921
sS'd0fa780f615b'
p7922
VDB08039
p7923
sS'f4d1cdc5935d'
p7924
VDB03753
p7925
sS'57dcf5fa2a6b'
p7926
VDB08139
p7927
sS'b40fb7af309d'
p7928
VDB02719
p7929
sS'8d75707ca5bc'
p7930
VDB03982
p7931
sS'ca97fcab6245'
p7932
VDB07878
p7933
sS'1682bca80b42'
p7934
VDB12465
p7935
sS'5427e62bcf73'
p7936
VDB02432
p7937
sS'159e3f648918'
p7938
VDB00861
p7939
sS'368fd929df4f'
p7940
VDB07357
p7941
sS'631b93948628'
p7942
VDB13781
p7943
sS'd480dbb30662'
p7944
VDB02259
p7945
sS'77863da130e3'
p7946
VDB00445
p7947
sS'f1d7bf95d106'
p7948
VDB03710
p7949
sS'4e16fcdd347a'
p7950
VDB01355
p7951
sS'19a49e96c426'
p7952
VDB04817
p7953
sS'1f581cab52ea'
p7954
VDB00191
p7955
sS'd387373b79b1'
p7956
VDB02234
p7957
sS'62ffe3f9be4b'
p7958
VDB04230
p7959
sS'7b1182b9e04c'
p7960
VDB03268
p7961
sS'2412efd05bbf'
p7962
VDB03626
p7963
sS'3072510a8a96'
p7964
VDB03714
p7965
sS'63221c531e16'
p7966
VDB04442
p7967
sS'5444fa822dbf'
p7968
VDB07993
p7969
sS'41313e09ea23'
p7970
VDB01388
p7971
sS'3aae106f3f28'
p7972
VDB05294
p7973
sS'1d20f0cb6fee'
p7974
VDB04331
p7975
sS'82f7238f30fd'
p7976
VDB04372
p7977
sS'004d76e90d85'
p7978
VDB07014
p7979
sS'4e11fb19d221'
p7980
VDB11359
p7981
sS'afb70a0cd7b5'
p7982
VDB04720
p7983
sS'04f32ce5f5a1'
p7984
VDB06902
p7985
sS'4034c93601cb'
p7986
VDB00313
p7987
sS'8aa1a8caebbf'
p7988
VDB03147
p7989
sS'304147a9ac70'
p7990
VDB03152
p7991
sS'93a085fcadda'
p7992
VDB04873
p7993
sS'71c7e554fe66'
p7994
VDB00248
p7995
sS'deb75d7a6927'
p7996
VDB08341
p7997
sS'ca58f80cbd68'
p7998
VDB08335
p7999
sS'c34eed30b6a3'
p8000
VDB05475
p8001
sS'd4f6d45b7cd7'
p8002
VDB08689
p8003
sS'2e7e427f7fdf'
p8004
VDB03792
p8005
sS'6ca36d6785bc'
p8006
VDB06689
p8007
sS'02537bd76097'
p8008
VDB01621
p8009
sS'130ec8952301'
p8010
VDB07804
p8011
sS'ccab219a1dc7'
p8012
VDB01837
p8013
sS'd61221a7bd08'
p8014
VDB09396
p8015
sS'4784bb1123bd'
p8016
VDB01324
p8017
sS'57b41db8a152'
p8018
VDB13155
p8019
sS'7295ab47a37d'
p8020
VDB00756
p8021
sS'f659a3414535'
p8022
VDB08357
p8023
sS'1e7cfc30f9a9'
p8024
VDB02908
p8025
sS'22fcb694f8dd'
p8026
VDB08906
p8027
sS'77a7260168fa'
p8028
VDB03848
p8029
sS'b445289f7387'
p8030
VDB07800
p8031
sS'f28d40c8ce64'
p8032
VDB00782
p8033
sS'4f802de6db58'
p8034
VDB07378
p8035
sS'1a7255de1255'
p8036
VDB07285
p8037
sS'dd3f1d9164ea'
p8038
VDB00980
p8039
sS'5287188889e0'
p8040
VDB03844
p8041
sS'1988c68dab85'
p8042
VDB04119
p8043
sS'a708f31378e5'
p8044
VDB04884
p8045
sS'09deba4a3d2a'
p8046
VDB03389
p8047
sS'67bb5c401f0f'
p8048
VDB08550
p8049
sS'13fa15199983'
p8050
VDB07045
p8051
sS'b1bc8a3f2df0'
p8052
VDB04719
p8053
sS'9b252ae95243'
p8054
VDB00200
p8055
sS'a02aad8d227d'
p8056
VDB08353
p8057
sS'604844bf40f3'
p8058
VDB07050
p8059
sS'765c5bd6c61e'
p8060
VDB04297
p8061
sS'08801dca58f5'
p8062
VDB06788
p8063
sS'0c34765c8186'
p8064
VDB01303
p8065
sS'40008ad7fea3'
p8066
VDB09262
p8067
sS'4bc8611edbb7'
p8068
VDB00281
p8069
sS'03cd93cf355c'
p8070
VDB03019
p8071
sS'87846b503e00'
p8072
VDB00655
p8073
sS'89594c781c88'
p8074
VDB08883
p8075
sS'602741f8774d'
p8076
VDB02527
p8077
sS'2f5bac2a3bd6'
p8078
VDB04578
p8079
sS'1eecbb9d3ce2'
p8080
VDB08351
p8081
sS'8180b147ef7c'
p8082
VDB00643
p8083
sS'50616d1e1ba9'
p8084
VDB07711
p8085
sS'df437ad05f3d'
p8086
VDB07083
p8087
sS'45ca5e46dd0d'
p8088
VDB02952
p8089
sS'9b03767790d3'
p8090
VDB02721
p8091
sS'4fc72b2c1ddb'
p8092
VDB08393
p8093
sS'695ca88c15c5'
p8094
VDB08149
p8095
sS'75770b7b1ebe'
p8096
VDB06733
p8097
sS'7009c1794edb'
p8098
VDB00367
p8099
sS'201dc488a4c2'
p8100
VDB03791
p8101
sS'205563b761db'
p8102
VDB03650
p8103
sS'be6bbe81888c'
p8104
VDB08504
p8105
sS'56574f67355a'
p8106
VDB00322
p8107
sS'3e2c2ff71ab1'
p8108
VDB08356
p8109
sS'01f34c605526'
p8110
VDB04836
p8111
sS'74043d829136'
p8112
VDB00440
p8113
sS'c6f440272dea'
p8114
VDB01734
p8115
sS'c578772e1f4e'
p8116
VDB04915
p8117
sS'df9828538961'
p8118
VDB04129
p8119
sS'6f5c702cf26e'
p8120
VDB04722
p8121
sS'3b69b5786cc5'
p8122
VDB00420
p8123
sS'00a3f04e2d41'
p8124
VDB06845
p8125
sS'6348993959a0'
p8126
VDB08128
p8127
sS'2f2591d82507'
p8128
VDB07318
p8129
sS'1988a8877e36'
p8130
VDB09481
p8131
sS'9ab41d24ff99'
p8132
VDB00692
p8133
sS'282434d721cd'
p8134
VDB01012
p8135
sS'2abea27f5e95'
p8136
VDB06410
p8137
sS'08df829e18fb'
p8138
VDB04348
p8139
sS'51f26c9e654c'
p8140
VDB07341
p8141
sS'a2f328ff1028'
p8142
VDB01651
p8143
sS'91fabc2e47c1'
p8144
VDB03182
p8145
sS'4a4d944a8d70'
p8146
VDB09063
p8147
sS'9e3f27cb109a'
p8148
VDB12450
p8149
sS'77fb45784c0a'
p8150
VDB09488
p8151
sS'04ea4429447d'
p8152
VDB00880
p8153
sS'66ffe97554d7'
p8154
VDB01618
p8155
sS'b4be6fd39b0d'
p8156
VDB08064
p8157
sS'5706c4c28cfe'
p8158
VDB04616
p8159
sS'0d6aa77a194d'
p8160
VDB01138
p8161
sS'62520f61269e'
p8162
VDB00962
p8163
sS'2fe4b19adff9'
p8164
VDB03086
p8165
sS'b428babd8144'
p8166
VDB01382
p8167
sS'd8941af4c4f5'
p8168
VDB01137
p8169
sS'bc28ef726cd2'
p8170
VDB03604
p8171
sS'573dc202a65e'
p8172
VDB00572
p8173
sS'e8620ae12039'
p8174
VDB00209
p8175
sS'23562780fc16'
p8176
VDB08061
p8177
sS'64642d5acf63'
p8178
VDB01488
p8179
sS'c25ca8e02a10'
p8180
VDB03414
p8181
sS'463d1312f11a'
p8182
VDB00078
p8183
sS'0bfadd06a6c7'
p8184
VDB03738
p8185
sS'6222bb12e182'
p8186
VDB07405
p8187
sS'b2478d5e9919'
p8188
VDB13061
p8189
sS'3c9dccb2ebd3'
p8190
VDB08011
p8191
sS'2d9195c21c4c'
p8192
VDB02953
p8193
sS'07dae8b529ae'
p8194
VDB03535
p8195
sS'f1ac49a7386c'
p8196
VDB07368
p8197
sS'78804cd55d1f'
p8198
VDB00165
p8199
sS'91acf7a4650e'
p8200
VDB06899
p8201
sS'd4a07e4051ba'
p8202
VDB05490
p8203
sS'c35154634f8e'
p8204
VDB00751
p8205
sS'a81f3555f4c7'
p8206
VDB04678
p8207
sS'28a5d4b8af1f'
p8208
VDB08772
p8209
sS'c0ba8f41ff52'
p8210
VDB00508
p8211
sS'3a64dfc2cdc5'
p8212
VDB04137
p8213
sS'18551ca3ab63'
p8214
VDB02820
p8215
sS'1013536842f4'
p8216
VDB00170
p8217
sS'e24472a4e1b6'
p8218
VDB07066
p8219
sS'b2af1384ec94'
p8220
VDB12364
p8221
sS'46699ff21465'
p8222
VDB08084
p8223
sS'03544ac80536'
p8224
VDB08436
p8225
sS'84742a9fd24f'
p8226
VDB07303
p8227
sS'a1ff7d9342a2'
p8228
VDB01612
p8229
sS'9f043f1c3012'
p8230
VDB01064
p8231
sS'a5ad0179d9a6'
p8232
VDB06897
p8233
sS'8a09bc3eb422'
p8234
VDB01834
p8235
sS'e9e67faa4095'
p8236
VDB07665
p8237
sS'932a6465e8a3'
p8238
VDB01123
p8239
sS'ba0b74f419ab'
p8240
VDB04632
p8241
sS'7ecf7357dbb0'
p8242
VDB04249
p8243
sS'56f9afa04f30'
p8244
VDB00795
p8245
sS'40d15c52cd44'
p8246
VDB06999
p8247
sS'fbe38e2ad19f'
p8248
VDB00896
p8249
sS'b849a397166c'
p8250
VDB01103
p8251
sS'9d2d14d01004'
p8252
VDB08454
p8253
sS'28b062695680'
p8254
VDB04207
p8255
sS'34ec159ee241'
p8256
VDB03385
p8257
sS'556e2ac5a34a'
p8258
VDB03424
p8259
sS'7ddf2496903d'
p8260
VDB08148
p8261
sS'5d5d0c8afb08'
p8262
VDB01170
p8263
sS'237f05b02c32'
p8264
VDB07450
p8265
sS'6757cc621964'
p8266
VDB00696
p8267
sS'37c070fd1c40'
p8268
VDB07561
p8269
sS'1aced412b0c5'
p8270
VDB07836
p8271
sS'8cc4d355c0ac'
p8272
VDB00489
p8273
sS'e71ef4b77582'
p8274
VDB03130
p8275
sS'8caef239f185'
p8276
VDB07215
p8277
sS'0e894f918508'
p8278
VDB08018
p8279
sS'4a8c554345a1'
p8280
VDB07172
p8281
sS'a4d82edb69d4'
p8282
VDB03510
p8283
sS'74b6580350e0'
p8284
VDB01964
p8285
sS'070b2b1aab48'
p8286
VDB02744
p8287
sS'bb9fe5fa8781'
p8288
VDB08413
p8289
sS'2e892724c191'
p8290
VDB00405
p8291
sS'41b7e4327f7b'
p8292
VDB00797
p8293
sS'50cd8ea307a8'
p8294
VDB00984
p8295
sS'8aebbcdfdfff'
p8296
VDB04839
p8297
sS'758f968dc7fd'
p8298
VDB07065
p8299
sS'be3c307c84df'
p8300
VDB05134
p8301
sS'37a5413a69f1'
p8302
VDB00665
p8303
sS'6c647e2fe8bd'
p8304
VDB02465
p8305
sS'1f3cb248a133'
p8306
VDB04409
p8307
sS'59613d747e49'
p8308
VDB04081
p8309
sS'8b2b22e4124a'
p8310
VDB07685
p8311
sS'e705d616bc69'
p8312
VDB08599
p8313
sS'066fb673bafb'
p8314
VDB01684
p8315
sS'05bbd698c3c9'
p8316
VDB02935
p8317
sS'00646e92ff61'
p8318
VDB02366
p8319
sS'1eb673517ba2'
p8320
VDB04105
p8321
sS'd4863f6b628e'
p8322
VDB03581
p8323
sS'35699ddd7d24'
p8324
VDB03886
p8325
sS'59a62a3abfe2'
p8326
VDB04050
p8327
sS'7537a6a8c2e4'
p8328
VDB11730
p8329
sS'476e161cbe0a'
p8330
VDB08695
p8331
sS'3f1769c3f2a1'
p8332
VDB12445
p8333
sS'96e27ea75e44'
p8334
VDB08912
p8335
sS'aa4713edbf00'
p8336
VDB01092
p8337
sS'bf63056f6157'
p8338
VDB03253
p8339
sS'c60e47be6d05'
p8340
VDB04434
p8341
sS'656bc3f04ccf'
p8342
VDB08043
p8343
sS'f4f1a2d8a84f'
p8344
VDB02084
p8345
sS'e7d44b0a7fd1'
p8346
VDB03379
p8347
sS'e06eac4106be'
p8348
VDB00398
p8349
sS'79854390bb50'
p8350
VDB03191
p8351
sS'cfc9fde140c9'
p8352
VDB03217
p8353
sS'88bd1f3fa1d2'
p8354
VDB04301
p8355
sS'1292d3408601'
p8356
VDB12332
p8357
sS'65252a869bad'
p8358
VDB01766
p8359
sS'18e794dd8c98'
p8360
VDB03555
p8361
sS'65db34805d34'
p8362
VDB07310
p8363
sS'96cf15023e04'
p8364
VDB04048
p8365
sS'ab42b1191dcf'
p8366
VDB00429
p8367
sS'e2d3982150bc'
p8368
VDB01800
p8369
sS'b3c449acf7d0'
p8370
VDB08236
p8371
sS'07b96f2c7c5d'
p8372
VDB01590
p8373
sS'0fa3ec0a670a'
p8374
VDB00746
p8375
sS'24abbe68e162'
p8376
VDB08791
p8377
sS'576ac1d0e106'
p8378
VDB04288
p8379
sS'5f1ac9af0e02'
p8380
VDB07422
p8381
sS'c2dc4291bb37'
p8382
VDB00580
p8383
sS'1616c72314c8'
p8384
VDB03865
p8385
sS'61d767888e7b'
p8386
VDB04617
p8387
sS'3c315bf2e3f3'
p8388
VDB02581
p8389
sS'd7d500e57749'
p8390
VDB01176
p8391
sS'576280fc2175'
p8392
VDB02624
p8393
sS'ace32f18451f'
p8394
VDB00353
p8395
sS'4b240dceafb2'
p8396
VDB06995
p8397
sS'167d1789ac1a'
p8398
VDB04701
p8399
sS'853d71e9bde3'
p8400
VDB06772
p8401
sS'dac99442c02e'
p8402
VDB02877
p8403
sS'c728fa87db67'
p8404
VDB00682
p8405
sS'2ccd22f971f1'
p8406
VDB08164
p8407
sS'4f42538fa71c'
p8408
VDB07854
p8409
sS'718d26e14b2b'
p8410
VDB06480
p8411
sS'8cc5d0af17f3'
p8412
VDB06878
p8413
sS'7d99f9564e5c'
p8414
VDB03344
p8415
sS'389cd1053dd7'
p8416
VDB01200
p8417
sS'023a492fbeff'
p8418
VDB00905
p8419
sS'04eb0c1520a4'
p8420
VDB03783
p8421
sS'334afc12fa65'
p8422
VDB01410
p8423
sS'd451947953c2'
p8424
VDB02783
p8425
sS'1e8782ac3b43'
p8426
VDB07788
p8427
sS'dc2feb357619'
p8428
VDB08378
p8429
sS'ec30208193cd'
p8430
VDB12742
p8431
sS'b6e495b3a055'
p8432
VDB06403
p8433
sS'2d5624bc63e3'
p8434
VDB07091
p8435
sS'f4a58a75af26'
p8436
VDB00904
p8437
sS'a779131996b6'
p8438
VDB08487
p8439
sS'3a17d73fa79c'
p8440
VDB03060
p8441
sS'fc8e0e441a60'
p8442
VDB02373
p8443
sS'3f22e7b051d8'
p8444
VDB01101
p8445
sS'244d291eba56'
p8446
VDB00388
p8447
sS'a6547457e7b9'
p8448
VDB02837
p8449
sS'a54686a271e8'
p8450
VDB07415
p8451
sS'9bc6736853a8'
p8452
VDB07288
p8453
sS'7a3220f814f2'
p8454
VDB01599
p8455
sS'8f9675d522a7'
p8456
VDB12095
p8457
sS'53d36d054c54'
p8458
VDB07659
p8459
sS'43b8062ce9df'
p8460
VDB07870
p8461
sS'3c2ef52f3b25'
p8462
VDB07183
p8463
sS'f5eec8e8fea8'
p8464
VDB09028
p8465
sS'4655e35381ab'
p8466
VDB07395
p8467
sS'1aab971a8b02'
p8468
VDB01207
p8469
sS'369604af462e'
p8470
VDB01619
p8471
sS'1010e953c0f6'
p8472
VDB09085
p8473
sS'38374fd072f9'
p8474
VDB04151
p8475
sS'2fa7317b13f2'
p8476
VDB02110
p8477
sS'99c4fe5d0ab5'
p8478
VDB04869
p8479
sS'f143ddc55d9b'
p8480
VDB07602
p8481
sS'adaa6dabd1d4'
p8482
VDB07888
p8483
sS'94388bc2b052'
p8484
VDB08291
p8485
sS'07d2b4cbcfc4'
p8486
VDB07905
p8487
sS'37667d70eebd'
p8488
VDB02235
p8489
sS'6b135bacf197'
p8490
VDB03250
p8491
sS'ff3d2391f5fd'
p8492
VDB02726
p8493
sS'8225c80769c8'
p8494
VDB08078
p8495
sS'4b4bdfc1d321'
p8496
VDB04405
p8497
sS'd5b086e6e1c0'
p8498
VDB00509
p8499
sS'87ea0a588626'
p8500
VDB07334
p8501
sS'037d2c8cb178'
p8502
VDB12248
p8503
sS'f6715d0ee0dc'
p8504
VDB08059
p8505
sS'5225ebfd0c89'
p8506
VDB01026
p8507
sS'76a28775fa71'
p8508
VDB03877
p8509
sS'4f2037833481'
p8510
VDB07458
p8511
sS'966b5f553fc2'
p8512
VDB00717
p8513
sS'8f19d3141cf5'
p8514
VDB04109
p8515
sS'ef7550202afe'
p8516
VDB05421
p8517
sS'3973af4571ac'
p8518
VDB03194
p8519
sS'dd6f94849d49'
p8520
VDB02548
p8521
sS'96462c2bc1c4'
p8522
VDB02868
p8523
sS'9f2e6cb9cd12'
p8524
VDB03270
p8525
sS'99ef92cd3a38'
p8526
VDB01091
p8527
sS'c841fcd9e95d'
p8528
VDB13158
p8529
sS'c429c69a26b6'
p8530
VDB08325
p8531
sS'9b22176b82a0'
p8532
VDB06870
p8533
sS'76eea2d52cf2'
p8534
VDB08300
p8535
sS'714742dc3c63'
p8536
VDB03835
p8537
sS'390a435fe57f'
p8538
VDB00857
p8539
sS'4960a932f533'
p8540
VDB04295
p8541
sS'2e9df0ea6a4e'
p8542
VDB04879
p8543
sS'd5aaca77151c'
p8544
VDB07389
p8545
sS'8ee8179e38f8'
p8546
VDB07512
p8547
sS'7ecb876551eb'
p8548
VDB07592
p8549
sS'f2cfbbf1b82d'
p8550
VDB02068
p8551
sS'fd15a2cf0ced'
p8552
VDB00468
p8553
sS'887a97f334d8'
p8554
VDB02670
p8555
sS'a4152f7712dc'
p8556
VDB01752
p8557
sS'c5e32076528e'
p8558
VDB07259
p8559
sS'b3e9cf6c25f8'
p8560
VDB02746
p8561
sS'6fc6612c87ac'
p8562
VDB06716
p8563
sS'3f28bf97f690'
p8564
VDB07126
p8565
sS'a8799a83c893'
p8566
VDB02104
p8567
sS'10498bb14b10'
p8568
VDB09555
p8569
sS'815de500ce66'
p8570
VDB04090
p8571
sS'3c595d0e5278'
p8572
VDB07997
p8573
sS'de287ce4817f'
p8574
VDB13174
p8575
sS'fd91ed194376'
p8576
VDB07968
p8577
sS'15329be02876'
p8578
VDB01359
p8579
sS'300e2ec7d138'
p8580
VDB03948
p8581
sS'a53439b3b4eb'
p8582
VDB00568
p8583
sS'c80da80ca0e2'
p8584
VDB07934
p8585
sS'069976b4742c'
p8586
VDB01003
p8587
sS'9d5147a3f6b6'
p8588
VDB01034
p8589
sS'd64a8d152773'
p8590
VDB03565
p8591
sS'143b59081e50'
p8592
VDB06989
p8593
sS'3e7d9a06a5fa'
p8594
VDB03945
p8595
sS'85922e4534fd'
p8596
VDB03305
p8597
sS'fea9e134506f'
p8598
VDB04514
p8599
sS'cad17f883005'
p8600
VDB02526
p8601
sS'3b141302497b'
p8602
VDB13931
p8603
sS'bc29721ce980'
p8604
VDB06401
p8605
s.