(dp1
VDB00904
p2
c__builtin__
set
p3
((lp4
VDCC1434
p5
atRp6
sVDB00966
p7
g3
((lp8
VDCC0247
p9
atRp10
sVDB01413
p11
g3
((lp12
VDCC0344
p13
atRp14
sVDB00951
p15
g3
((lp16
VDCC0242
p17
atRp18
sVDB12429
p19
g3
((lp20
VDCC0427
p21
atRp22
sVDB00774
p23
g3
((lp24
VDCC1830
p25
atRp26
sVDB00957
p27
g3
((lp28
VDCC0244
p29
atRp30
sVDB03175
p31
g3
((lp32
VDCC1622
p33
atRp34
sVDB09082
p35
g3
((lp36
VDCC0797
p37
atRp38
sVDB01098
p39
g3
((lp40
VDCC0294
p41
atRp42
sVDB09085
p43
g3
((lp44
VDCC0467
p45
atRp46
sVDB01095
p47
g3
((lp48
VDCC1494
p49
atRp50
sVDB01097
p51
g3
((lp52
VDCC1495
p53
atRp54
sVDB05109
p55
g3
((lp56
VDCC0369
p57
atRp58
sVDB01259
p59
g3
((lp60
VDCC0332
p61
atRp62
sVDB01258
p63
g3
((lp64
VDCC0331
p65
atRp66
sVDB01255
p67
g3
((lp68
VDCC1551
p69
atRp70
sVDB01254
p71
g3
((lp72
VDCC0330
p73
atRp74
sVDB01076
p75
g3
((lp76
VDCC0290
p77
atRp78
sVDB01075
p79
g3
((lp80
VDCC0289
p81
atRp82
sVDB00675
p83
g3
((lp84
VDCC0168
p85
atRp86
sVDB01073
p87
g3
((lp88
VDCC0288
p89
atRp90
sVDB01072
p91
g3
((lp92
VDCC1489
p93
atRp94
sVDB00074
p95
g3
((lp96
VDCC1149
p97
atRp98
sVDB01177
p99
g3
((lp100
VDCC1525
p101
atRp102
sVDB01175
p103
g3
((lp104
VDCC1524
p105
atRp106
sVDB01172
p107
g3
((lp108
VDCC0309
p109
atRp110
sVDB01173
p111
g3
((lp112
VDCC0310
p113
atRp114
sVDB01170
p115
g3
((lp116
VDCC1829
p117
atRp118
sVDB00073
p119
g3
((lp120
VDCC0009
p121
atRp122
sVDB08604
p123
g3
((lp124
VDCC0376
p125
atRp126
sVDB12558
p127
g3
((lp128
VDCC0437
p129
atRp130
sVDB12254
p131
g3
((lp132
VDCC0596
p133
atRp134
sVDB00471
p135
g3
((lp136
VDCC0099
p137
atRp138
sVDB00472
p139
g3
((lp140
VDCC0100
p141
atRp142
sVDB00475
p143
g3
((lp144
VDCC0101
p145
atRp146
sVDB00476
p147
g3
((lp148
VDCC1293
p149
atRp150
sVDB00479
p151
g3
((lp152
VDCC0102
p153
atRp154
sVDB11672
p155
g3
((lp156
VDCC0431
p157
atRp158
sVDB01551
p159
g3
((lp160
VDCC0346
p161
atRp162
sVDB01001
p163
g3
((lp164
VDCC0261
p165
atRp166
sVDB01006
p167
g3
((lp168
VDCC0264
p169
atRp170
sVDB01004
p171
g3
((lp172
VDCC0262
p173
atRp174
sVDB01005
p175
g3
((lp176
VDCC0263
p177
atRp178
sVDB00571
p179
g3
((lp180
VDCC0134
p181
atRp182
sVDB00570
p183
g3
((lp184
VDCC1321
p185
atRp186
sVDB01008
p187
g3
((lp188
VDCC1471
p189
atRp190
sVDB00572
p191
g3
((lp192
VDCC0135
p193
atRp194
sVDB00575
p195
g3
((lp196
VDCC0136
p197
atRp198
sVDB00750
p199
g3
((lp200
VDCC0185
p201
atRp202
sVDB00755
p203
g3
((lp204
VDCC0186
p205
atRp206
sVDB05630
p207
g3
((lp208
VDCC1659
p209
atRp210
sVDB00209
p211
g3
((lp212
VDCC1204
p213
atRp214
sVDB00208
p215
g3
((lp216
VDCC1203
p217
atRp218
sVDB00975
p219
g3
((lp220
VDCC0251
p221
atRp222
sVDB00206
p223
g3
((lp224
VDCC1852
p225
atRp226
sVDB00977
p227
g3
((lp228
VDCC0252
p229
atRp230
sVDB00613
p231
g3
((lp232
VDCC0146
p233
atRp234
sVDB00614
p235
g3
((lp236
VDCC1334
p237
atRp238
sVDB00615
p239
g3
((lp240
VDCC0147
p241
atRp242
sVDB00201
p243
g3
((lp244
VDCC0021
p245
atRp246
sVDB00972
p247
g3
((lp248
VDCC1459
p249
atRp250
sVDB08885
p251
g3
((lp252
VDCC1736
p253
atRp254
sVDB09230
p255
g3
((lp256
VDCC0565
p257
atRp258
sVDB08882
p259
g3
((lp260
VDCC0885
p261
atRp262
sVDB08889
p263
g3
((lp264
VDCC1737
p265
atRp266
sVDB00683
p267
g3
((lp268
VDCC1353
p269
atRp270
sVDB00682
p271
g3
((lp272
VDCC0171
p273
atRp274
sVDB00681
p275
g3
((lp276
VDCC0170
p277
atRp278
sVDB00687
p279
g3
((lp280
VDCC1354
p281
atRp282
sVDB00685
p283
g3
((lp284
VDCC1857
p285
atRp286
sVDB00684
p287
g3
((lp288
VDCC0172
p289
atRp290
sVDB02656
p291
g3
((lp292
VDCC0396
p293
atRp294
sVDB00688
p295
g3
((lp296
VDCC0173
p297
atRp298
sVDB00373
p299
g3
((lp300
VDCC0072
p301
atRp302
sVDB00371
p303
g3
((lp304
VDCC0071
p305
atRp306
sVDB00377
p307
g3
((lp308
VDCC1262
p309
atRp310
sVDB00273
p311
g3
((lp312
VDCC0037
p313
atRp314
sVDB00277
p315
g3
((lp316
VDCC0039
p317
atRp318
sVDB00275
p319
g3
((lp320
VDCC0038
p321
atRp322
sVDB00104
p323
g3
((lp324
VDCC1164
p325
atRp326
sVDB00105
p327
g3
((lp328
VDCC1165
p329
atRp330
sVDB00107
p331
g3
((lp332
VDCC1166
p333
atRp334
sVDB06711
p335
g3
((lp336
VDCC0375
p337
atRp338
sVDB00742
p339
g3
((lp340
VDCC1381
p341
atRp342
sVDB06603
p343
g3
((lp344
VDCC0768
p345
atRp346
sVDB06605
p347
g3
((lp348
VDCC1686
p349
atRp350
sVDB00967
p351
g3
((lp352
VDCC0248
p353
atRp354
sVDB00294
p355
g3
((lp356
VDCC0042
p357
atRp358
sVDB00295
p359
g3
((lp360
VDCC0043
p361
atRp362
sVDB00296
p363
g3
((lp364
VDCC1238
p365
atRp366
sVDB00297
p367
g3
((lp368
VDCC0044
p369
atRp370
sVDB00290
p371
g3
((lp372
VDCC1234
p373
atRp374
sVDB00291
p375
g3
((lp376
VDCC1235
p377
atRp378
sVDB11348
p379
g3
((lp380
VDCC0938
p381
atRp382
sVDB04858
p383
g3
((lp384
VDCC0420
p385
atRp386
sVDB00741
p387
g3
((lp388
VDCC0184
p389
atRp390
sVDB01325
p391
g3
((lp392
VDCC1850
p393
atRp394
sVDB05332
p395
g3
((lp396
VDCC0717
p397
atRp398
sVDB04915
p399
g3
((lp400
VDCC0458
p401
atRp402
sVDB00199
p403
g3
((lp404
VDCC0020
p405
atRp406
sVDB01120
p407
g3
((lp408
VDCC1505
p409
atRp410
sVDB00196
p411
g3
((lp412
VDCC1200
p413
atRp414
sVDB00195
p415
g3
((lp416
VDCC1811
p417
atRp418
sVDB00193
p419
g3
((lp420
VDCC0018
p421
atRp422
sVDB03922
p423
g3
((lp424
VDCC0367
p425
atRp426
sVDB00191
p427
g3
((lp428
VDCC1199
p429
atRp430
sVDB00190
p431
g3
((lp432
VDCC0017
p433
atRp434
sVDB04972
p435
g3
((lp436
VDCC0620
p437
atRp438
sVDB01281
p439
g3
((lp440
VDCC1564
p441
atRp442
sVDB06285
p443
g3
((lp444
VDCC1677
p445
atRp446
sVDB11828
p447
g3
((lp448
VDCC0904
p449
atRp450
sVDB06287
p451
g3
((lp452
VDCC1678
p453
atRp454
sVDB06697
p455
g3
((lp456
VDCC0372
p457
atRp458
sVDB06288
p459
g3
((lp460
VDCC1679
p461
atRp462
sVDB09123
p463
g3
((lp464
VDCC0881
p465
atRp466
sVDB06691
p467
g3
((lp468
VDCC1849
p469
atRp470
sVDB00997
p471
g3
((lp472
VDCC0259
p473
atRp474
sVDB01212
p475
g3
((lp476
VDCC0319
p477
atRp478
sVDB01211
p479
g3
((lp480
VDCC0318
p481
atRp482
sVDB00994
p483
g3
((lp484
VDCC0257
p485
atRp486
sVDB01217
p487
g3
((lp488
VDCC1539
p489
atRp490
sVDB00990
p491
g3
((lp492
VDCC1466
p493
atRp494
sVDB00852
p495
g3
((lp496
VDCC0214
p497
atRp498
sVDB01357
p499
g3
((lp500
VDCC0340
p501
atRp502
sVDB00850
p503
g3
((lp504
VDCC0213
p505
atRp506
sVDB00851
p507
g3
((lp508
VDCC1417
p509
atRp510
sVDB03080
p511
g3
((lp512
VDCC0363
p513
atRp514
sVDB01626
p515
g3
((lp516
VDCC1842
p517
atRp518
sVDB00325
p519
g3
((lp520
VDCC0054
p521
atRp522
sVDB00706
p523
g3
((lp524
VDCC1361
p525
atRp526
sVDB00492
p527
g3
((lp528
VDCC0109
p529
atRp530
sVDB01039
p531
g3
((lp532
VDCC0276
p533
atRp534
sVDB00495
p535
g3
((lp536
VDCC0111
p537
atRp538
sVDB01033
p539
g3
((lp540
VDCC0273
p541
atRp542
sVDB01032
p543
g3
((lp544
VDCC0272
p545
atRp546
sVDB01030
p547
g3
((lp548
VDCC0271
p549
atRp550
sVDB01036
p551
g3
((lp552
VDCC1479
p553
atRp554
sVDB01035
p555
g3
((lp556
VDCC0275
p557
atRp558
sVDB01034
p559
g3
((lp560
VDCC0274
p561
atRp562
sVDB12518
p563
g3
((lp564
VDCC0460
p565
atRp566
sVDB00322
p567
g3
((lp568
VDCC1245
p569
atRp570
sVDB01262
p571
g3
((lp572
VDCC0334
p573
atRp574
sVDB06193
p575
g3
((lp576
VDCC0949
p577
atRp578
sVDB00539
p579
g3
((lp580
VDCC0125
p581
atRp582
sVDB00537
p583
g3
((lp584
VDCC0124
p585
atRp586
sVDB01261
p587
g3
((lp588
VDCC0333
p589
atRp590
sVDB00531
p591
g3
((lp592
VDCC0123
p593
atRp594
sVDB00530
p595
g3
((lp596
VDCC0122
p597
atRp598
sVDB00979
p599
g3
((lp600
VDCC0254
p601
atRp602
sVDB13919
p603
g3
((lp604
VDCC0198
p605
atRp606
sVDB01324
p607
g3
((lp608
VDCC1846
p609
atRp610
sVDB01452
p611
g3
((lp612
VDCC1590
p613
atRp614
sVDB00087
p615
g3
((lp616
VDCC0917
p617
atRp618
sVDB00328
p619
g3
((lp620
VDCC0055
p621
atRp622
sVDB00080
p623
g3
((lp624
VDCC0010
p625
atRp626
sVDB00324
p627
g3
((lp628
VDCC1246
p629
atRp630
sVDB00497
p631
g3
((lp632
VDCC0112
p633
atRp634
sVDB00494
p635
g3
((lp636
VDCC0110
p637
atRp638
sVDB00327
p639
g3
((lp640
VDCC1247
p641
atRp642
sVDB00320
p643
g3
((lp644
VDCC1820
p645
atRp646
sVDB00493
p647
g3
((lp648
VDCC1297
p649
atRp650
sVDB01620
p651
g3
((lp652
VDCC0354
p653
atRp654
sVDB05039
p655
g3
((lp656
VDCC0738
p657
atRp658
sVDB02342
p659
g3
((lp660
VDCC0426
p661
atRp662
sVDB00078
p663
g3
((lp664
VDCC0640
p665
atRp666
sVDB00775
p667
g3
((lp668
VDCC1396
p669
atRp670
sVDB01269
p671
g3
((lp672
VDCC1555
p673
atRp674
sVDB08799
p675
g3
((lp676
VDCC0377
p677
atRp678
sVDB00030
p679
g3
((lp680
VDCC1124
p681
atRp682
sVDB01131
p683
g3
((lp684
VDCC0302
p685
atRp686
sVDB00034
p687
g3
((lp688
VDCC1127
p689
atRp690
sVDB01137
p691
g3
((lp692
VDCC0304
p693
atRp694
sVDB00612
p695
g3
((lp696
VDCC0145
p697
atRp698
sVDB00039
p699
g3
((lp700
VDCC1129
p701
atRp702
sVDB00405
p703
g3
((lp704
VDCC0081
p705
atRp706
sVDB00148
p707
g3
((lp708
VDCC1181
p709
atRp710
sVDB00927
p711
g3
((lp712
VDCC0237
p713
atRp714
sVDB00889
p715
g3
((lp716
VDCC1427
p717
atRp718
sVDB00664
p719
g3
((lp720
VDCC1347
p721
atRp722
sVDB00921
p723
g3
((lp724
VDCC0236
p725
atRp726
sVDB00669
p727
g3
((lp728
VDCC0167
p729
atRp730
sVDB00668
p731
g3
((lp732
VDCC0166
p733
atRp734
sVDB00367
p735
g3
((lp736
VDCC0070
p737
atRp738
sVDB00881
p739
g3
((lp740
VDCC0226
p741
atRp742
sVDB00880
p743
g3
((lp744
VDCC1814
p745
atRp746
sVDB00883
p747
g3
((lp748
VDCC0227
p749
atRp750
sVDB00882
p751
g3
((lp752
VDCC1424
p753
atRp754
sVDB09345
p755
g3
((lp756
VDCC0395
p757
atRp758
sVDB00393
p759
g3
((lp760
VDCC0076
p761
atRp762
sVDB00395
p763
g3
((lp764
VDCC0078
p765
atRp766
sVDB00394
p767
g3
((lp768
VDCC0077
p769
atRp770
sVDB00397
p771
g3
((lp772
VDCC1845
p773
atRp774
sVDB00396
p775
g3
((lp776
VDCC1267
p777
atRp778
sVDB00399
p779
g3
((lp780
VDCC0080
p781
atRp782
sVDB00398
p783
g3
((lp784
VDCC0079
p785
atRp786
sVDB01171
p787
g3
((lp788
VDCC1523
p789
atRp790
sVDB00715
p791
g3
((lp792
VDCC1367
p793
atRp794
sVDB00717
p795
g3
((lp796
VDCC0180
p797
atRp798
sVDB00710
p799
g3
((lp800
VDCC1363
p801
atRp802
sVDB00713
p803
g3
((lp804
VDCC1365
p805
atRp806
sVDB01234
p807
g3
((lp808
VDCC0325
p809
atRp810
sVDB00928
p811
g3
((lp812
VDCC1443
p813
atRp814
sVDB00759
p815
g3
((lp816
VDCC0187
p817
atRp818
sVDB00719
p819
g3
((lp820
VDCC1810
p821
atRp822
sVDB00718
p823
g3
((lp824
VDCC1368
p825
atRp826
sVDB01068
p827
g3
((lp828
VDCC1488
p829
atRp830
sVDB06168
p831
g3
((lp832
VDCC1664
p833
atRp834
sVDB00175
p835
g3
((lp836
VDCC1191
p837
atRp838
sVDB00813
p839
g3
((lp840
VDCC0204
p841
atRp842
sVDB00811
p843
g3
((lp844
VDCC0203
p845
atRp846
sVDB08934
p847
g3
((lp848
VDCC0545
p849
atRp850
sVDB00815
p851
g3
((lp852
VDCC0205
p853
atRp854
sVDB00758
p855
g3
((lp856
VDCC1390
p857
atRp858
sVDB06209
p859
g3
((lp860
VDCC1666
p861
atRp862
sVDB00818
p863
g3
((lp864
VDCC0206
p865
atRp866
sVDB01132
p867
g3
((lp868
VDCC0303
p869
atRp870
sVDB04861
p871
g3
((lp872
VDCC1641
p873
atRp874
sVDB00033
p875
g3
((lp876
VDCC1126
p877
atRp878
sVDB01136
p879
g3
((lp880
VDCC1509
p881
atRp882
sVDB06643
p883
g3
((lp884
VDCC1689
p885
atRp886
sVDB06769
p887
g3
((lp888
VDCC0628
p889
atRp890
sVDB01045
p891
g3
((lp892
VDCC0280
p893
atRp894
sVDB12410
p895
g3
((lp896
VDCC0415
p897
atRp898
sVDB01764
p899
g3
((lp900
VDCC1815
p901
atRp902
sVDB05294
p903
g3
((lp904
VDCC1657
p905
atRp906
sVDB01041
p907
g3
((lp908
VDCC0277
p909
atRp910
sVDB01088
p911
g3
((lp912
VDCC0293
p913
atRp914
sVDB01089
p915
g3
((lp916
VDCC1816
p917
atRp918
sVDB00863
p919
g3
((lp920
VDCC0217
p921
atRp922
sVDB00860
p923
g3
((lp924
VDCC0216
p925
atRp926
sVDB01082
p927
g3
((lp928
VDCC0292
p929
atRp930
sVDB01369
p931
g3
((lp932
VDCC1851
p933
atRp934
sVDB01081
p935
g3
((lp936
VDCC0291
p937
atRp938
sVDB01087
p939
g3
((lp940
VDCC1493
p941
atRp942
sVDB00869
p943
g3
((lp944
VDCC0219
p945
atRp946
sVDB01085
p947
g3
((lp948
VDCC1491
p949
atRp950
sVDB01248
p951
g3
((lp952
VDCC0329
p953
atRp954
sVDB01241
p955
g3
((lp956
VDCC0328
p957
atRp958
sVDB01242
p959
g3
((lp960
VDCC1548
p961
atRp962
sVDB01064
p963
g3
((lp964
VDCC1486
p965
atRp966
sVDB00661
p967
g3
((lp968
VDCC0165
p969
atRp970
sVDB01109
p971
g3
((lp972
VDCC0296
p973
atRp974
sVDB01067
p975
g3
((lp976
VDCC0286
p977
atRp978
sVDB01060
p979
g3
((lp980
VDCC0285
p981
atRp982
sVDB00041
p983
g3
((lp984
VDCC1749
p985
atRp986
sVDB01101
p987
g3
((lp988
VDCC0295
p989
atRp990
sVDB05521
p991
g3
((lp992
VDCC1658
p993
atRp994
sVDB01069
p995
g3
((lp996
VDCC0287
p997
atRp998
sVDB00595
p999
g3
((lp1000
VDCC0143
p1001
atRp1002
sVDB00046
p1003
g3
((lp1004
VDCC1132
p1005
atRp1006
sVDB06335
p1007
g3
((lp1008
VDCC1680
p1009
atRp1010
sVDB02300
p1011
g3
((lp1012
VDCC0358
p1013
atRp1014
sVDB02304
p1015
g3
((lp1016
VDCC1613
p1017
atRp1018
sVDB00567
p1019
g3
((lp1020
VDCC0133
p1021
atRp1022
sVDB00564
p1023
g3
((lp1024
VDCC0132
p1025
atRp1026
sVDB00448
p1027
g3
((lp1028
VDCC0097
p1029
atRp1030
sVDB00560
p1031
g3
((lp1032
VDCC0130
p1033
atRp1034
sVDB00445
p1035
g3
((lp1036
VDCC0096
p1037
atRp1038
sVDB00446
p1039
g3
((lp1040
VDCC1813
p1041
atRp1042
sVDB00441
p1043
g3
((lp1044
VDCC0094
p1045
atRp1046
sVDB00440
p1047
g3
((lp1048
VDCC0093
p1049
atRp1050
sVDB00443
p1051
g3
((lp1052
VDCC0095
p1053
atRp1054
sVDB00442
p1055
g3
((lp1056
VDCC1280
p1057
atRp1058
sVDB00884
p1059
g3
((lp1060
VDCC1425
p1061
atRp1062
sVDB00910
p1063
g3
((lp1064
VDCC1437
p1065
atRp1066
sVDB01409
p1067
g3
((lp1068
VDCC1584
p1069
atRp1070
sVDB00968
p1071
g3
((lp1072
VDCC0249
p1073
atRp1074
sVDB00218
p1075
g3
((lp1076
VDCC1208
p1077
atRp1078
sVDB01611
p1079
g3
((lp1080
VDCC1601
p1081
atRp1082
sVDB00749
p1083
g3
((lp1084
VDCC1386
p1085
atRp1086
sVDB00746
p1087
g3
((lp1088
VDCC1384
p1089
atRp1090
sVDB00215
p1091
g3
((lp1092
VDCC1207
p1093
atRp1094
sVDB00960
p1095
g3
((lp1096
VDCC1455
p1097
atRp1098
sVDB00961
p1099
g3
((lp1100
VDCC0246
p1101
atRp1102
sVDB00210
p1103
g3
((lp1104
VDCC0025
p1105
atRp1106
sVDB00211
p1107
g3
((lp1108
VDCC1205
p1109
atRp1110
sVDB00740
p1111
g3
((lp1112
VDCC1380
p1113
atRp1114
sVDB00213
p1115
g3
((lp1116
VDCC0026
p1117
atRp1118
sVDB01586
p1119
g3
((lp1120
VDCC1594
p1121
atRp1122
sVDB09220
p1123
g3
((lp1124
VDCC0875
p1125
atRp1126
sVDB02546
p1127
g3
((lp1128
VDCC0361
p1129
atRp1130
sVDB01582
p1131
g3
((lp1132
VDCC1855
p1133
atRp1134
sVDB01581
p1135
g3
((lp1136
VDCC1854
p1137
atRp1138
sVDB00705
p1139
g3
((lp1140
VDCC0178
p1141
atRp1142
sVDB00929
p1143
g3
((lp1144
VDCC0238
p1145
atRp1146
sVDB00691
p1147
g3
((lp1148
VDCC1355
p1149
atRp1150
sVDB00692
p1151
g3
((lp1152
VDCC1356
p1153
atRp1154
sVDB01009
p1155
g3
((lp1156
VDCC0265
p1157
atRp1158
sVDB00694
p1159
g3
((lp1160
VDCC1357
p1161
atRp1162
sVDB00695
p1163
g3
((lp1164
VDCC0174
p1165
atRp1166
sVDB00696
p1167
g3
((lp1168
VDCC0175
p1169
atRp1170
sVDB00698
p1171
g3
((lp1172
VDCC0176
p1173
atRp1174
sVDB00507
p1175
g3
((lp1176
VDCC1302
p1177
atRp1178
sVDB04290
p1179
g3
((lp1180
VDCC0470
p1181
atRp1182
sVDB00361
p1183
g3
((lp1184
VDCC0067
p1185
atRp1186
sVDB00362
p1187
g3
((lp1188
VDCC0068
p1189
atRp1190
sVDB00363
p1191
g3
((lp1192
VDCC0069
p1193
atRp1194
sVDB00366
p1195
g3
((lp1196
VDCC1258
p1197
atRp1198
sVDB04297
p1199
g3
((lp1200
VDCC0451
p1201
atRp1202
sVDB00368
p1203
g3
((lp1204
VDCC1259
p1205
atRp1206
sVDB06809
p1207
g3
((lp1208
VDCC1710
p1209
atRp1210
sVDB11948
p1211
g3
((lp1212
VDCC0432
p1213
atRp1214
sVDB00135
p1215
g3
((lp1216
VDCC1858
p1217
atRp1218
sVDB00619
p1219
g3
((lp1220
VDCC0148
p1221
atRp1222
sVDB06756
p1223
g3
((lp1224
VDCC0520
p1225
atRp1226
sVDB06203
p1227
g3
((lp1228
VDCC0371
p1229
atRp1230
sVDB05719
p1231
g3
((lp1232
VDCC0789
p1233
atRp1234
sVDB00916
p1235
g3
((lp1236
VDCC0235
p1237
atRp1238
sVDB00915
p1239
g3
((lp1240
VDCC0234
p1241
atRp1242
sVDB00912
p1243
g3
((lp1244
VDCC0233
p1245
atRp1246
sVDB00978
p1247
g3
((lp1248
VDCC0253
p1249
atRp1250
sVDB09256
p1251
g3
((lp1252
VDCC0403
p1253
atRp1254
sVDB04900
p1255
g3
((lp1256
VDCC1648
p1257
atRp1258
sVDB00625
p1259
g3
((lp1260
VDCC0150
p1261
atRp1262
sVDB00207
p1263
g3
((lp1264
VDCC0024
p1265
atRp1266
sVDB00627
p1267
g3
((lp1268
VDCC0152
p1269
atRp1270
sVDB00626
p1271
g3
((lp1272
VDCC0151
p1273
atRp1274
sVDB00188
p1275
g3
((lp1276
VDCC0016
p1277
atRp1278
sVDB00620
p1279
g3
((lp1280
VDCC0149
p1281
atRp1282
sVDB09526
p1283
g3
((lp1284
VDCC0388
p1285
atRp1286
sVDB06723
p1287
g3
((lp1288
VDCC1704
p1289
atRp1290
sVDB00186
p1291
g3
((lp1292
VDCC1197
p1293
atRp1294
sVDB00205
p1295
g3
((lp1296
VDCC0023
p1297
atRp1298
sVDB06724
p1299
g3
((lp1300
VDCC1705
p1301
atRp1302
sVDB00203
p1303
g3
((lp1304
VDCC0022
p1305
atRp1306
sVDB00488
p1307
g3
((lp1308
VDCC0108
p1309
atRp1310
sVDB06292
p1311
g3
((lp1312
VDCC0779
p1313
atRp1314
sVDB09031
p1315
g3
((lp1316
VDCC0450
p1317
atRp1318
sVDB00973
p1319
g3
((lp1320
VDCC0250
p1321
atRp1322
sVDB11937
p1323
g3
((lp1324
VDCC0435
p1325
atRp1326
sVDB00027
p1327
g3
((lp1328
VDCC0005
p1329
atRp1330
sVDB13301
p1331
g3
((lp1332
VDCC0391
p1333
atRp1334
sVDB04835
p1335
g3
((lp1336
VDCC1637
p1337
atRp1338
sVDB00829
p1339
g3
((lp1340
VDCC0209
p1341
atRp1342
sVDB00987
p1343
g3
((lp1344
VDCC0256
p1345
atRp1346
sVDB01204
p1347
g3
((lp1348
VDCC1535
p1349
atRp1350
sVDB01206
p1351
g3
((lp1352
VDCC1537
p1353
atRp1354
sVDB00983
p1355
g3
((lp1356
VDCC0255
p1357
atRp1358
sVDB00823
p1359
g3
((lp1360
VDCC0207
p1361
atRp1362
sVDB00820
p1363
g3
((lp1364
VDCC1407
p1365
atRp1366
sVDB05154
p1367
g3
((lp1368
VDCC0407
p1369
atRp1370
sVDB00989
p1371
g3
((lp1372
VDCC1465
p1373
atRp1374
sVDB06616
p1375
g3
((lp1376
VDCC1687
p1377
atRp1378
sVDB00182
p1379
g3
((lp1380
VDCC1194
p1381
atRp1382
sVDB00026
p1383
g3
((lp1384
VDCC1122
p1385
atRp1386
sVDB06590
p1387
g3
((lp1388
VDCC1684
p1389
atRp1390
sVDB08880
p1391
g3
((lp1392
VDCC1733
p1393
atRp1394
sVDB01029
p1395
g3
((lp1396
VDCC0270
p1397
atRp1398
sVDB06372
p1399
g3
((lp1400
VDCC1682
p1401
atRp1402
sVDB01021
p1403
g3
((lp1404
VDCC1856
p1405
atRp1406
sVDB01023
p1407
g3
((lp1408
VDCC0269
p1409
atRp1410
sVDB01024
p1411
g3
((lp1412
VDCC1477
p1413
atRp1414
sVDB01026
p1415
g3
((lp1416
VDCC1478
p1417
atRp1418
sVDB01849
p1419
g3
((lp1420
VDCC0439
p1421
atRp1422
sVDB00528
p1423
g3
((lp1424
VDCC0121
p1425
atRp1426
sVDB00487
p1427
g3
((lp1428
VDCC0107
p1429
atRp1430
sVDB00526
p1431
g3
((lp1432
VDCC0120
p1433
atRp1434
sVDB00241
p1435
g3
((lp1436
VDCC0031
p1437
atRp1438
sVDB00721
p1439
g3
((lp1440
VDCC1370
p1441
atRp1442
sVDB11256
p1443
g3
((lp1444
VDCC0585
p1445
atRp1446
sVDB01440
p1447
g3
((lp1448
VDCC0345
p1449
atRp1450
sVDB00722
p1451
g3
((lp1452
VDCC0181
p1453
atRp1454
sVDB00246
p1455
g3
((lp1456
VDCC1218
p1457
atRp1458
sVDB00319
p1459
g3
((lp1460
VDCC0052
p1461
atRp1462
sVDB01155
p1463
g3
((lp1464
VDCC0305
p1465
atRp1466
sVDB01156
p1467
g3
((lp1468
VDCC0306
p1469
atRp1470
sVDB01157
p1471
g3
((lp1472
VDCC0307
p1473
atRp1474
sVDB01151
p1475
g3
((lp1476
VDCC1515
p1477
atRp1478
sVDB00043
p1479
g3
((lp1480
VDCC1131
p1481
atRp1482
sVDB00310
p1483
g3
((lp1484
VDCC0047
p1485
atRp1486
sVDB00313
p1487
g3
((lp1488
VDCC0048
p1489
atRp1490
sVDB00312
p1491
g3
((lp1492
VDCC1244
p1493
atRp1494
sVDB00317
p1495
g3
((lp1496
VDCC0050
p1497
atRp1498
sVDB00316
p1499
g3
((lp1500
VDCC0049
p1501
atRp1502
sVDB00877
p1503
g3
((lp1504
VDCC0223
p1505
atRp1506
sVDB00727
p1507
g3
((lp1508
VDCC1372
p1509
atRp1510
sVDB00417
p1511
g3
((lp1512
VDCC0084
p1513
atRp1514
sVDB00415
p1515
g3
((lp1516
VDCC0083
p1517
atRp1518
sVDB00799
p1519
g3
((lp1520
VDCC1400
p1521
atRp1522
sVDB00798
p1523
g3
((lp1524
VDCC0199
p1525
atRp1526
sVDB12975
p1527
g3
((lp1528
VDCC0927
p1529
atRp1530
sVDB00795
p1531
g3
((lp1532
VDCC1399
p1533
atRp1534
sVDB00796
p1535
g3
((lp1536
g605
atRp1537
sVDB00790
p1538
g3
((lp1539
VDCC0197
p1540
atRp1541
sVDB03756
p1542
g3
((lp1543
VDCC0453
p1544
atRp1545
sVDB03496
p1546
g3
((lp1547
VDCC0364
p1548
atRp1549
sVDB04398
p1550
g3
((lp1551
VDCC0793
p1552
atRp1553
sVDB00005
p1554
g3
((lp1555
VDCC1110
p1556
atRp1557
sVDB00555
p1558
g3
((lp1559
VDCC0129
p1560
atRp1561
sVDB01306
p1562
g3
((lp1563
VDCC1567
p1564
atRp1565
sVDB00553
p1566
g3
((lp1567
VDCC1314
p1568
atRp1569
sVDB00003
p1570
g3
((lp1571
VDCC1817
p1572
aVDCC1108
p1573
atRp1574
sVDB00776
p1575
g3
((lp1576
VDCC0192
p1577
atRp1578
sVDB00898
p1579
g3
((lp1580
VDCC1431
p1581
atRp1582
sVDB00899
p1583
g3
((lp1584
VDCC1432
p1585
atRp1586
sVDB00773
p1587
g3
((lp1588
VDCC0191
p1589
atRp1590
sVDB00956
p1591
g3
((lp1592
VDCC0243
p1593
atRp1594
sVDB00955
p1595
g3
((lp1596
VDCC1453
p1597
atRp1598
sVDB00770
p1599
g3
((lp1600
VDCC1395
p1601
atRp1602
sVDB00878
p1603
g3
((lp1604
VDCC0224
p1605
atRp1606
sVDB00959
p1607
g3
((lp1608
VDCC1454
p1609
atRp1610
sVDB00958
p1611
g3
((lp1612
VDCC0245
p1613
atRp1614
sVDB00673
p1615
g3
((lp1616
VDCC1351
p1617
atRp1618
sVDB00894
p1619
g3
((lp1620
VDCC0836
p1621
atRp1622
sVDB09350
p1623
g3
((lp1624
VDCC0799
p1625
atRp1626
sVDB00388
p1627
g3
((lp1628
VDCC0075
p1629
atRp1630
sVDB00384
p1631
g3
((lp1632
VDCC0074
p1633
atRp1634
sVDB00381
p1635
g3
((lp1636
VDCC0073
p1637
atRp1638
sVDB09074
p1639
g3
((lp1640
VDCC0932
p1641
atRp1642
sVDB00278
p1643
g3
((lp1644
VDCC1227
p1645
atRp1646
sVDB09214
p1647
g3
((lp1648
VDCC0398
p1649
atRp1650
sVDB01169
p1651
g3
((lp1652
VDCC0308
p1653
atRp1654
sVDB00252
p1655
g3
((lp1656
VDCC0032
p1657
atRp1658
sVDB00254
p1659
g3
((lp1660
VDCC1221
p1661
atRp1662
sVDB00704
p1663
g3
((lp1664
VDCC0177
p1665
atRp1666
sVDB00066
p1667
g3
((lp1668
VDCC0603
p1669
aVDCC1144
p1670
atRp1671
sVDB00709
p1672
g3
((lp1673
VDCC0179
p1674
atRp1675
sVDB03209
p1676
g3
((lp1677
VDCC0416
p1678
atRp1679
sVDB00257
p1680
g3
((lp1681
VDCC0033
p1682
atRp1683
sVDB01201
p1684
g3
((lp1685
VDCC1534
p1686
atRp1687
sVDB06626
p1688
g3
((lp1689
VDCC1688
p1690
atRp1691
sVDB06151
p1692
g3
((lp1693
VDCC1662
p1694
atRp1695
sVDB01202
p1696
g3
((lp1697
VDCC0316
p1698
atRp1699
sVDB01203
p1700
g3
((lp1701
VDCC0317
p1702
atRp1703
sVDB01270
p1704
g3
((lp1705
VDCC1556
p1706
atRp1707
sVDB07715
p1708
g3
((lp1709
VDCC0442
p1710
atRp1711
sVDB04878
p1712
g3
((lp1713
VDCC1644
p1714
atRp1715
sVDB09324
p1716
g3
((lp1717
VDCC0893
p1718
atRp1719
sVDB00982
p1720
g3
((lp1721
VDCC1461
p1722
atRp1723
sVDB04977
p1724
g3
((lp1725
VDCC0394
p1726
atRp1727
sVDB04876
p1728
g3
((lp1729
VDCC0421
p1730
atRp1731
sVDB01436
p1732
g3
((lp1733
VDCC1589
p1734
atRp1735
sVDB00177
p1736
g3
((lp1737
VDCC0014
p1738
atRp1739
sVDB06710
p1740
g3
((lp1741
VDCC1335
p1742
atRp1743
sVDB06717
p1744
g3
((lp1745
VDCC1702
p1746
atRp1747
sVDB06719
p1748
g3
((lp1749
VDCC1703
p1750
atRp1751
sVDB00178
p1752
g3
((lp1753
VDCC0015
p1754
atRp1755
sVDB12624
p1756
g3
((lp1757
VDCC0909
p1758
atRp1759
sVDB06655
p1760
g3
((lp1761
VDCC1690
p1762
atRp1763
sVDB01119
p1764
g3
((lp1765
VDCC0300
p1766
atRp1767
sVDB00874
p1768
g3
((lp1769
VDCC0221
p1770
atRp1771
sVDB00876
p1772
g3
((lp1773
VDCC0222
p1774
atRp1775
sVDB01373
p1776
g3
((lp1777
VDCC1577
p1778
atRp1779
sVDB00871
p1780
g3
((lp1781
VDCC1422
p1782
atRp1783
sVDB00872
p1784
g3
((lp1785
VDCC1423
p1786
atRp1787
sVDB00873
p1788
g3
((lp1789
VDCC0220
p1790
atRp1791
sVDB01378
p1792
g3
((lp1793
VDCC1579
p1794
atRp1795
sVDB09065
p1796
g3
((lp1797
VDCC0494
p1798
atRp1799
sVDB09060
p1800
g3
((lp1801
VDCC0547
p1802
atRp1803
sVDB00879
p1804
g3
((lp1805
VDCC0225
p1806
atRp1807
sVDB01126
p1808
g3
((lp1809
VDCC1507
p1810
atRp1811
sVDB09488
p1812
g3
((lp1813
VDCC0463
p1814
atRp1815
sVDB00438
p1816
g3
((lp1817
VDCC0091
p1818
atRp1819
sVDB01275
p1820
g3
((lp1821
VDCC0337
p1822
atRp1823
sVDB01274
p1824
g3
((lp1825
VDCC1559
p1826
atRp1827
sVDB01277
p1828
g3
((lp1829
VDCC1561
p1830
atRp1831
sVDB01276
p1832
g3
((lp1833
VDCC1560
p1834
atRp1835
sVDB00588
p1836
g3
((lp1837
VDCC0139
p1838
atRp1839
sVDB01050
p1840
g3
((lp1841
VDCC0282
p1842
atRp1843
sVDB01054
p1844
g3
((lp1845
VDCC0283
p1846
atRp1847
sVDB01110
p1848
g3
((lp1849
VDCC0297
p1850
atRp1851
sVDB01058
p1852
g3
((lp1853
VDCC0284
p1854
atRp1855
sVDB01112
p1856
g3
((lp1857
VDCC1500
p1858
atRp1859
sVDB01113
p1860
g3
((lp1861
VDCC1501
p1862
atRp1863
sVDB08816
p1864
g3
((lp1865
VDCC1719
p1866
atRp1867
sVDB01115
p1868
g3
((lp1869
VDCC1502
p1870
atRp1871
sVDB01116
p1872
g3
((lp1873
VDCC1503
p1874
atRp1875
sVDB01117
p1876
g3
((lp1877
VDCC0299
p1878
atRp1879
sVDB11656
p1880
g3
((lp1881
VDCC1035
p1882
atRp1883
sVDB01501
p1884
g3
((lp1885
VDCC1819
p1886
atRp1887
sVDB06440
p1888
g3
((lp1889
VDCC0405
p1890
atRp1891
sVDB02701
p1892
g3
((lp1893
VDCC1615
p1894
atRp1895
sVDB02703
p1896
g3
((lp1897
VDCC0362
p1898
atRp1899
sVDB01183
p1900
g3
((lp1901
VDCC0312
p1902
atRp1903
sVDB00512
p1904
g3
((lp1905
VDCC0115
p1906
atRp1907
sVDB01181
p1908
g3
((lp1909
VDCC0311
p1910
atRp1911
sVDB00515
p1912
g3
((lp1913
VDCC0117
p1914
atRp1915
sVDB00514
p1916
g3
((lp1917
VDCC0116
p1918
atRp1919
sVDB00452
p1920
g3
((lp1921
g485
atRp1922
sVDB00519
p1923
g3
((lp1924
VDCC0119
p1925
atRp1926
sVDB00518
p1927
g3
((lp1928
VDCC0118
p1929
atRp1930
sVDB11899
p1931
g3
((lp1932
VDCC1017
p1933
atRp1934
sVDB00454
p1935
g3
((lp1936
VDCC1284
p1937
atRp1938
sVDB00455
p1939
g3
((lp1940
VDCC0098
p1941
atRp1942
sVDB02380
p1943
g3
((lp1944
VDCC0360
p1945
atRp1946
sVDB01576
p1947
g3
((lp1948
VDCC1593
p1949
atRp1950
sVDB01577
p1951
g3
((lp1952
VDCC0347
p1953
atRp1954
sVDB01606
p1955
g3
((lp1956
VDCC0352
p1957
atRp1958
sVDB01607
p1959
g3
((lp1960
VDCC0353
p1961
atRp1962
sVDB01601
p1963
g3
((lp1964
VDCC0351
p1965
atRp1966
sVDB00733
p1967
g3
((lp1968
VDCC0183
p1969
atRp1970
sVDB00220
p1971
g3
((lp1972
VDCC1209
p1973
atRp1974
sVDB00731
p1975
g3
((lp1976
VDCC1374
p1977
atRp1978
sVDB00222
p1979
g3
((lp1980
VDCC0027
p1981
atRp1982
sVDB00224
p1983
g3
((lp1984
VDCC0028
p1985
atRp1986
sVDB00227
p1987
g3
((lp1988
VDCC0029
p1989
atRp1990
sVDB00734
p1991
g3
((lp1992
VDCC1376
p1993
atRp1994
sVDB01597
p1995
g3
((lp1996
VDCC0349
p1997
atRp1998
sVDB01590
p1999
g3
((lp2000
VDCC0348
p2001
atRp2002
sVDB01591
p2003
g3
((lp2004
VDCC1595
p2005
atRp2006
sVDB08868
p2007
g3
((lp2008
VDCC0378
p2009
atRp2010
sVDB08864
p2011
g3
((lp2012
VDCC1727
p2013
atRp2014
sVDB01598
p2015
g3
((lp2016
VDCC0350
p2017
atRp2018
sVDB05541
p2019
g3
((lp2020
VDCC1098
p2021
atRp2022
sVDB08860
p2023
g3
((lp2024
VDCC1726
p2025
atRp2026
sVDB02638
p2027
g3
((lp2028
VDCC1614
p2029
atRp2030
sVDB01438
p2031
g3
((lp2032
VDCC1844
p2033
atRp2034
sVDB00056
p2035
g3
((lp2036
VDCC1138
p2037
atRp2038
sVDB00054
p2039
g3
((lp2040
VDCC1137
p2041
atRp2042
sVDB00019
p2043
g3
((lp2044
VDCC1120
p2045
atRp2046
sVDB00052
p2047
g3
((lp2048
VDCC1136
p2049
atRp2050
sVDB00358
p2051
g3
((lp2052
VDCC0066
p2053
atRp2054
sVDB00050
p2055
g3
((lp2056
VDCC1135
p2057
atRp2058
sVDB00051
p2059
g3
((lp2060
VDCC0007
p2061
atRp2062
sVDB00355
p2063
g3
((lp2064
VDCC0065
p2065
atRp2066
sVDB00423
p2067
g3
((lp2068
VDCC0086
p2069
atRp2070
sVDB00422
p2071
g3
((lp2072
VDCC1273
p2073
atRp2074
sVDB00421
p2075
g3
((lp2076
VDCC0085
p2077
atRp2078
sVDB00647
p2079
g3
((lp2080
VDCC0160
p2081
atRp2082
sVDB00646
p2083
g3
((lp2084
VDCC0159
p2085
atRp2086
sVDB00643
p2087
g3
((lp2088
VDCC1339
p2089
atRp2090
sVDB00642
p2091
g3
((lp2092
VDCC0158
p2093
atRp2094
sVDB00641
p2095
g3
((lp2096
VDCC0157
p2097
atRp2098
sVDB00640
p2099
g3
((lp2100
VDCC1338
p2101
atRp2102
sVDB00125
p2103
g3
((lp2104
VDCC1172
p2105
atRp2106
sVDB00649
p2107
g3
((lp2108
VDCC0161
p2109
atRp2110
sVDB00908
p2111
g3
((lp2112
VDCC0232
p2113
atRp2114
sVDB00909
p2115
g3
((lp2116
VDCC1436
p2117
atRp2118
sVDB04932
p2119
g3
((lp2120
VDCC1649
p2121
atRp2122
sVDB00321
p2123
g3
((lp2124
VDCC0053
p2125
atRp2126
sVDB00905
p2127
g3
((lp2128
VDCC0230
p2129
atRp2130
sVDB00906
p2131
g3
((lp2132
VDCC0231
p2133
atRp2134
sVDB00900
p2135
g3
((lp2136
VDCC0228
p2137
atRp2138
sVDB00902
p2139
g3
((lp2140
VDCC0229
p2141
atRp2142
sVDB00903
p2143
g3
((lp2144
VDCC1433
p2145
atRp2146
sVDB09241
p2147
g3
((lp2148
VDCC0452
p2149
atRp2150
sVDB00594
p2151
g3
((lp2152
VDCC0142
p2153
atRp2154
sVDB00633
p2155
g3
((lp2156
VDCC0154
p2157
atRp2158
sVDB00630
p2159
g3
((lp2160
VDCC1336
p2161
atRp2162
sVDB00631
p2163
g3
((lp2164
VDCC0153
p2165
atRp2166
sVDB00014
p2167
g3
((lp2168
VDCC1116
p2169
atRp2170
sVDB00634
p2171
g3
((lp2172
VDCC0155
p2173
atRp2174
sVDB00635
p2175
g3
((lp2176
VDCC0156
p2177
atRp2178
sVDB03904
p2179
g3
((lp2180
VDCC1860
p2181
atRp2182
sVDB00764
p2183
g3
((lp2184
VDCC1393
p2185
atRp2186
sVDB00457
p2187
g3
((lp2188
VDCC1285
p2189
atRp2190
sVDB09020
p2191
g3
((lp2192
VDCC0850
p2193
atRp2194
sVDB08916
p2195
g3
((lp2196
VDCC0429
p2197
atRp2198
sVDB08914
p2199
g3
((lp2200
g985
atRp2201
sVDB00584
p2202
g3
((lp2203
VDCC0137
p2204
atRp2205
sVDB09026
p2206
g3
((lp2207
g65
atRp2208
sVDB08910
p2209
g3
((lp2210
VDCC1745
p2211
atRp2212
sVDB01238
p2213
g3
((lp2214
VDCC1546
p2215
atRp2216
sVDB01235
p2217
g3
((lp2218
VDCC0326
p2219
atRp2220
sVDB00055
p2221
g3
((lp2222
VDCC0849
p2223
atRp2224
sVDB01237
p2225
g3
((lp2226
VDCC1812
p2227
atRp2228
sVDB01236
p2229
g3
((lp2230
VDCC0327
p2231
atRp2232
sVDB00834
p2233
g3
((lp2234
VDCC1411
p2235
atRp2236
sVDB00835
p2237
g3
((lp2238
VDCC0210
p2239
atRp2240
sVDB00836
p2241
g3
((lp2242
VDCC0211
p2243
atRp2244
sVDB01232
p2245
g3
((lp2246
VDCC0324
p2247
atRp2248
sVDB06589
p2249
g3
((lp2250
VDCC0777
p2251
atRp2252
sVDB12617
p2253
g3
((lp2254
VDCC0440
p2255
atRp2256
sVDB06366
p2257
g3
((lp2258
VDCC1681
p2259
atRp2260
sVDB01394
p2261
g3
((lp2262
VDCC0342
p2263
atRp2264
sVDB01395
p2265
g3
((lp2266
VDCC0343
p2267
atRp2268
sVDB01421
p2269
g3
((lp2270
VDCC1587
p2271
atRp2272
sVDB01390
p2273
g3
((lp2274
VDCC0341
p2275
aVDCC0907
p2276
atRp2277
sVDB11699
p2278
g3
((lp2279
VDCC1021
p2280
atRp2281
sVDB00586
p2282
g3
((lp2283
VDCC0138
p2284
atRp2285
sVDB06401
p2286
g3
((lp2287
VDCC0665
p2288
atRp2289
sVDB09096
p2290
g3
((lp2291
VDCC0468
p2292
atRp2293
sVDB11998
p2294
g3
((lp2295
VDCC0457
p2296
atRp2297
sVDB01309
p2298
g3
((lp2299
VDCC1569
p2300
atRp2301
sVDB00198
p2302
g3
((lp2303
VDCC0019
p2304
atRp2305
sVDB08822
p2306
g3
((lp2307
VDCC1722
p2308
atRp2309
sVDB08826
p2310
g3
((lp2311
VDCC1723
p2312
atRp2313
sVDB01167
p2314
g3
((lp2315
VDCC1521
p2316
atRp2317
sVDB01166
p2318
g3
((lp2319
VDCC1520
p2320
atRp2321
sVDB00067
p2322
g3
((lp2323
VDCC1145
p2324
atRp2325
sVDB01168
p2326
g3
((lp2327
VDCC1522
p2328
atRp2329
sVDB00065
p2330
g3
((lp2331
VDCC1143
p2332
atRp2333
sVDB00063
p2334
g3
((lp2335
VDCC1142
p2336
atRp2337
sVDB01645
p2338
g3
((lp2339
VDCC0355
p2340
atRp2341
sVDB00060
p2342
g3
((lp2343
VDCC1140
p2344
atRp2345
sVDB01494
p2346
g3
((lp2347
g1225
atRp2348
sVDB12228
p2349
g3
((lp2350
VDCC0944
p2351
atRp2352
sVDB00678
p2353
g3
((lp2354
VDCC0169
p2355
atRp2356
sVDB01941
p2357
g3
((lp2358
VDCC0357
p2359
atRp2360
sVDB00788
p2361
g3
((lp2362
VDCC0196
p2363
atRp2364
sVDB00460
p2365
g3
((lp2366
VDCC1288
p2367
atRp2368
sVDB00465
p2369
g3
((lp2370
VDCC0920
p2371
atRp2372
sVDB00783
p2373
g3
((lp2374
VDCC1097
p2375
aVDCC0194
p2376
atRp2377
sVDB00781
p2378
g3
((lp2379
VDCC0193
p2380
atRp2381
sVDB00787
p2382
g3
((lp2383
VDCC0195
p2384
atRp2385
sVDB01015
p2386
g3
((lp2387
VDCC0266
p2388
atRp2389
sVDB01017
p2390
g3
((lp2391
VDCC0268
p2392
atRp2393
sVDB01016
p2394
g3
((lp2395
VDCC0267
p2396
atRp2397
sVDB01010
p2398
g3
((lp2399
VDCC1822
p2400
atRp2401
sVDB01013
p2402
g3
((lp2403
VDCC1474
p2404
atRp2405
sVDB01012
p2406
g3
((lp2407
VDCC1473
p2408
atRp2409
sVDB00544
p2410
g3
((lp2411
VDCC0128
p2412
atRp2413
sVDB01264
p2414
g3
((lp2415
VDCC1552
p2416
atRp2417
sVDB00016
p2418
g3
((lp2419
VDCC1118
p2420
atRp2421
sVDB00541
p2422
g3
((lp2423
VDCC0126
p2424
atRp2425
sVDB00542
p2426
g3
((lp2427
VDCC0127
p2428
atRp2429
sVDB00015
p2430
g3
((lp2431
VDCC1117
p2432
atRp2433
sVDB00950
p2434
g3
((lp2435
VDCC0241
p2436
atRp2437
sVDB00766
p2438
g3
((lp2439
VDCC0190
p2440
atRp2441
sVDB00608
p2442
g3
((lp2443
VDCC1333
p2444
atRp2445
sVDB00760
p2446
g3
((lp2447
VDCC0188
p2448
atRp2449
sVDB00945
p2450
g3
((lp2451
VDCC0240
p2452
atRp2453
sVDB00762
p2454
g3
((lp2455
VDCC0189
p2456
atRp2457
sVDB00947
p2458
g3
((lp2459
VDCC1450
p2460
atRp2461
sVDB00603
p2462
g3
((lp2463
VDCC0908
p2464
atRp2465
sVDB00602
p2466
g3
((lp2467
VDCC1330
p2468
atRp2469
sVDB00601
p2470
g3
((lp2471
VDCC0144
p2472
atRp2473
sVDB00607
p2474
g3
((lp2475
VDCC1332
p2476
atRp2477
sVDB04815
p2478
g3
((lp2479
VDCC0368
p2480
atRp2481
sVDB00864
p2482
g3
((lp2483
VDCC0218
p2484
atRp2485
sVDB01233
p2486
g3
((lp2487
VDCC1545
p2488
atRp2489
sVDB12770
p2490
g3
((lp2491
VDCC0385
p2492
atRp2493
sVDB00307
p2494
g3
((lp2495
VDCC1242
p2496
atRp2497
sVDB00304
p2498
g3
((lp2499
VDCC1241
p2500
atRp2501
sVDB00305
p2502
g3
((lp2503
VDCC0046
p2504
atRp2505
sVDB00303
p2506
g3
((lp2507
VDCC1240
p2508
atRp2509
sVDB00300
p2510
g3
((lp2511
VDCC0045
p2512
atRp2513
sVDB00301
p2514
g3
((lp2515
VDCC1239
p2516
atRp2517
sVDB00264
p2518
g3
((lp2519
VDCC0036
p2520
atRp2521
sVDB09075
p2522
g3
((lp2523
VDCC1046
p2524
atRp2525
sVDB00263
p2526
g3
((lp2527
VDCC0035
p2528
atRp2529
sVDB00262
p2530
g3
((lp2531
VDCC1224
p2532
atRp2533
sVDB00115
p2534
g3
((lp2535
VDCC0013
p2536
atRp2537
sVDB06149
p2538
g3
((lp2539
VDCC1661
p2540
atRp2541
sVDB00112
p2542
g3
((lp2543
VDCC0012
p2544
atRp2545
sVDB00318
p2546
g3
((lp2547
VDCC0051
p2548
atRp2549
sVDB12313
p2550
g3
((lp2551
VDCC0990
p2552
atRp2553
sVDB06147
p2554
g3
((lp2555
VDCC1861
p2556
atRp2557
sVDB04845
p2558
g3
((lp2559
VDCC1639
p2560
atRp2561
sVDB00286
p2562
g3
((lp2563
VDCC0552
p2564
atRp2565
sVDB00285
p2566
g3
((lp2567
VDCC1231
p2568
atRp2569
sVDB00091
p2570
g3
((lp2571
VDCC0011
p2572
atRp2573
sVDB00283
p2574
g3
((lp2575
VDCC0041
p2576
atRp2577
sVDB00281
p2578
g3
((lp2579
VDCC0040
p2580
atRp2581
sVDB04849
p2582
g3
((lp2583
VDCC0723
p2584
atRp2585
sVDB00097
p2586
g3
((lp2587
VDCC1160
p2588
atRp2589
sVDB00072
p2590
g3
((lp2591
VDCC0008
p2592
atRp2593
sVDB04960
p2594
g3
((lp2595
VDCC0410
p2596
atRp2597
sVDB00736
p2598
g3
((lp2599
VDCC1377
p2600
atRp2601
sVDB00165
p2602
g3
((lp2603
VDCC1188
p2604
atRp2605
sVDB06708
p2606
g3
((lp2607
VDCC0374
p2608
atRp2609
sVDB00169
p2610
g3
((lp2611
VDCC0887
p2612
atRp2613
sVDB00098
p2614
g3
((lp2615
VDCC1161
p2616
atRp2617
sVDB01299
p2618
g3
((lp2619
VDCC0339
p2620
atRp2621
sVDB00099
p2622
g3
((lp2623
VDCC1162
p2624
atRp2625
sVDB01609
p2626
g3
((lp2627
VDCC1599
p2628
atRp2629
sVDB00996
p2630
g3
((lp2631
VDCC0258
p2632
atRp2633
sVDB01294
p2634
g3
((lp2635
VDCC0338
p2636
atRp2637
sVDB06681
p2638
g3
((lp2639
VDCC1693
p2640
atRp2641
sVDB00599
p2642
g3
((lp2643
VDCC1329
p2644
atRp2645
sVDB03419
p2646
g3
((lp2647
VDCC1624
p2648
atRp2649
sVDB00993
p2650
g3
((lp2651
VDCC1468
p2652
atRp2653
sVDB00841
p2654
g3
((lp2655
VDCC1412
p2656
atRp2657
sVDB00843
p2658
g3
((lp2659
VDCC1414
p2660
atRp2661
sVDB00845
p2662
g3
((lp2663
VDCC0212
p2664
atRp2665
sVDB01263
p2666
g3
((lp2667
VDCC0335
p2668
atRp2669
sVDB00846
p2670
g3
((lp2671
VDCC1828
p2672
atRp2673
sVDB06707
p2674
g3
((lp2675
VDCC0373
p2676
atRp2677
sVDB01268
p2678
g3
((lp2679
VDCC0336
p2680
atRp2681
sVDB00260
p2682
g3
((lp2683
VDCC0034
p2684
atRp2685
sVDB00439
p2686
g3
((lp2687
VDCC0092
p2688
atRp2689
sVDB01048
p2690
g3
((lp2691
VDCC0281
p2692
atRp2693
sVDB02325
p2694
g3
((lp2695
VDCC0886
p2696
atRp2697
sVDB01046
p2698
g3
((lp2699
VDCC1482
p2700
atRp2701
sVDB01356
p2702
g3
((lp2703
VDCC1574
p2704
aVDCC0818
p2705
atRp2706
sVDB01044
p2707
g3
((lp2708
VDCC0279
p2709
atRp2710
sVDB05812
p2711
g3
((lp2712
VDCC0613
p2713
atRp2714
sVDB01042
p2715
g3
((lp2716
VDCC0278
p2717
atRp2718
sVDB01043
p2719
g3
((lp2720
VDCC1481
p2721
atRp2722
sVDB00853
p2723
g3
((lp2724
VDCC0215
p2725
atRp2726
sVDB00598
p2727
g3
((lp2728
VDCC1328
p2729
atRp2730
sVDB01114
p2731
g3
((lp2732
VDCC0298
p2733
atRp2734
sVDB00999
p2735
g3
((lp2736
VDCC0260
p2737
atRp2738
sVDB00450
p2739
g3
((lp2740
VDCC1282
p2741
atRp2742
sVDB01190
p2743
g3
((lp2744
VDCC0313
p2745
atRp2746
sVDB00501
p2747
g3
((lp2748
VDCC0113
p2749
atRp2750
sVDB01192
p2751
g3
((lp2752
VDCC1530
p2753
atRp2754
sVDB00503
p2755
g3
((lp2756
VDCC0114
p2757
atRp2758
sVDB01194
p2759
g3
((lp2760
VDCC0314
p2761
atRp2762
sVDB00506
p2763
g3
((lp2764
VDCC1301
p2765
atRp2766
sVDB01197
p2767
g3
((lp2768
VDCC0315
p2769
atRp2770
sVDB00809
p2771
g3
((lp2772
VDCC0202
p2773
atRp2774
sVDB00808
p2775
g3
((lp2776
VDCC0201
p2777
atRp2778
sVDB00593
p2779
g3
((lp2780
VDCC0141
p2781
atRp2782
sVDB06817
p2783
g3
((lp2784
VDCC0802
p2785
atRp2786
sVDB04106
p2787
g3
((lp2788
VDCC1628
p2789
atRp2790
sVDB00349
p2791
g3
((lp2792
VDCC1252
p2793
atRp2794
sVDB00359
p2795
g3
((lp2796
VDCC1256
p2797
atRp2798
sVDB06273
p2799
g3
((lp2800
VDCC1676
p2801
atRp2802
sVDB00591
p2803
g3
((lp2804
VDCC0140
p2805
atRp2806
sVDB00481
p2807
g3
((lp2808
VDCC0104
p2809
atRp2810
sVDB00480
p2811
g3
((lp2812
VDCC0103
p2813
atRp2814
sVDB00482
p2815
g3
((lp2816
VDCC0105
p2817
atRp2818
sVDB00484
p2819
g3
((lp2820
VDCC0106
p2821
atRp2822
sVDB00339
p2823
g3
((lp2824
VDCC0062
p2825
atRp2826
sVDB00338
p2827
g3
((lp2828
VDCC0061
p2829
atRp2830
sVDB00337
p2831
g3
((lp2832
VDCC1249
p2833
atRp2834
sVDB01638
p2835
g3
((lp2836
VDCC0794
p2837
atRp2838
sVDB05259
p2839
g3
((lp2840
VDCC0370
p2841
atRp2842
sVDB00334
p2843
g3
((lp2844
VDCC0059
p2845
atRp2846
sVDB00725
p2847
g3
((lp2848
VDCC0182
p2849
atRp2850
sVDB00331
p2851
g3
((lp2852
VDCC0057
p2853
atRp2854
sVDB00330
p2855
g3
((lp2856
VDCC0056
p2857
atRp2858
sVDB00427
p2859
g3
((lp2860
VDCC0087
p2861
atRp2862
sVDB00047
p2863
g3
((lp2864
VDCC1133
p2865
atRp2866
sVDB00412
p2867
g3
((lp2868
VDCC0082
p2869
atRp2870
sVDB01104
p2871
g3
((lp2872
VDCC1498
p2873
atRp2874
sVDB08870
p2875
g3
((lp2876
VDCC1728
p2877
atRp2878
sVDB08873
p2879
g3
((lp2880
VDCC0764
p2881
atRp2882
sVDB03823
p2883
g3
((lp2884
VDCC0365
p2885
atRp2886
sVDB00335
p2887
g3
((lp2888
VDCC0060
p2889
atRp2890
sVDB00023
p2891
g3
((lp2892
VDCC0004
p2893
atRp2894
sVDB00022
p2895
g3
((lp2896
g985
atRp2897
sVDB00020
p2898
g3
((lp2899
VDCC1121
p2900
atRp2901
sVDB06825
p2902
g3
((lp2903
VDCC0834
p2904
atRp2905
sVDB06824
p2906
g3
((lp2907
VDCC0532
p2908
atRp2909
sVDB00343
p2910
g3
((lp2911
VDCC0064
p2912
atRp2913
sVDB00436
p2914
g3
((lp2915
VDCC0090
p2916
atRp2917
sVDB00341
p2918
g3
((lp2919
VDCC0063
p2920
atRp2921
sVDB01129
p2922
g3
((lp2923
VDCC0301
p2924
atRp2925
sVDB01128
p2926
g3
((lp2927
VDCC1508
p2928
atRp2929
sVDB00432
p2930
g3
((lp2931
VDCC0088
p2932
atRp2933
sVDB00433
p2934
g3
((lp2935
VDCC0089
p2936
atRp2937
sVDB00654
p2938
g3
((lp2939
VDCC0164
p2940
atRp2941
sVDB00158
p2942
g3
((lp2943
VDCC1183
p2944
atRp2945
sVDB00650
p2946
g3
((lp2947
VDCC0162
p2948
atRp2949
sVDB00652
p2950
g3
((lp2951
VDCC0163
p2952
atRp2953
sVDB00153
p2954
g3
((lp2955
VDCC1182
p2956
atRp2957
sVDB06772
p2958
g3
((lp2959
VDCC1707
p2960
atRp2961
sVDB00659
p2962
g3
((lp2963
VDCC1345
p2964
atRp2965
sVDB00938
p2966
g3
((lp2967
VDCC0239
p2968
atRp2969
sVDB00930
p2970
g3
((lp2971
VDCC1444
p2972
atRp2973
sVDB00932
p2974
g3
((lp2975
VDCC1445
p2976
atRp2977
sVDB00935
p2978
g3
((lp2979
VDCC1446
p2980
atRp2981
sVDB09279
p2982
g3
((lp2983
VDCC0700
p2984
atRp2985
sVDB00232
p2986
g3
((lp2987
VDCC1838
p2988
atRp2989
sVDB00230
p2990
g3
((lp2991
VDCC1210
p2992
atRp2993
sVDB03852
p2994
g3
((lp2995
VDCC0366
p2996
atRp2997
sVDB00238
p2998
g3
((lp2999
VDCC0030
p3000
atRp3001
sVDB00008
p3002
g3
((lp3003
VDCC0002
p3004
atRp3005
sVDB00332
p3006
g3
((lp3007
VDCC0058
p3008
atRp3009
sVDB06713
p3010
g3
((lp3011
VDCC1699
p3012
atRp3013
sVDB11919
p3014
g3
((lp3015
VDCC0666
p3016
atRp3017
sVDB08906
p3018
g3
((lp3019
VDCC1742
p3020
atRp3021
sVDB08907
p3022
g3
((lp3023
VDCC1743
p3024
atRp3025
sVDB00803
p3026
g3
((lp3027
VDCC0200
p3028
atRp3029
sVDB08903
p3030
g3
((lp3031
VDCC1740
p3032
atRp3033
sVDB08908
p3034
g3
((lp3035
VDCC1744
p3036
atRp3037
sVDB00007
p3038
g3
((lp3039
VDCC1112
p3040
atRp3041
sVDB00563
p3042
g3
((lp3043
VDCC0131
p3044
atRp3045
sVDB01229
p3046
g3
((lp3047
VDCC0323
p3048
atRp3049
sVDB01222
p3050
g3
((lp3051
VDCC0321
p3052
atRp3053
sVDB01223
p3054
g3
((lp3055
VDCC0322
p3056
atRp3057
sVDB01221
p3058
g3
((lp3059
VDCC0320
p3060
atRp3061
sVDB01224
p3062
g3
((lp3063
VDCC1541
p3064
atRp3065
sVDB01225
p3066
g3
((lp3067
VDCC1542
p3068
atRp3069
sVDB06674
p3070
g3
((lp3071
VDCC1692
p3072
atRp3073
s.