(dp1
VDB00596
p2
c__builtin__
set
p3
((lp4
VD07AC21
p5
atRp6
sVDB09167
p7
g3
((lp8
VN06AA16
p9
atRp10
sVDB04938
p11
g3
((lp12
VG03XC05
p13
atRp14
sVDB01179
p15
g3
((lp16
VD06BB04
p17
atRp18
sVDB01176
p19
g3
((lp20
VR06AE53
p21
aVR06AE03
p22
atRp23
sVDB01177
p24
g3
((lp25
VL01DB06
p26
atRp27
sVDB01174
p28
g3
((lp29
VN05CB01
p30
aVN03AA02
p31
atRp32
sVDB01175
p33
g3
((lp34
VN06AB10
p35
atRp36
sVDB01173
p37
g3
((lp38
VN04AB02
p39
aVM03BC51
p40
aVM03BC01
p41
atRp42
sVDB01170
p43
g3
((lp44
VC02LF01
p45
aVC02CC02
p46
aVS01EX01
p47
atRp48
sVDB01483
p49
g3
((lp50
VN05CA04
p51
atRp52
sVDB01002
p53
g3
((lp54
VN01BB10
p55
atRp56
sVDB01003
p57
g3
((lp58
VA07EB01
p59
aVR03BC01
p60
aVS01GX01
p61
aVS01GX51
p62
aVR01AC01
p63
aVR03AK04
p64
aVR03AK05
p65
aVR01AC51
p66
aVD11AH03
p67
atRp68
sVDB01001
p69
g3
((lp70
VR03AC02
p71
aVR03AK04
p72
aVR03CC02
p73
aVR03AL02
p74
atRp75
sVDB01007
p76
g3
((lp77
VG01AF08
p78
aVD01AC07
p79
atRp80
sVDB01005
p81
g3
((lp82
VL01XX05
p83
atRp84
sVDB00571
p85
g3
((lp86
VC07BA05
p87
aVC07AA05
p88
aVC07FA05
p89
atRp90
sVDB00570
p91
g3
((lp92
VL01CA01
p93
atRp94
sVDB00573
p95
g3
((lp96
VM01AE04
p97
atRp98
sVDB00572
p99
g3
((lp100
VA03BB02
p101
aVA03CB03
p102
aVS01FA05
p103
aVS01FA01
p104
aVN04AC01
p105
aVA03BA03
p106
aVA03BA01
p107
aVN04AC30
p108
atRp109
sVDB00575
p110
g3
((lp111
VN02CX02
p112
aVC02LC01
p113
aVC02AC01
p114
aVC02LC51
p115
aVS01EA03
p116
aVS01EA04
p117
atRp118
sVDB00574
p119
g3
((lp120
VA08AA02
p121
atRp122
sVDB00751
p123
g3
((lp124
VR06AX24
p125
aVS01GX10
p126
atRp127
sVDB00750
p128
g3
((lp129
VN01BB54
p130
aVN01BB04
p131
atRp132
sVDB00753
p133
g3
((lp134
VN01AB06
p135
atRp136
sVDB00752
p137
g3
((lp138
VN06AF04
p139
atRp140
sVDB00979
p141
g3
((lp142
VS01FA54
p143
aVS01FA04
p144
atRp145
sVDB00978
p146
g3
((lp147
VS01AE04
p148
aVJ01MA07
p149
atRp150
sVDB00209
p151
g3
((lp152
VG04BD09
p153
aVA03DA06
p154
atRp155
sVDB00756
p156
g3
((lp157
VD08AE01
p158
atRp159
sVDB00759
p160
g3
((lp161
VG01AA07
p162
aVJ01RA08
p163
aVS01AA02
p164
aVS02AA08
p165
aVA01AB13
p166
aVJ01AA09
p167
aVA01AB21
p168
aVA02BD02
p169
aVD06AA03
p170
aVD06AA02
p171
aVS01AA09
p172
aVJ01AA20
p173
aVD06AA04
p174
aVJ01AA06
p175
aVJ01AA07
p176
aVA02BD08
p177
aVS03AA02
p178
aVJ01AA03
p179
aVS01AA04
p180
atRp181
sVDB00206
p182
g3
((lp183
VC02LA01
p184
aVC02AA02
p185
aVC02LA71
p186
aVC02AA52
p187
aVC02LA51
p188
atRp189
sVDB00205
p190
g3
((lp191
VP01BD01
p192
aVP01BF04
p193
aVP01BD51
p194
atRp195
sVDB00204
p196
g3
((lp197
VC01BD04
p198
atRp199
sVDB00203
p200
g3
((lp201
VG04BE03
p202
aVG01AE10
p203
atRp204
sVDB00970
p205
g3
((lp206
VL01DA01
p207
atRp208
sVDB00201
p209
g3
((lp210
VN02BE01
p211
aVN06BC01
p212
aVR03DA20
p213
aVV04CG30
p214
atRp215
sVDB00972
p216
g3
((lp217
VR06AX19
p218
aVS01GX07
p219
aVR01AC03
p220
atRp221
sVDB00683
p222
g3
((lp223
VN05CD08
p224
atRp225
sVDB00682
p226
g3
((lp227
VB01AA03
p228
atRp229
sVDB00680
p230
g3
((lp231
VC01BG01
p232
atRp233
sVDB00687
p234
g3
((lp235
VH02AA02
p236
aVS03CA05
p237
aVS02CA07
p238
aVS01CA06
p239
atRp240
sVDB00686
p241
g3
((lp242
VC05BA04
p243
aVG04BX15
p244
atRp245
sVDB00685
p246
g3
((lp247
VJ01MA13
p248
atRp249
sVDB00688
p250
g3
((lp251
VL04AA06
p252
atRp253
sVDB00373
p254
g3
((lp255
VC07DA06
p256
aVS01ED51
p257
aVC07BA06
p258
aVS01ED01
p259
aVC07AA06
p260
atRp261
sVDB00372
p262
g3
((lp263
VR06AD03
p264
atRp265
sVDB00371
p266
g3
((lp267
VN05CX01
p268
aVN05BC01
p269
aVN05BC51
p270
atRp271
sVDB00370
p272
g3
((lp273
VN06AX11
p274
atRp275
sVDB00376
p276
g3
((lp277
VN04AA01
p278
atRp279
sVDB00374
p280
g3
((lp281
VB01AC21
p282
atRp283
sVDB00379
p284
g3
((lp285
VC01BB02
p286
atRp287
sVDB00378
p288
g3
((lp289
VG03FB08
p290
aVG03DB01
p291
aVG03FA14
p292
atRp293
sVDB06230
p294
g3
((lp295
VN07BB05
p296
atRp297
sVDB06237
p298
g3
((lp299
VG04BE10
p300
atRp301
sVDB04855
p302
g3
((lp303
VC01BD07
p304
atRp305
sVDB07637
p306
g3
((lp307
VH03BX02
p308
atRp309
sVDB00199
p310
g3
((lp311
VJ01FA01
p312
aVS01AA17
p313
aVD10AF52
p314
aVD10AF02
p315
atRp316
sVDB00198
p317
g3
((lp318
VJ05AH02
p319
atRp320
sVDB00197
p321
g3
((lp322
VA10BG01
p323
atRp324
sVDB00195
p325
g3
((lp326
VS01ED02
p327
aVS01ED52
p328
aVC07AB05
p329
atRp330
sVDB00193
p331
g3
((lp332
VN02AX02
p333
aVN02AX52
p334
atRp335
sVDB00191
p336
g3
((lp337
VA08AA01
p338
atRp339
sVDB06698
p340
g3
((lp341
VN07CA01
p342
atRp343
sVDB06699
p344
g3
((lp345
VL02BX02
p346
atRp347
sVDB06694
p348
g3
((lp349
VR01AA07
p350
aVR01AB06
p351
aVS01GA53
p352
aVS01GA03
p353
atRp354
sVDB06695
p355
g3
((lp356
VB01AE07
p357
atRp358
sVDB06692
p359
g3
((lp360
VB02AB01
p361
atRp362
sVDB00541
p363
g3
((lp364
VL01CA02
p365
atRp366
sVDB06691
p367
g3
((lp368
VR06AC01
p369
aVD04AA02
p370
atRp371
sVDB00997
p372
g3
((lp373
VL01DB01
p374
atRp375
sVDB00996
p376
g3
((lp377
VN03AX12
p378
atRp379
sVDB00995
p380
g3
((lp381
VM01CB03
p382
atRp383
sVDB00994
p384
g3
((lp385
VJ01GB05
p386
aVB05CA09
p387
aVA07AA01
p388
aVS02AA07
p389
aVS03AA01
p390
aVD09AA01
p391
aVR02AB01
p392
aVD06AX04
p393
aVA07AA51
p394
aVS01AA03
p395
aVR01AX08
p396
aVS01AA07
p397
aVA01AB08
p398
atRp399
sVDB00993
p400
g3
((lp401
VL04AX01
p402
atRp403
sVDB00992
p404
g3
((lp405
VL01XD03
p406
atRp407
sVDB00991
p408
g3
((lp409
VM01AE12
p410
atRp411
sVDB00999
p412
g3
((lp413
VG01AE10
p414
aVC03AB03
p415
aVC09XA52
p416
aVC03AA03
p417
aVC09XA54
p418
aVC03EA01
p419
aVC09DX01
p420
aVC09DX03
p421
aVC03AX01
p422
atRp423
sVDB00998
p424
g3
((lp425
VN02CC07
p426
atRp427
sVDB00542
p428
g3
((lp429
VC09AA07
p430
aVC09BA07
p431
atRp432
sVDB06151
p433
g3
((lp434
VV03AB23
p435
aVS01XA08
p436
aVR05CB01
p437
atRp438
sVDB05246
p439
g3
((lp440
VN03AD03
p441
atRp442
sVDB00078
p443
g3
((lp444
VV10XX02
p445
atRp446
sVDB02266
p447
g3
((lp448
VM01AG03
p449
atRp450
sVDB00072
p451
g3
((lp452
VL01XC03
p453
atRp454
sVDB00073
p455
g3
((lp456
VL01XC02
p457
atRp458
sVDB01367
p459
g3
((lp460
VN04BD02
p461
atRp462
sVDB01366
p463
g3
((lp464
VR03AC16
p465
aVR03CC08
p466
atRp467
sVDB01364
p468
g3
((lp469
VR01AA03
p470
aVC01CA26
p471
aVR01AB05
p472
aVR03CA02
p473
aVA08AA56
p474
aVS01FB02
p475
atRp476
sVDB08439
p477
g3
((lp478
VM01AH04
p479
atRp480
sVDB01109
p481
g3
((lp482
VS01XA09
p483
aVS01XA14
p484
aVB01AB51
p485
aVC05BA03
p486
aVC05BA01
p487
aVB01AB05
p488
aVB01AB01
p489
aVC05BA53
p490
atRp491
sVDB01108
p492
g3
((lp493
VH02CA01
p494
atRp495
sVDB01103
p496
g3
((lp497
VP01AX05
p498
atRp499
sVDB01102
p500
g3
((lp501
VC01CA22
p502
atRp503
sVDB01101
p504
g3
((lp505
VL01BC06
p506
atRp507
sVDB01100
p508
g3
((lp509
VN05AG02
p510
atRp511
sVDB01107
p512
g3
((lp513
VN05CE02
p514
atRp515
sVDB01106
p516
g3
((lp517
VS01GX02
p518
aVR01AC02
p519
atRp520
sVDB01105
p521
g3
((lp522
VA08AA10
p523
atRp524
sVDB01104
p525
g3
((lp526
VN06AB06
p527
atRp528
sVDB12248
p529
g3
((lp530
VR03AC11
p531
aVR03CC11
p532
atRp533
sVDB00579
p534
g3
((lp535
VA08AA05
p536
atRp537
sVDB00564
p538
g3
((lp539
VN03AF01
p540
atRp541
sVDB00562
p542
g3
((lp543
VG01AE10
p544
atRp545
sVDB00561
p546
g3
((lp547
VR07AB01
p548
atRp549
sVDB00568
p550
g3
((lp551
VN07CA02
p552
aVN07CA52
p553
atRp554
sVDB01567
p555
g3
((lp556
VN05BA17
p557
atRp558
sVDB11121
p559
g3
((lp560
VD08AE05
p561
atRp562
sVDB01616
p563
g3
((lp564
VA03AX58
p565
aVA03AX08
p566
atRp567
sVDB00968
p568
g3
((lp569
VC02AB02
p570
aVC02AB01
p571
atRp572
sVDB01614
p573
g3
((lp574
VN05AA04
p575
atRp576
sVDB01613
p577
g3
((lp578
VC01DA13
p579
aVC01DA63
p580
atRp581
sVDB00219
p582
g3
((lp583
VA03AB03
p584
aVA03AB53
p585
atRp586
sVDB01611
p587
g3
((lp588
VP01BA02
p589
atRp590
sVDB00749
p591
g3
((lp592
VM01AB08
p593
atRp594
sVDB00962
p595
g3
((lp596
VN05CF03
p597
atRp598
sVDB00963
p599
g3
((lp600
VS01BC11
p601
atRp602
sVDB00216
p603
g3
((lp604
VN02CC06
p605
atRp606
sVDB00961
p607
g3
((lp608
VN01BB03
p609
aVN01BB53
p610
atRp611
sVDB00210
p612
g3
((lp613
VD10AD53
p614
aVD10AD03
p615
atRp616
sVDB00211
p617
g3
((lp618
VC01CA17
p619
atRp620
sVDB00740
p621
g3
((lp622
VN07XX02
p623
atRp624
sVDB00741
p625
g3
((lp626
VS01BB01
p627
aVR01AD60
p628
aVD07BB04
p629
aVD07BA04
p630
aVD07AA02
p631
aVD07CA01
p632
aVA07EA02
p633
aVD07AB11
p634
aVA01AC03
p635
aVS01CA03
p636
aVD07AB02
p637
aVS03CA04
p638
aVD07AC16
p639
aVS01CB03
p640
aVS02CA03
p641
aVC05AA01
p642
aVH02AB09
p643
aVS01BA02
p644
aVD07XA01
p645
aVS02BA01
p646
atRp647
sVDB01587
p648
g3
((lp649
VN05BA10
p650
atRp651
sVDB01586
p652
g3
((lp653
VA05AA02
p654
atRp655
sVDB01580
p656
g3
((lp657
VC07CA02
p658
aVC07AA02
p659
aVC07BA02
p660
atRp661
sVDB01589
p662
g3
((lp663
VN05CD10
p664
atRp665
sVDB01588
p666
g3
((lp667
VN05BA11
p668
atRp669
sVDB00690
p670
g3
((lp671
VN05CD01
p672
atRp673
sVDB00691
p674
g3
((lp675
VC09AA13
p676
aVC09BA13
p677
atRp678
sVDB00692
p679
g3
((lp680
VC04AB01
p681
aVV03AB36
p682
atRp683
sVDB01009
p684
g3
((lp685
VM01AE53
p686
aVM01AE17
p687
aVM01AE03
p688
aVM02AA10
p689
atRp690
sVDB00694
p691
g3
((lp692
VL01DB02
p693
atRp694
sVDB00695
p695
g3
((lp696
VG01AE10
p697
aVC03EB01
p698
aVC03CB01
p699
aVC03CA01
p700
atRp701
sVDB00696
p702
g3
((lp703
VN02CA02
p704
aVN02CA01
p705
aVN02CA72
p706
aVN02CA52
p707
atRp708
sVDB00697
p709
g3
((lp710
VM03BX02
p711
atRp712
sVDB00699
p713
g3
((lp714
VC04AE02
p715
atRp716
sVDB00360
p717
g3
((lp718
VA16AX07
p719
atRp720
sVDB00361
p721
g3
((lp722
VL01CA04
p723
atRp724
sVDB00363
p725
g3
((lp726
VN05AH02
p727
atRp728
sVDB00364
p729
g3
((lp730
VA02BX02
p731
atRp732
sVDB06802
p733
g3
((lp734
VS01BC10
p735
atRp736
sVDB00366
p737
g3
((lp738
VR06AA09
p739
aVR06AA59
p740
atRp741
sVDB06800
p742
g3
((lp743
VA06AH01
p744
atRp745
sVDB00368
p746
g3
((lp747
VC01CA03
p748
atRp749
sVDB06809
p750
g3
((lp751
VL03AX16
p752
atRp753
sVDB01019
p754
g3
((lp755
VN07AB02
p756
atRp757
sVDB06756
p758
g3
((lp759
VA16AA06
p760
aVA09AB02
p761
atRp762
sVDB06207
p763
g3
((lp764
VG04CA04
p765
atRp766
sVDB06201
p767
g3
((lp768
VN03AF03
p769
atRp770
sVDB06751
p771
g3
((lp772
VA03AD02
p773
atRp774
sVDB06202
p775
g3
((lp776
VG03XC03
p777
atRp778
sVDB00755
p779
g3
((lp780
VD10AD51
p781
aVD10BA01
p782
aVL01XX14
p783
aVL01XX22
p784
aVD10AD04
p785
aVD10AD01
p786
atRp787
sVDB01018
p788
g3
((lp789
VC02AC02
p790
atRp791
sVDB00754
p792
g3
((lp793
VN03AB01
p794
atRp795
sVDB04880
p796
g3
((lp797
VC01CE03
p798
atRp799
sVDB00975
p800
g3
((lp801
VB01AC07
p802
aVC01DX20
p803
atRp804
sVDB00188
p805
g3
((lp806
VL01XX32
p807
atRp808
sVDB00184
p809
g3
((lp810
VN07BA01
p811
atRp812
sVDB00185
p813
g3
((lp814
VN07AX03
p815
atRp816
sVDB00187
p817
g3
((lp818
VC07AB09
p819
atRp820
sVDB00180
p821
g3
((lp822
VR03BA03
p823
aVR01AD04
p824
atRp825
sVDB00977
p826
g3
((lp827
VG03AA09
p828
aVG03AA08
p829
aVG03AB01
p830
aVG03AB06
p831
aVG03AB07
p832
aVG03AB04
p833
aVG03AB05
p834
aVG03AA01
p835
aVG03AA03
p836
aVG03AA02
p837
aVG03AA05
p838
aVG03AA04
p839
aVG03AA07
p840
aVG03AA06
p841
aVG03AB02
p842
aVG03CA01
p843
aVG03AB03
p844
aVG03AA16
p845
aVG03AA15
p846
aVG03AA12
p847
aVG03AA13
p848
aVG03AA10
p849
aVG03AA11
p850
aVL02AA03
p851
atRp852
sVDB00182
p853
g3
((lp854
VN06BA01
p855
aVN06BA02
p856
atRp857
sVDB00183
p858
g3
((lp859
VV04CG04
p860
atRp861
sVDB00202
p862
g3
((lp863
VM03AB01
p864
atRp865
sVDB00973
p866
g3
((lp867
VC10BA02
p868
aVC10AX09
p869
aVC10BA06
p870
aVC10BA05
p871
atRp872
sVDB00200
p873
g3
((lp874
VB03BA53
p875
aVB03BA03
p876
aVV03AB33
p877
atRp878
sVDB00985
p879
g3
((lp880
VR03DA20
p881
atRp882
sVDB00986
p883
g3
((lp884
VR03BB06
p885
aVR03AL04
p886
aVA03AB02
p887
aVA03CA05
p888
atRp889
sVDB00987
p890
g3
((lp891
VL01BC01
p892
atRp893
sVDB00980
p894
g3
((lp895
VN05CH02
p896
atRp897
sVDB00981
p898
g3
((lp899
VS01EB05
p900
aVV03AB19
p901
atRp902
sVDB00982
p903
g3
((lp904
VD10BA01
p905
aVD10AD04
p906
aVD10AD54
p907
atRp908
sVDB00983
p909
g3
((lp910
VR03AC13
p911
aVR03AK11
p912
aVR03AK07
p913
aVR03AL05
p914
aVR03AK08
p915
aVR03AK09
p916
atRp917
sVDB00988
p918
g3
((lp919
VC01CA04
p920
atRp921
sVDB00989
p922
g3
((lp923
VN06DA03
p924
atRp925
sVDB06594
p926
g3
((lp927
VN06AX22
p928
atRp929
sVDB06372
p930
g3
((lp931
VL04AC04
p932
atRp933
sVDB02901
p934
g3
((lp935
VA14AA01
p936
aVG03BB02
p937
atRp938
sVDB05271
p939
g3
((lp940
VN04BC09
p941
atRp942
sVDB03615
p943
g3
((lp944
VJ01GB10
p945
atRp946
sVDB01677
p947
g3
((lp948
VD05AX01
p949
atRp950
sVDB05013
p951
g3
((lp952
VD06BX02
p953
atRp954
sVDB05015
p955
g3
((lp956
VL01XX49
p957
atRp958
sVDB09462
p959
g3
((lp960
VA06AG04
p961
aVA06AX01
p962
atRp963
sVDB05294
p964
g3
((lp965
VL01XE12
p966
atRp967
sVDB09107
p968
g3
((lp969
VB03XA03
p970
atRp971
sVDB09105
p972
g3
((lp973
VA16AB13
p974
atRp975
sVDB01370
p976
g3
((lp977
VA02AB03
p978
atRp979
sVDB01373
p980
g3
((lp981
VA11AA02
p982
aVA01AD11
p983
aVA11HA31
p984
aVV03AF03
p985
aVA12AA06
p986
aVD11AX03
p987
aVV03AF04
p988
aVA11GB01
p989
aVA12AA30
p990
aVA12AA12
p991
aVA02AC01
p992
aVA12AA10
p993
aVA12AA11
p994
aVN07BB02
p995
aVB05XA07
p996
aVD03AX04
p997
aVB01AC08
p998
aVM05BB01
p999
aVM05BB02
p1000
aVV08AC10
p1001
aVA02AC02
p1002
aVM05BB05
p1003
aVM05BB04
p1004
aVM05BB08
p1005
aVG04BA03
p1006
aVR01AX01
p1007
aVA07XA03
p1008
aVA12AA01
p1009
aVA12AA03
p1010
aVA12AA02
p1011
aVA12AA05
p1012
aVA12AA04
p1013
aVA12AA07
p1014
aVA12AA20
p1015
aVA12AA09
p1016
aVA12AA08
p1017
aVV03AE01
p1018
aVA11GA01
p1019
aVB02BC08
p1020
aVA06AC08
p1021
aVC05BX01
p1022
aVJ04AA03
p1023
aVN02BA15
p1024
atRp1025
sVDB01378
p1026
g3
((lp1027
VD11AX05
p1028
aVA06AD19
p1029
aVG04BX01
p1030
aVC10AX07
p1031
aVB05XA05
p1032
aVA12CC10
p1033
aVA02AA04
p1034
aVA02AA05
p1035
aVA02AA02
p1036
aVA02AA03
p1037
aVA02AA01
p1038
aVA12CC30
p1039
aVA06AD04
p1040
aVA06AD03
p1041
aVA06AD02
p1042
aVA06AD01
p1043
aVV04CC02
p1044
aVB05XA10
p1045
aVB05XA11
p1046
aVA12CC09
p1047
aVA12CC08
p1048
aVB05CB03
p1049
aVA12CC01
p1050
aVA12CC03
p1051
aVA12CC02
p1052
aVA12CC05
p1053
aVA12CC04
p1054
aVA12CC07
p1055
aVA12CC06
p1056
atRp1057
sVDB01118
p1058
g3
((lp1059
VC01BD01
p1060
atRp1061
sVDB01119
p1062
g3
((lp1063
VG01AE10
p1064
aVC02DA01
p1065
aVV03AH01
p1066
atRp1067
sVDB01110
p1068
g3
((lp1069
VS02AA13
p1070
aVJ02AB01
p1071
aVG01AF04
p1072
aVD01AC02
p1073
aVA07AC01
p1074
aVD01AC52
p1075
aVA01AB09
p1076
atRp1077
sVDB06605
p1078
g3
((lp1079
VB01AF02
p1080
atRp1081
sVDB01113
p1082
g3
((lp1083
VG04BE02
p1084
aVG04BE52
p1085
aVA03AD01
p1086
atRp1087
sVDB01114
p1088
g3
((lp1089
VR06AB02
p1090
aVR06AB54
p1091
aVR06AB04
p1092
atRp1093
sVDB01115
p1094
g3
((lp1095
VC08CA55
p1096
aVC08CA05
p1097
aVC08GA01
p1098
atRp1099
sVDB01117
p1100
g3
((lp1101
VP01AX06
p1102
atRp1103
sVDB12478
p1104
g3
((lp1105
VN04BC08
p1106
atRp1107
sVDB00513
p1108
g3
((lp1109
VB02AA01
p1110
atRp1111
sVDB00511
p1112
g3
((lp1113
VC01AA01
p1114
atRp1115
sVDB00515
p1116
g3
((lp1117
VL01XA01
p1118
atRp1119
sVDB00514
p1120
g3
((lp1121
VN07XX59
p1122
aVR05DA09
p1123
atRp1124
sVDB00519
p1125
g3
((lp1126
VC09AA10
p1127
aVC09BB10
p1128
atRp1129
sVDB00518
p1130
g3
((lp1131
VP02CA03
p1132
atRp1133
sVDB13872
p1134
g3
((lp1135
VN05CD06
p1136
atRp1137
sVDB13873
p1138
g3
((lp1139
VC10AB11
p1140
atRp1141
sVDB01576
p1142
g3
((lp1143
VN06BA02
p1144
atRp1145
sVDB01577
p1146
g3
((lp1147
VN06BA03
p1148
atRp1149
sVDB00228
p1150
g3
((lp1151
VN01AB04
p1152
atRp1153
sVDB00738
p1154
g3
((lp1155
VP01CX01
p1156
atRp1157
sVDB01600
p1158
g3
((lp1159
VM01AE11
p1160
atRp1161
sVDB00221
p1162
g3
((lp1163
VR03CC06
p1164
aVR03AC07
p1165
atRp1166
sVDB00223
p1167
g3
((lp1168
VD07AC10
p1169
atRp1170
sVDB00222
p1171
g3
((lp1172
VA10BB12
p1173
aVA10BD06
p1174
aVA10BD04
p1175
atRp1176
sVDB01608
p1177
g3
((lp1178
VN05AC01
p1179
atRp1180
sVDB00736
p1181
g3
((lp1182
VA02BC05
p1183
aVA02BD06
p1184
aVM01AE52
p1185
aVA02BC01
p1186
atRp1187
sVDB00735
p1188
g3
((lp1189
VD01AE22
p1190
atRp1191
sVDB00734
p1192
g3
((lp1193
VN05AX08
p1194
atRp1195
sVDB01594
p1196
g3
((lp1197
VN05CD13
p1198
atRp1199
sVDB01595
p1200
g3
((lp1201
VN05CD02
p1202
atRp1203
sVDB01590
p1204
g3
((lp1205
VL04AA18
p1206
aVL01XE10
p1207
atRp1208
sVDB01591
p1209
g3
((lp1210
VG04BD08
p1211
aVG04CA53
p1212
atRp1213
sVDB01592
p1214
g3
((lp1215
VA11AA01
p1216
aVB03AA03
p1217
aVB03AE04
p1218
aVB03AA01
p1219
aVB03AA02
p1220
aVB03AA10
p1221
aVB03AE01
p1222
aVB03AA06
p1223
aVB03AE03
p1224
aVB03AD02
p1225
aVB03AE02
p1226
atRp1227
sVDB01593
p1228
g3
((lp1229
VA16AX05
p1230
aVB05XA12
p1231
atRp1232
sVDB01599
p1233
g3
((lp1234
VC10AX02
p1235
atRp1236
sVDB03255
p1237
g3
((lp1238
VC05BB05
p1239
aVN01BX03
p1240
aVR02AA19
p1241
aVD08AE03
p1242
atRp1243
sVDB00358
p1244
g3
((lp1245
VP01BF02
p1246
aVP01BC02
p1247
atRp1248
sVDB00429
p1249
g3
((lp1250
VG02AD04
p1251
atRp1252
sVDB00428
p1253
g3
((lp1254
VL01AD04
p1255
atRp1256
sVDB00427
p1257
g3
((lp1258
VR06AX07
p1259
atRp1260
sVDB00354
p1261
g3
((lp1262
VR06AE01
p1263
aVR06AE51
p1264
atRp1265
sVDB00425
p1266
g3
((lp1267
VN05CF02
p1268
atRp1269
sVDB00356
p1270
g3
((lp1271
VM03BB53
p1272
aVM03BB03
p1273
aVM03BB73
p1274
atRp1275
sVDB00423
p1276
g3
((lp1277
VM03BA73
p1278
aVM03BA03
p1279
aVM03BA53
p1280
atRp1281
sVDB00422
p1282
g3
((lp1283
VN06BA04
p1284
atRp1285
sVDB00421
p1286
g3
((lp1287
VC03DA01
p1288
atRp1289
sVDB00420
p1290
g3
((lp1291
VN05AA03
p1292
atRp1293
sVDB00647
p1294
g3
((lp1295
VN02AC54
p1296
aVN02AC74
p1297
aVN02AC04
p1298
atRp1299
sVDB00645
p1300
g3
((lp1301
VN01BX02
p1302
aVR02AD04
p1303
atRp1304
sVDB00644
p1305
g3
((lp1306
VV04CM01
p1307
aVH01CA01
p1308
atRp1309
sVDB00643
p1310
g3
((lp1311
VP02CA01
p1312
aVP02CA51
p1313
atRp1314
sVDB00642
p1315
g3
((lp1316
VL01BA04
p1317
atRp1318
sVDB00641
p1319
g3
((lp1320
VA10BH51
p1321
aVC10AA01
p1322
aVC10BX01
p1323
aVC10BA02
p1324
aVC10BA04
p1325
aVC10BX04
p1326
atRp1327
sVDB00640
p1328
g3
((lp1329
VC01EB10
p1330
atRp1331
sVDB06212
p1332
g3
((lp1333
VC03XA01
p1334
atRp1335
sVDB06213
p1336
g3
((lp1337
VC01EB21
p1338
atRp1339
sVDB06210
p1340
g3
((lp1341
VB02BX05
p1342
atRp1343
sVDB06216
p1344
g3
((lp1345
VN05AH05
p1346
atRp1347
sVDB06217
p1348
g3
((lp1349
VC01BG11
p1350
atRp1351
sVDB00648
p1352
g3
((lp1353
VL01XX23
p1354
atRp1355
sVDB06813
p1356
g3
((lp1357
VL01BA05
p1358
atRp1359
sVDB06589
p1360
g3
((lp1361
VL01XE11
p1362
atRp1363
sVDB06366
p1364
g3
((lp1365
VL01XC13
p1366
atRp1367
sVDB09292
p1368
g3
((lp1369
VC09DX04
p1370
atRp1371
sVDB05266
p1372
g3
((lp1373
VR03DC04
p1374
atRp1375
sVDB09140
p1376
g3
((lp1377
VV03AN01
p1378
atRp1379
sVDB00737
p1380
g3
((lp1381
VR06AE05
p1382
aVR06AE55
p1383
atRp1384
sVDB02640
p1385
g3
((lp1386
VP01AX10
p1387
atRp1388
sVDB12319
p1389
g3
((lp1390
VM04AB03
p1391
atRp1392
sVDB11591
p1393
g3
((lp1394
VR06AX29
p1395
atRp1396
sVDB11598
p1397
g3
((lp1398
VB01AB02
p1399
atRp1400
sVDB00312
p1401
g3
((lp1402
VN05CA01
p1403
aVN05CB01
p1404
atRp1405
sVDB01291
p1406
g3
((lp1407
VR03AC08
p1408
aVR03CC07
p1409
atRp1410
sVDB01297
p1411
g3
((lp1412
VC07AB01
p1413
atRp1414
sVDB01296
p1415
g3
((lp1416
VM01AX05
p1417
atRp1418
sVDB01295
p1419
g3
((lp1420
VC07BB06
p1421
aVC07AB06
p1422
atRp1423
sVDB09112
p1424
g3
((lp1425
VV03AB08
p1426
atRp1427
sVDB07477
p1428
g3
((lp1429
VM02AA08
p1430
atRp1431
sVDB09118
p1432
g3
((lp1433
VN03AX17
p1434
atRp1435
sVDB09119
p1436
g3
((lp1437
VN03AF04
p1438
atRp1439
sVDB01349
p1440
g3
((lp1441
VC09CA05
p1442
atRp1443
sVDB01348
p1444
g3
((lp1445
VC09AA11
p1446
atRp1447
sVDB01345
p1448
g3
((lp1449
VC03AB06
p1450
aVC03AB07
p1451
aVC03AB04
p1452
aVC03AB05
p1453
aVC03AB02
p1454
aVC03AB03
p1455
aVC03AB01
p1456
aVB05XA17
p1457
aVC03AB08
p1458
aVC03AB09
p1459
aVC03CB02
p1460
aVC03BB03
p1461
aVC03BB02
p1462
aVC03BB07
p1463
aVC03CB01
p1464
aVC03BB05
p1465
aVC03BB04
p1466
atRp1467
sVDB01340
p1468
g3
((lp1469
VC09BA08
p1470
aVC09AA08
p1471
atRp1472
sVDB12465
p1473
g3
((lp1474
VC02KD01
p1475
atRp1476
sVDB00500
p1477
g3
((lp1478
VM01AB03
p1479
aVM02AA21
p1480
atRp1481
sVDB00502
p1482
g3
((lp1483
VN05AD01
p1484
atRp1485
sVDB00503
p1486
g3
((lp1487
VJ05AX67
p1488
aVJ05AE03
p1489
aVJ05AR10
p1490
aVJ05AX66
p1491
atRp1492
sVDB00505
p1493
g3
((lp1494
VA03AB08
p1495
atRp1496
sVDB00508
p1497
g3
((lp1498
VN05AA05
p1499
atRp1500
sVDB00509
p1501
g3
((lp1502
VC10AX01
p1503
atRp1504
sVDB00728
p1505
g3
((lp1506
VM03AC09
p1507
atRp1508
sVDB13192
p1509
g3
((lp1510
VB02BD02
p1511
atRp1512
sVDB13191
p1513
g3
((lp1514
VC01EB06
p1515
atRp1516
sVDB00720
p1517
g3
((lp1518
VM05BA02
p1519
atRp1520
sVDB00721
p1521
g3
((lp1522
VJ01CE09
p1523
aVC01BA02
p1524
aVD04AB03
p1525
aVN01BA52
p1526
aVS01HA05
p1527
aVN01BA02
p1528
aVC05AD05
p1529
aVS01HA02
p1530
aVN01BA04
p1531
atRp1532
sVDB00722
p1533
g3
((lp1534
VC09AA03
p1535
aVC09BA03
p1536
aVC09BB03
p1537
aVC10BX07
p1538
atRp1539
sVDB00723
p1540
g3
((lp1541
VC01CA10
p1542
atRp1543
sVDB00724
p1544
g3
((lp1545
VD06BB10
p1546
atRp1547
sVDB00725
p1548
g3
((lp1549
VA02BX03
p1550
aVA03CB04
p1551
atRp1552
sVDB00726
p1553
g3
((lp1554
VN06AA06
p1555
atRp1556
sVDB00727
p1557
g3
((lp1558
VC01DA02
p1559
aVC01DA52
p1560
aVC05AE01
p1561
atRp1562
sVDB00412
p1563
g3
((lp1564
VA10BD03
p1565
aVA10BG02
p1566
aVA10BD04
p1567
atRp1568
sVDB01124
p1569
g3
((lp1570
VV04CA01
p1571
aVA10BB03
p1572
atRp1573
sVDB00348
p1574
g3
((lp1575
VA16AX04
p1576
atRp1577
sVDB06822
p1578
g3
((lp1579
VB01AB10
p1580
atRp1581
sVDB06825
p1582
g3
((lp1583
VL02AE04
p1584
atRp1585
sVDB00439
p1586
g3
((lp1587
VC10AA06
p1588
atRp1589
sVDB01122
p1590
g3
((lp1591
VN07AA30
p1592
atRp1593
sVDB00342
p1594
g3
((lp1595
VR06AX12
p1596
atRp1597
sVDB00343
p1598
g3
((lp1599
VC05AE03
p1600
aVC08DB01
p1601
atRp1602
sVDB00436
p1603
g3
((lp1604
VG01AE10
p1605
aVC03AA01
p1606
aVC03EA13
p1607
aVC03AB01
p1608
atRp1609
sVDB00341
p1610
g3
((lp1611
VR06AE07
p1612
aVR06AE09
p1613
atRp1614
sVDB00346
p1615
g3
((lp1616
VG04CA01
p1617
aVG04CA51
p1618
atRp1619
sVDB00347
p1620
g3
((lp1621
VN03AC02
p1622
atRp1623
sVDB00344
p1624
g3
((lp1625
VN06AA11
p1626
atRp1627
sVDB00433
p1628
g3
((lp1629
VN05AB04
p1630
atRp1631
sVDB06779
p1632
g3
((lp1633
VB01AB04
p1634
atRp1635
sVDB00655
p1636
g3
((lp1637
VG03CA07
p1638
aVG03CC04
p1639
atRp1640
sVDB00656
p1641
g3
((lp1642
VN06AX05
p1643
atRp1644
sVDB00657
p1645
g3
((lp1646
VC02BB01
p1647
atRp1648
sVDB00651
p1649
g3
((lp1650
VR03DB01
p1651
aVR03DA01
p1652
aVR03DA20
p1653
aVR03DA51
p1654
atRp1655
sVDB00652
p1656
g3
((lp1657
VN02AD01
p1658
atRp1659
sVDB00653
p1660
g3
((lp1661
VD11AX05
p1662
aVV04CC02
p1663
aVA06AD04
p1664
aVB05XA05
p1665
aVA12CC02
p1666
atRp1667
sVDB06772
p1668
g3
((lp1669
VL01CD04
p1670
atRp1671
sVDB06775
p1672
g3
((lp1673
VA16AA05
p1674
atRp1675
sVDB06774
p1676
g3
((lp1677
VM02AB01
p1678
aVN01BX04
p1679
atRp1680
sVDB06777
p1681
g3
((lp1682
VA05AA01
p1683
atRp1684
sVDB04552
p1685
g3
((lp1686
VM01AX02
p1687
aVM02AA17
p1688
atRp1689
sVDB04884
p1690
g3
((lp1691
VG04BX14
p1692
atRp1693
sVDB00234
p1694
g3
((lp1695
VN06AX18
p1696
atRp1697
sVDB00235
p1698
g3
((lp1699
VC01CE02
p1700
atRp1701
sVDB00232
p1702
g3
((lp1703
VG01AE10
p1704
aVC03AA08
p1705
aVC03AB08
p1706
atRp1707
sVDB00233
p1708
g3
((lp1709
VJ04AA03
p1710
aVJ04AA02
p1711
aVJ04AA01
p1712
atRp1713
sVDB00230
p1714
g3
((lp1715
VN03AX16
p1716
atRp1717
sVDB00231
p1718
g3
((lp1719
VN05CD07
p1720
atRp1721
sVDB08486
p1722
g3
((lp1723
VL01XD06
p1724
atRp1725
sVDB00239
p1726
g3
((lp1727
VD01AC11
p1728
aVG01AF20
p1729
aVG01AF17
p1730
atRp1731
sVDB06176
p1732
g3
((lp1733
VL01XX39
p1734
atRp1735
sVDB00005
p1736
g3
((lp1737
VL04AB01
p1738
atRp1739
sVDB00555
p1740
g3
((lp1741
VN03AX09
p1742
atRp1743
sVDB04956
p1744
g3
((lp1745
VL04AB03
p1746
atRp1747
sVDB00006
p1748
g3
((lp1749
VB01AE06
p1750
atRp1751
sVDB04953
p1752
g3
((lp1753
VN03AX21
p1754
atRp1755
sVDB04951
p1756
g3
((lp1757
VL04AX05
p1758
atRp1759
sVDB00953
p1760
g3
((lp1761
VN02CC04
p1762
atRp1763
sVDB00952
p1764
g3
((lp1765
VN02CC02
p1766
atRp1767
sVDB00950
p1768
g3
((lp1769
VR06AX26
p1770
atRp1771
sVDB00957
p1772
g3
((lp1773
VG03FA13
p1774
aVG03AA11
p1775
atRp1776
sVDB00772
p1777
g3
((lp1778
VP03AX03
p1779
atRp1780
sVDB04573
p1781
g3
((lp1782
VG03CC06
p1783
aVG03CA04
p1784
atRp1785
sVDB06480
p1786
g3
((lp1787
VA06AX05
p1788
atRp1789
sVDB00674
p1790
g3
((lp1791
VN06DA04
p1792
atRp1793
sVDB09280
p1794
g3
((lp1795
VR07AX30
p1796
atRp1797
sVDB09289
p1798
g3
((lp1799
VN06AX14
p1800
atRp1801
sVDB00897
p1802
g3
((lp1803
VN05CD05
p1804
atRp1805
sVDB05459
p1806
g3
((lp1807
VL04AC09
p1808
atRp1809
sVDB05630
p1810
g3
((lp1811
VP01CB02
p1812
atRp1813
sVDB08885
p1814
g3
((lp1815
VL01XX44
p1816
aVS01LA05
p1817
atRp1818
sVDB08881
p1819
g3
((lp1820
VL01XE15
p1821
atRp1822
sVDB08880
p1823
g3
((lp1824
VL04AA31
p1825
atRp1826
sVDB08883
p1827
g3
((lp1828
VN03AX22
p1829
atRp1830
sVDB08882
p1831
g3
((lp1832
VA10BD11
p1833
aVA10BH05
p1834
aVA10BD19
p1835
atRp1836
sVDB08889
p1837
g3
((lp1838
VL01XX45
p1839
atRp1840
sVDB08888
p1841
g3
((lp1842
VS01XA22
p1843
atRp1844
sVDB02659
p1845
g3
((lp1846
VA05AA03
p1847
atRp1848
sVDB11348
p1849
g3
((lp1850
VA12AA01
p1851
aVA11GB01
p1852
atRp1853
sVDB11582
p1854
g3
((lp1855
VM03BX05
p1856
aVM03BX55
p1857
atRp1858
sVDB01288
p1859
g3
((lp1860
VR03CC04
p1861
aVG02CA03
p1862
aVR03AL01
p1863
aVR03AC04
p1864
atRp1865
sVDB01280
p1866
g3
((lp1867
VL01BB07
p1868
atRp1869
sVDB01281
p1870
g3
((lp1871
VL04AA24
p1872
atRp1873
sVDB01283
p1874
g3
((lp1875
VM01AH06
p1876
atRp1877
sVDB01284
p1878
g3
((lp1879
VH01AA02
p1880
atRp1881
sVDB01285
p1882
g3
((lp1883
VH01AA01
p1884
atRp1885
sVDB09128
p1886
g3
((lp1887
VN05AX16
p1888
atRp1889
sVDB09126
p1890
g3
((lp1891
VG03GA01
p1892
atRp1893
sVDB09120
p1894
g3
((lp1895
VM02AB02
p1896
atRp1897
sVDB09123
p1898
g3
((lp1899
VG03AA16
p1900
aVG03AB08
p1901
aVG03DB08
p1902
aVG03FA15
p1903
atRp1904
sVDB01359
p1905
g3
((lp1906
VC07AA23
p1907
aVC07CA23
p1908
atRp1909
sVDB01352
p1910
g3
((lp1911
VN05CA05
p1912
atRp1913
sVDB01353
p1914
g3
((lp1915
VN05CA03
p1916
atRp1917
sVDB01351
p1918
g3
((lp1919
VN05CA02
p1920
aVN05CB01
p1921
atRp1922
sVDB01356
p1923
g3
((lp1924
VN05AN01
p1925
aVD11AX04
p1926
atRp1927
sVDB00700
p1928
g3
((lp1929
VC03DA04
p1930
atRp1931
sVDB01354
p1932
g3
((lp1933
VN05CA11
p1934
atRp1935
sVDB01355
p1936
g3
((lp1937
VN05CB01
p1938
aVN05CA16
p1939
aVN01AF02
p1940
atRp1941
sVDB00706
p1942
g3
((lp1943
VG04CA02
p1944
aVG04CA53
p1945
aVG04CA52
p1946
atRp1947
sVDB00707
p1948
g3
((lp1949
VL01XD01
p1950
atRp1951
sVDB00257
p1952
g3
((lp1953
VA01AB18
p1954
aVG01AF02
p1955
aVD01AC01
p1956
atRp1957
sVDB00539
p1958
g3
((lp1959
VL02BA02
p1960
atRp1961
sVDB00537
p1962
g3
((lp1963
VS02AA15
p1964
aVJ01RA10
p1965
aVJ01RA11
p1966
aVJ01RA12
p1967
aVJ01MA02
p1968
aVS03AA07
p1969
aVS01AE03
p1970
atRp1971
sVDB00531
p1972
g3
((lp1973
VL01DB07
p1974
aVL01AA01
p1975
atRp1976
sVDB00530
p1977
g3
((lp1978
VL01XE03
p1979
atRp1980
sVDB00533
p1981
g3
((lp1982
VM01AH02
p1983
atRp1984
sVDB00532
p1985
g3
((lp1986
VN03AB04
p1987
aVN03AB54
p1988
atRp1989
sVDB00087
p1990
g3
((lp1991
VL04AA34
p1992
atRp1993
sVDB00086
p1994
g3
((lp1995
VB01AD01
p1996
aVB06AA55
p1997
atRp1998
sVDB00081
p1999
g3
((lp2000
VV10XA53
p2001
atRp2002
sVDB01628
p2003
g3
((lp2004
VM01AH05
p2005
atRp2006
sVDB00082
p2007
g3
((lp2008
VH01AX01
p2009
atRp2010
sVDB01626
p2011
g3
((lp2012
VC02KC01
p2013
aVC02LL01
p2014
atRp2015
sVDB01624
p2016
g3
((lp2017
VN05AF05
p2018
atRp2019
sVDB01622
p2020
g3
((lp2021
VN05AB08
p2022
atRp2023
sVDB01623
p2024
g3
((lp2025
VN05AF04
p2026
atRp2027
sVDB01620
p2028
g3
((lp2029
VD04AA16
p2030
aVR06AB05
p2031
atRp2032
sVDB01621
p2033
g3
((lp2034
VN05AC04
p2035
atRp2036
sVDB01268
p2037
g3
((lp2038
VL01XE04
p2039
atRp2040
sVDB00409
p2041
g3
((lp2042
VN05AL04
p2043
atRp2044
sVDB00408
p2045
g3
((lp2046
VN05AH01
p2047
atRp2048
sVDB01130
p2049
g3
((lp2050
VD07AC18
p2051
atRp2052
sVDB01131
p2053
g3
((lp2054
VP01BB51
p2055
aVP01BB01
p2056
atRp2057
sVDB01136
p2058
g3
((lp2059
VC07AG02
p2060
atRp2061
sVDB01137
p2062
g3
((lp2063
VJ01RA05
p2064
aVS01AE05
p2065
aVA02BD10
p2066
aVJ01MA12
p2067
atRp2068
sVDB01135
p2069
g3
((lp2070
VM03AC07
p2071
atRp2072
sVDB00401
p2073
g3
((lp2074
VC08CA07
p2075
atRp2076
sVDB00403
p2077
g3
((lp2078
VV04CC04
p2079
atRp2080
sVDB00402
p2081
g3
((lp2082
VN05CF04
p2083
atRp2084
sVDB00405
p2085
g3
((lp2086
VR06AB06
p2087
aVR06AB56
p2088
atRp2089
sVDB04896
p2090
g3
((lp2091
VN06AX17
p2092
atRp2093
sVDB00663
p2094
g3
((lp2095
VD07CB05
p2096
aVS02CA02
p2097
aVD07BB01
p2098
aVD07AB03
p2099
aVD07XB01
p2100
atRp2101
sVDB04895
p2102
g3
((lp2103
VS01LA03
p2104
atRp2105
sVDB00665
p2106
g3
((lp2107
VL02BB02
p2108
atRp2109
sVDB00666
p2110
g3
((lp2111
VH01CA02
p2112
atRp2113
sVDB00669
p2114
g3
((lp2115
VN02CC01
p2116
aVG01AE10
p2117
atRp2118
sVDB00668
p2119
g3
((lp2120
VA01AD01
p2121
aVR01AA14
p2122
aVC01CA03
p2123
aVB02BC09
p2124
aVS01EA01
p2125
aVS01EA51
p2126
aVR03AK01
p2127
aVR03AA01
p2128
aVC01CA24
p2129
atRp2130
sVDB00887
p2131
g3
((lp2132
VC03EB02
p2133
aVG01AE10
p2134
aVC03CA02
p2135
aVC03CB02
p2136
atRp2137
sVDB00881
p2138
g3
((lp2139
VC09BA06
p2140
aVC09AA06
p2141
atRp2142
sVDB00880
p2143
g3
((lp2144
VG01AE10
p2145
aVC03AA04
p2146
aVC03AB04
p2147
aVC03AH01
p2148
atRp2149
sVDB00883
p2150
g3
((lp2151
VC01DA08
p2152
aVC05AE02
p2153
aVD03AX08
p2154
aVC01DA58
p2155
atRp2156
sVDB00882
p2157
g3
((lp2158
VG03GB02
p2159
atRp2160
sVDB00391
p2161
g3
((lp2162
VN05AL01
p2163
aVN05AL07
p2164
atRp2165
sVDB00390
p2166
g3
((lp2167
VC01AA05
p2168
atRp2169
sVDB00393
p2170
g3
((lp2171
VC08CA06
p2172
atRp2173
sVDB00392
p2174
g3
((lp2175
VN04AA05
p2176
atRp2177
sVDB00395
p2178
g3
((lp2179
VM03BA72
p2180
aVM03BA02
p2181
aVM03BA52
p2182
atRp2183
sVDB00394
p2184
g3
((lp2185
VD07CC04
p2186
aVA07EA07
p2187
aVD07AC15
p2188
aVR03BA01
p2189
aVR03AK08
p2190
aVR01AD01
p2191
atRp2192
sVDB00397
p2193
g3
((lp2194
VR01BA51
p2195
aVR01BA01
p2196
atRp2197
sVDB00396
p2198
g3
((lp2199
VG03FA04
p2200
aVG03DA03
p2201
aVG03DA04
p2202
aVG03DA02
p2203
aVG03AC06
p2204
aVL02AB02
p2205
atRp2206
sVDB00399
p2207
g3
((lp2208
VM05BA08
p2209
aVM05BB08
p2210
atRp2211
sVDB00398
p2212
g3
((lp2213
VL01XE05
p2214
atRp2215
sVDB00715
p2216
g3
((lp2217
VN06AB05
p2218
atRp2219
sVDB00714
p2220
g3
((lp2221
VG04BE07
p2222
aVN04BC07
p2223
atRp2224
sVDB00717
p2225
g3
((lp2226
VG03AB04
p2227
aVG03FA01
p2228
aVG03AA05
p2229
aVG03DC02
p2230
aVG03FB05
p2231
aVG03AC01
p2232
atRp2233
sVDB00240
p2234
g3
((lp2235
VD07AB10
p2236
aVS01BA10
p2237
atRp2238
sVDB00711
p2239
g3
((lp2240
VP02CB02
p2241
atRp2242
sVDB00246
p2243
g3
((lp2244
VN05AE04
p2245
atRp2246
sVDB00245
p2247
g3
((lp2248
VN04AC01
p2249
atRp2250
sVDB00244
p2251
g3
((lp2252
VA07EC02
p2253
atRp2254
sVDB00248
p2255
g3
((lp2256
VG02CB03
p2257
aVN04BC06
p2258
atRp2259
sVDB00719
p2260
g3
((lp2261
VR06AX09
p2262
atRp2263
sVDB06168
p2264
g3
((lp2265
VL04AC08
p2266
atRp2267
sVDB04946
p2268
g3
((lp2269
VN05AX14
p2270
atRp2271
sVDB04948
p2272
g3
((lp2273
VN07BC04
p2274
atRp2275
sVDB06766
p2276
g3
((lp2277
VS01GX11
p2278
atRp2279
sVDB06764
p2280
g3
((lp2281
VR01AA06
p2282
aVS01GA52
p2283
aVR01AB03
p2284
aVS01GA02
p2285
atRp2286
sVDB01047
p2287
g3
((lp2288
VD07AC08
p2289
aVC05AA11
p2290
aVD07CC05
p2291
atRp2292
sVDB06016
p2293
g3
((lp2294
VN05AX15
p2295
atRp2296
sVDB00867
p2297
g3
((lp2298
VG02CA01
p2299
atRp2300
sVDB00866
p2301
g3
((lp2302
VC07AA01
p2303
atRp2304
sVDB00864
p2305
g3
((lp2306
VL04AD02
p2307
aVD11AH01
p2308
atRp2309
sVDB00863
p2310
g3
((lp2311
VA02BA07
p2312
aVA02BA02
p2313
atRp2314
sVDB00862
p2315
g3
((lp2316
VG04BE09
p2317
atRp2318
sVDB00861
p2319
g3
((lp2320
VN02BA11
p2321
atRp2322
sVDB00860
p2323
g3
((lp2324
VS03BA02
p2325
aVS01BB02
p2326
aVD07BA01
p2327
aVD07XA02
p2328
aVS03CA02
p2329
aVS02CA01
p2330
aVH02AB06
p2331
aVA07EA01
p2332
aVC05AA04
p2333
aVR01AD02
p2334
aVS01BA04
p2335
aVS01CA02
p2336
aVD07AA03
p2337
aVD07AA01
p2338
aVV03AB05
p2339
aVD07AC14
p2340
aVA01AC54
p2341
aVS02BA03
p2342
aVD10AA02
p2343
aVD07CA03
p2344
aVH02AB04
p2345
aVR01AD52
p2346
aVH02AB07
p2347
aVS01CB02
p2348
atRp2349
sVDB00869
p2350
g3
((lp2351
VS01EC03
p2352
atRp2353
sVDB00868
p2354
g3
((lp2355
VR05DB01
p2356
atRp2357
sVDB09389
p2358
g3
((lp2359
VG03FB01
p2360
aVG03FA10
p2361
aVG03AA06
p2362
atRp2363
sVDB08890
p2364
g3
((lp2365
VA06AX04
p2366
atRp2367
sVDB11071
p2368
g3
((lp2369
VG04BX12
p2370
atRp2371
sVDB08896
p2372
g3
((lp2373
VL01XE21
p2374
atRp2375
sVDB08897
p2376
g3
((lp2377
VR03AL05
p2378
aVR03BB05
p2379
atRp2380
sVDB08894
p2381
g3
((lp2382
VB03XA04
p2383
atRp2384
sVDB08895
p2385
g3
((lp2386
VL04AA29
p2387
atRp2388
sVDB08899
p2389
g3
((lp2390
VL02BB04
p2391
atRp2392
sVDB11577
p2393
g3
((lp2394
VV04CH02
p2395
atRp2396
sVDB01466
p2397
g3
((lp2398
VS01XA06
p2399
aVR05DA01
p2400
atRp2401
sVDB01381
p2402
g3
((lp2403
VN06DX02
p2404
aVN06DA53
p2405
atRp2406
sVDB01380
p2407
g3
((lp2408
VS01BA03
p2409
aVH02AB10
p2410
atRp2411
sVDB01382
p2412
g3
((lp2413
VA10BC01
p2414
atRp2415
sVDB01384
p2416
g3
((lp2417
VH02AB05
p2418
atRp2419
sVDB01438
p2420
g3
((lp2421
VG04BX06
p2422
atRp2423
sVDB01437
p2424
g3
((lp2425
VN05CE01
p2426
atRp2427
sVDB01388
p2428
g3
((lp2429
VC08CX01
p2430
atRp2431
sVDB01435
p2432
g3
((lp2433
VS02DA03
p2434
aVN02BB51
p2435
aVN02BB71
p2436
aVN02BB01
p2437
atRp2438
sVDB00340
p2439
g3
((lp2440
VN04AA03
p2441
atRp2442
sVDB01431
p2443
g3
((lp2444
VG03DC01
p2445
atRp2446
sVDB01430
p2447
g3
((lp2448
VR07AB07
p2449
atRp2450
sVDB00528
p2451
g3
((lp2452
VC08CA13
p2453
aVC09BB02
p2454
aVC09DB08
p2455
atRp2456
sVDB00487
p2457
g3
((lp2458
VJ01MA03
p2459
atRp2460
sVDB00522
p2461
g3
((lp2462
VV04CK03
p2463
atRp2464
sVDB00523
p2465
g3
((lp2466
VD11AH04
p2467
aVL01XX22
p2468
atRp2469
sVDB00521
p2470
g3
((lp2471
VC07AA15
p2472
aVS01ED55
p2473
aVS01ED05
p2474
atRp2475
sVDB00527
p2476
g3
((lp2477
VS01HA06
p2478
aVD04AB02
p2479
aVN01BB06
p2480
aVC05AD04
p2481
aVS02DA04
p2482
atRp2483
sVDB00524
p2484
g3
((lp2485
VC03BA08
p2486
aVG01AE10
p2487
aVC03EA12
p2488
atRp2489
sVDB00337
p2490
g3
((lp2491
VD11AH02
p2492
atRp2493
sVDB00092
p2494
g3
((lp2495
VL04AA15
p2496
atRp2497
sVDB00091
p2498
g3
((lp2499
VL04AD01
p2500
aVS01XA18
p2501
atRp2502
sVDB00097
p2503
g3
((lp2504
VG03GA08
p2505
atRp2506
sVDB00094
p2507
g3
((lp2508
VG03GA04
p2509
atRp2510
sVDB00095
p2511
g3
((lp2512
VL04AA21
p2513
atRp2514
sVDB00098
p2515
g3
((lp2516
VL04AA04
p2517
atRp2518
sVDB00099
p2519
g3
((lp2520
VL03AA02
p2521
atRp2522
sVDB01656
p2523
g3
((lp2524
VR03DX07
p2525
atRp2526
sVDB00417
p2527
g3
((lp2528
VJ01CR50
p2529
aVJ01CE02
p2530
aVJ01CE10
p2531
atRp2532
sVDB00414
p2533
g3
((lp2534
VA10BB31
p2535
atRp2536
sVDB00415
p2537
g3
((lp2538
VJ01CR01
p2539
aVJ01CA51
p2540
aVJ01CA01
p2541
aVJ01CA02
p2542
aVJ01CA15
p2543
aVJ01CA14
p2544
aVS01AA19
p2545
aVJ01CA06
p2546
aVJ01CR50
p2547
atRp2548
sVDB11181
p2549
g3
((lp2550
VS01FA05
p2551
atRp2552
sVDB00413
p2553
g3
((lp2554
VN04BC05
p2555
atRp2556
sVDB00217
p2557
g3
((lp2558
VC02CC01
p2559
atRp2560
sVDB00411
p2561
g3
((lp2562
VN07AB01
p2563
aVS01EB02
p2564
atRp2565
sVDB00418
p2566
g3
((lp2567
VN05CB01
p2568
aVN05CA06
p2569
atRp2570
sVDB00419
p2571
g3
((lp2572
VA16AX06
p2573
atRp2574
sVDB00898
p2575
g3
((lp2576
VD08AX08
p2577
aVV03AB16
p2578
aVV03AZ01
p2579
aVD01AE06
p2580
atRp2581
sVDB04576
p2582
g3
((lp2583
VJ01MA08
p2584
atRp2585
sVDB00678
p2586
g3
((lp2587
VC09CA01
p2588
aVC09DA01
p2589
aVC09DB06
p2590
atRp2591
sVDB00679
p2592
g3
((lp2593
VN05AC02
p2594
atRp2595
sVDB00892
p2596
g3
((lp2597
VD04AB03
p2598
aVS01HA02
p2599
atRp2600
sVDB00890
p2601
g3
((lp2602
VG03CB01
p2603
aVG03CC02
p2604
atRp2605
sVDB00675
p2606
g3
((lp2607
VL02BA01
p2608
atRp2609
sVDB00896
p2610
g3
((lp2611
VH02AB12
p2612
aVS01BA13
p2613
atRp2614
sVDB00673
p2615
g3
((lp2616
VA04AD12
p2617
atRp2618
sVDB00670
p2619
g3
((lp2620
VA02BX03
p2621
atRp2622
sVDB00895
p2623
g3
((lp2624
VJ01CR50
p2625
atRp2626
sVDB00388
p2627
g3
((lp2628
VR01AA04
p2629
aVR01BA03
p2630
aVR01BA53
p2631
aVR01AB01
p2632
aVS01GA55
p2633
aVC05AX03
p2634
aVC01CA06
p2635
aVS01GA05
p2636
aVS01FB01
p2637
atRp2638
sVDB01558
p2639
g3
((lp2640
VN05BA08
p2641
atRp2642
sVDB00384
p2643
g3
((lp2644
VC03DB02
p2645
atRp2646
sVDB00385
p2647
g3
((lp2648
VL01DB09
p2649
atRp2650
sVDB00382
p2651
g3
((lp2652
VN06DA01
p2653
atRp2654
sVDB00383
p2655
g3
((lp2656
VA03AA01
p2657
aVA03CA03
p2658
atRp2659
sVDB00380
p2660
g3
((lp2661
VV03AF02
p2662
atRp2663
sVDB00381
p2664
g3
((lp2665
VC08CA01
p2666
aVC09BX01
p2667
aVC09DB05
p2668
aVC10BX03
p2669
aVC09XA53
p2670
aVC09BB03
p2671
aVC09BB04
p2672
aVC09BB07
p2673
aVC09XA54
p2674
aVC09DB02
p2675
aVC09DB01
p2676
aVC09DB07
p2677
aVC09DB06
p2678
aVC08GA02
p2679
aVC09DB04
p2680
aVC09DX01
p2681
aVC10BX09
p2682
aVC09DX03
p2683
aVC10BX07
p2684
aVC10BX11
p2685
atRp2686
sVDB00703
p2687
g3
((lp2688
VS01EC05
p2689
atRp2690
sVDB00252
p2691
g3
((lp2692
VN03AB05
p2693
aVN03AB04
p2694
aVN03AB52
p2695
aVN03AB02
p2696
atRp2697
sVDB00253
p2698
g3
((lp2699
VS01BA08
p2700
atRp2701
sVDB00254
p2702
g3
((lp2703
VJ01AA20
p2704
aVJ01AA02
p2705
aVA01AB22
p2706
atRp2707
sVDB00255
p2708
g3
((lp2709
VG03CB02
p2710
aVL02AA04
p2711
aVG03CC05
p2712
aVL02AA01
p2713
atRp2714
sVDB00704
p2715
g3
((lp2716
VN07BB04
p2717
aVA08AA62
p2718
atRp2719
sVDB01559
p2720
g3
((lp2721
VN05BA21
p2722
atRp2723
sVDB00708
p2724
g3
((lp2725
VN01AH03
p2726
atRp2727
sVDB00212
p2728
g3
((lp2729
VC09XA01
p2730
atRp2731
sVDB06155
p2732
g3
((lp2733
VA08AX01
p2734
atRp2735
sVDB06626
p2736
g3
((lp2737
VL01XE17
p2738
atRp2739
sVDB06623
p2740
g3
((lp2741
VN02BG07
p2742
atRp2743
sVDB00046
p2744
g3
((lp2745
VA10AB04
p2746
aVA10AC04
p2747
aVA10AD04
p2748
atRp2749
sVDB00213
p2750
g3
((lp2751
VA02BD11
p2752
aVA02BD04
p2753
aVA02BC02
p2754
atRp2755
sVDB13151
p2756
g3
((lp2757
VB02BD03
p2758
atRp2759
sVDB13158
p2760
g3
((lp2761
VS01BA09
p2762
aVD07AB01
p2763
aVS01CA11
p2764
atRp2765
sVDB06713
p2766
g3
((lp2767
VG03AA13
p2768
atRp2769
sVDB06712
p2770
g3
((lp2771
VC08CA10
p2772
atRp2773
sVDB06711
p2774
g3
((lp2775
VS01GA51
p2776
aVS01GA01
p2777
aVR01AA08
p2778
aVR01AB02
p2779
atRp2780
sVDB06710
p2781
g3
((lp2782
VG03EA01
p2783
aVG03EK01
p2784
aVG03BA02
p2785
atRp2786
sVDB06719
p2787
g3
((lp2788
VL02AE01
p2789
atRp2790
sVDB00875
p2791
g3
((lp2792
VN05AF01
p2793
atRp2794
sVDB00876
p2795
g3
((lp2796
VC09DA02
p2797
aVC09CA02
p2798
atRp2799
sVDB00877
p2800
g3
((lp2801
VL04AA10
p2802
aVS01XA23
p2803
atRp2804
sVDB00870
p2805
g3
((lp2806
VM01AE07
p2807
atRp2808
sVDB00871
p2809
g3
((lp2810
VR03CC53
p2811
aVR03AC03
p2812
aVR03CC03
p2813
atRp2814
sVDB00872
p2815
g3
((lp2816
VC03XA02
p2817
atRp2818
sVDB00873
p2819
g3
((lp2820
VS01BA14
p2821
atRp2822
sVDB01127
p2823
g3
((lp2824
VG01AF20
p2825
aVD01AC03
p2826
aVG01AF05
p2827
atRp2828
sVDB01121
p2829
g3
((lp2830
VN03AX07
p2831
atRp2832
sVDB01120
p2833
g3
((lp2834
VA10BB09
p2835
atRp2836
sVDB00434
p2837
g3
((lp2838
VR06AX02
p2839
atRp2840
sVDB13520
p2841
g3
((lp2842
VG02CB05
p2843
atRp2844
sVDB00435
p2845
g3
((lp2846
VR07AX01
p2847
atRp2848
sVDB02701
p2849
g3
((lp2850
VA11HA01
p2851
atRp2852
sVDB03128
p2853
g3
((lp2854
VS01EB09
p2855
atRp2856
sVDB01129
p2857
g3
((lp2858
VA02BC04
p2859
aVA02BC54
p2860
aVM01AA05
p2861
aVM02AA03
p2862
atRp2863
sVDB01128
p2864
g3
((lp2865
VL02BB03
p2866
atRp2867
sVDB02383
p2868
g3
((lp2869
VA10XA01
p2870
atRp2871
sVDB00432
p2872
g3
((lp2873
VS01AD02
p2874
aVL01BC59
p2875
atRp2876
sVDB05381
p2877
g3
((lp2878
VV04CG03
p2879
aVL03AX14
p2880
atRp2881
sVDB05382
p2882
g3
((lp2883
VD08AG03
p2884
atRp2885
sVDB08868
p2886
g3
((lp2887
VL04AA27
p2888
atRp2889
sVDB08867
p2890
g3
((lp2891
VG03XB02
p2892
aVG03AD02
p2893
atRp2894
sVDB08865
p2895
g3
((lp2896
VL01XE16
p2897
atRp2898
sVDB08864
p2899
g3
((lp2900
VJ05AG05
p2901
aVJ05AR19
p2902
aVJ05AR08
p2903
atRp2904
sVDB05541
p2905
g3
((lp2906
VN03AX23
p2907
atRp2908
sVDB08860
p2909
g3
((lp2910
VC10AA08
p2911
atRp2912
sVDB02638
p2913
g3
((lp2914
VH01BA04
p2915
atRp2916
sVDB00659
p2917
g3
((lp2918
VN07BB03
p2919
atRp2920
sVDB05099
p2921
g3
((lp2922
VB01AD09
p2923
atRp2924
sVDB11362
p2925
g3
((lp2926
VB01AC27
p2927
atRp2928
sVDB09241
p2929
g3
((lp2930
VV04CG05
p2931
aVV03AB17
p2932
atRp2933
sVDB09242
p2934
g3
((lp2935
VC02LC05
p2936
aVC02AC05
p2937
atRp2938
sVDB11560
p2939
g3
((lp2940
VM04AB05
p2941
atRp2942
sVDB08916
p2943
g3
((lp2944
VL01XE13
p2945
atRp2946
sVDB00323
p2947
g3
((lp2948
VN04BX01
p2949
atRp2950
sVDB08912
p2951
g3
((lp2952
VL01XE23
p2953
atRp2954
sVDB08911
p2955
g3
((lp2956
VL01XE25
p2957
atRp2958
sVDB08910
p2959
g3
((lp2960
VL04AX06
p2961
atRp2962
sVDB05168
p2963
g3
((lp2964
VL01CA06
p2965
atRp2966
sVDB01429
p2967
g3
((lp2968
VC01BB04
p2969
atRp2970
sVDB01399
p2971
g3
((lp2972
VN02BA06
p2973
atRp2974
sVDB01396
p2975
g3
((lp2976
VC01AA04
p2977
atRp2978
sVDB01425
p2979
g3
((lp2980
VA03FA05
p2981
atRp2982
sVDB01426
p2983
g3
((lp2984
VC01BA05
p2985
atRp2986
sVDB01427
p2987
g3
((lp2988
VC01CE01
p2989
atRp2990
sVDB01392
p2991
g3
((lp2992
VG04BE04
p2993
atRp2994
sVDB01393
p2995
g3
((lp2996
VC10AB02
p2997
atRp2998
sVDB01422
p2999
g3
((lp3000
VJ01XX07
p3001
atRp3002
sVDB09095
p3003
g3
((lp3004
VD07BC04
p3005
aVD07AC06
p3006
aVD07XC04
p3007
atRp3008
sVDB06243
p3009
g3
((lp3010
VP01CX03
p3011
aVD11AX16
p3012
atRp3013
sVDB09091
p3014
g3
((lp3015
VR01AD57
p3016
aVR01AD07
p3017
aVA07EA05
p3018
atRp3019
sVDB09090
p3020
g3
((lp3021
VA03AX04
p3022
atRp3023
sVDB09092
p3024
g3
((lp3025
VC04AD02
p3026
aVR03DA20
p3027
atRp3028
sVDB11386
p3029
g3
((lp3030
VA04AD04
p3031
aVA04AD54
p3032
atRp3033
sVDB00207
p3034
g3
((lp3035
VJ01FA10
p3036
aVJ01RA07
p3037
aVS01AA26
p3038
atRp3039
sVDB00069
p3040
g3
((lp3041
VL03AB09
p3042
atRp3043
sVDB00068
p3044
g3
((lp3045
VL03AB08
p3046
atRp3047
sVDB00067
p3048
g3
((lp3049
VH01BA06
p3050
aVH01BA01
p3051
aVH01BA03
p3052
atRp3053
sVDB00066
p3054
g3
((lp3055
VG03GA06
p3056
aVG03GA05
p3057
atRp3058
sVDB00065
p3059
g3
((lp3060
VL04AA12
p3061
aVL04AB02
p3062
atRp3063
sVDB00063
p3064
g3
((lp3065
VB01AC16
p3066
atRp3067
sVDB00062
p3068
g3
((lp3069
VV08DA01
p3070
atRp3071
sVDB00060
p3072
g3
((lp3073
VL04AA23
p3074
aVL03AB07
p3075
atRp3076
sVDB00463
p3077
g3
((lp3078
VN03AA30
p3079
atRp3080
sVDB00461
p3081
g3
((lp3082
VM01AX01
p3083
atRp3084
sVDB00467
p3085
g3
((lp3086
VJ01MA04
p3087
atRp3088
sVDB00465
p3089
g3
((lp3090
VM01AB15
p3091
aVS01BC05
p3092
atRp3093
sVDB00464
p3094
g3
((lp3095
VC05BB04
p3096
atRp3097
sVDB00469
p3098
g3
((lp3099
VM01AC02
p3100
atRp3101
sVDB00468
p3102
g3
((lp3103
VM09AA72
p3104
aVP01BC01
p3105
atRp3106
sVDB00608
p3107
g3
((lp3108
VP01BA01
p3109
aVP01BA02
p3110
atRp3111
sVDB00603
p3112
g3
((lp3113
VG03AA08
p3114
aVG03FA12
p3115
aVG03FB06
p3116
aVG03DA02
p3117
aVG03AC06
p3118
aVL02AB02
p3119
atRp3120
sVDB00602
p3121
g3
((lp3122
VD11AX22
p3123
aVP02CF01
p3124
atRp3125
sVDB00606
p3126
g3
((lp3127
VG01AE10
p3128
aVC03AA09
p3129
aVC03AB09
p3130
atRp3131
sVDB00605
p3132
g3
((lp3133
VM01AB02
p3134
atRp3135
sVDB00604
p3136
g3
((lp3137
VA03FA02
p3138
atRp3139
sVDB01544
p3140
g3
((lp3141
VN05CD03
p3142
atRp3143
sVDB00269
p3144
g3
((lp3145
VG03CA06
p3146
atRp3147
sVDB00268
p3148
g3
((lp3149
VN04BC04
p3150
atRp3151
sVDB01083
p3152
g3
((lp3153
VA08AB01
p3154
atRp3155
sVDB09472
p3156
g3
((lp3157
VA12CA02
p3158
aVA06AD13
p3159
atRp3160
sVDB00266
p3161
g3
((lp3162
VB01AA01
p3163
atRp3164
sVDB00261
p3165
g3
((lp3166
VL01XX35
p3167
atRp3168
sVDB00262
p3169
g3
((lp3170
VL01AD01
p3171
atRp3172
sVDB00115
p3173
g3
((lp3174
VB03BA51
p3175
aVB03BA01
p3176
aVB03AE01
p3177
aVB03BB01
p3178
atRp3179
sVDB01081
p3180
g3
((lp3181
VA07DA01
p3182
atRp3183
sVDB00113
p3184
g3
((lp3185
VV09IA06
p3186
atRp3187
sVDB00112
p3188
g3
((lp3189
VL01XC07
p3190
atRp3191
sVDB00111
p3192
g3
((lp3193
VL04AC01
p3194
atRp3195
sVDB00110
p3196
g3
((lp3197
VJ06BB16
p3198
atRp3199
sVDB09073
p3200
g3
((lp3201
VL01XE33
p3202
atRp3203
sVDB06637
p3204
g3
((lp3205
VN07XX07
p3206
atRp3207
sVDB06144
p3208
g3
((lp3209
VN05AE03
p3210
atRp3211
sVDB00118
p3212
g3
((lp3213
VA16AA02
p3214
atRp3215
sVDB00286
p3216
g3
((lp3217
VG03CA57
p3218
aVG03CC07
p3219
atRp3220
sVDB00285
p3221
g3
((lp3222
VN06AX16
p3223
aVN06AX23
p3224
atRp3225
sVDB00284
p3226
g3
((lp3227
VA10BF01
p3228
aVA10BD17
p3229
atRp3230
sVDB00283
p3231
g3
((lp3232
VR06AA54
p3233
aVR06AA04
p3234
aVD04AA14
p3235
atRp3236
sVDB09071
p3237
g3
((lp3238
VN05CH03
p3239
atRp3240
sVDB00281
p3241
g3
((lp3242
VA01AD11
p3243
aVS01HA07
p3244
aVN01BB52
p3245
aVD04AB01
p3246
aVC01BB01
p3247
aVN01BB02
p3248
aVR02AD02
p3249
aVC05AD01
p3250
aVS02DA01
p3251
atRp3252
sVDB00280
p3253
g3
((lp3254
VC01BA03
p3255
atRp3256
sVDB09070
p3257
g3
((lp3258
VG03CX01
p3259
atRp3260
sVDB00289
p3261
g3
((lp3262
VN06BA09
p3263
atRp3264
sVDB00288
p3265
g3
((lp3266
VD07AC11
p3267
atRp3268
sVDB13144
p3269
g3
((lp3270
VL03AA10
p3271
atRp3272
sVDB06700
p3273
g3
((lp3274
VN06AX23
p3275
atRp3276
sVDB06701
p3277
g3
((lp3278
VN06BA11
p3279
atRp3280
sVDB06702
p3281
g3
((lp3282
VG04BD11
p3283
atRp3284
sVDB06706
p3285
g3
((lp3286
VA03AX10
p3287
atRp3288
sVDB00841
p3289
g3
((lp3290
VC01CA07
p3291
atRp3292
sVDB00843
p3293
g3
((lp3294
VN06DA02
p3295
aVN06DA53
p3296
aVN06DA52
p3297
atRp3298
sVDB00842
p3299
g3
((lp3300
VN05BA04
p3301
atRp3302
sVDB00844
p3303
g3
((lp3304
VN02AF02
p3305
atRp3306
sVDB00847
p3307
g3
((lp3308
VA16AA04
p3309
aVS01XA21
p3310
atRp3311
sVDB00846
p3312
g3
((lp3313
VD07CC03
p3314
aVD07AC07
p3315
atRp3316
sVDB00849
p3317
g3
((lp3318
VN05CB01
p3319
aVN03AA01
p3320
atRp3321
sVDB00848
p3322
g3
((lp3323
VP02CE01
p3324
atRp3325
sVDB01065
p3326
g3
((lp3327
VN05CH01
p3328
atRp3329
sVDB00338
p3330
g3
((lp3331
VA02BC05
p3332
aVA02BD01
p3333
aVA02BC01
p3334
aVA02BD05
p3335
atRp3336
sVDB00598
p3337
g3
((lp3338
VC07BG01
p3339
aVC07CG01
p3340
aVC07AG01
p3341
atRp3342
sVDB06271
p3343
g3
((lp3344
VB01AB11
p3345
atRp3346
sVDB00593
p3347
g3
((lp3348
VN03AD01
p3349
aVN03AD51
p3350
atRp3351
sVDB00040
p3352
g3
((lp3353
VH04AA01
p3354
atRp3355
sVDB00591
p3356
g3
((lp3357
VD07CC02
p3358
aVS01CA10
p3359
aVD07AC04
p3360
aVS02CA05
p3361
aVC05AA10
p3362
aVS02BA08
p3363
aVD07BC02
p3364
aVS01BA15
p3365
atRp3366
sVDB00590
p3367
g3
((lp3368
VC02CA04
p3369
atRp3370
sVDB00044
p3371
g3
((lp3372
VG03GA07
p3373
atRp3374
sVDB08879
p3375
g3
((lp3376
VL04AA26
p3377
atRp3378
sVDB08875
p3379
g3
((lp3380
VL01XE26
p3381
atRp3382
sVDB08877
p3383
g3
((lp3384
VL01XE18
p3385
atRp3386
sVDB08870
p3387
g3
((lp3388
VL01XC12
p3389
atRp3390
sVDB08871
p3391
g3
((lp3392
VL01XX41
p3393
atRp3394
sVDB11638
p3395
g3
((lp3396
VP01BE05
p3397
aVP01BF05
p3398
atRp3399
sVDB05773
p3400
g3
((lp3401
VL01XC14
p3402
atRp3403
sVDB09270
p3404
g3
((lp3405
VC01EB09
p3406
atRp3407
sVDB09279
p3408
g3
((lp3409
VC09CA10
p3410
atRp3411
sVDB08904
p3412
g3
((lp3413
VL04AB05
p3414
atRp3415
sVDB08906
p3416
g3
((lp3417
VR01AD12
p3418
aVR03BA09
p3419
aVR03AK10
p3420
atRp3421
sVDB08901
p3422
g3
((lp3423
VL01XE24
p3424
atRp3425
sVDB08908
p3426
g3
((lp3427
VN07XX09
p3428
atRp3429
sVDB01418
p3430
g3
((lp3431
VB01AA07
p3432
atRp3433
sVDB01411
p3434
g3
((lp3435
VR03DC02
p3436
atRp3437
sVDB01410
p3438
g3
((lp3439
VR01AD13
p3440
aVR03BA08
p3441
atRp3442
sVDB04173
p3443
g3
((lp3444
VV06DC02
p3445
atRp3446
sVDB01412
p3447
g3
((lp3448
VR03DA07
p3449
aVR03DA57
p3450
aVC03BD01
p3451
aVR03DA20
p3452
atRp3453
sVDB09082
p3454
g3
((lp3455
VR03AK10
p3456
aVR03AL03
p3457
atRp3458
sVDB09080
p3459
g3
((lp3460
VR03AL06
p3461
aVR03AC19
p3462
atRp3463
sVDB01099
p3464
g3
((lp3465
VD01AE21
p3466
aVJ02AX01
p3467
atRp3468
sVDB01098
p3469
g3
((lp3470
VC10BA06
p3471
aVC10AA07
p3472
aVG01AE10
p3473
aVC10BX05
p3474
aVC10BX07
p3475
aVC10BX09
p3476
aVC10BX10
p3477
atRp3478
sVDB09085
p3479
g3
((lp3480
VC05AD02
p3481
aVD04AB06
p3482
aVS01HA03
p3483
aVN01BA03
p3484
atRp3485
sVDB01095
p3486
g3
((lp3487
VC10AA04
p3488
atRp3489
sVDB01097
p3490
g3
((lp3491
VL04AA13
p3492
atRp3493
sVDB09089
p3494
g3
((lp3495
VA03AA05
p3496
atRp3497
sVDB01091
p3498
g3
((lp3499
VD01AE23
p3500
atRp3501
sVDB01092
p3502
g3
((lp3503
VC01AC01
p3504
atRp3505
sVDB01708
p3506
g3
((lp3507
VA14AA07
p3508
aVG03EA03
p3509
atRp3510
sVDB01259
p3511
g3
((lp3512
VL01XE07
p3513
atRp3514
sVDB01257
p3515
g3
((lp3516
VL04AA25
p3517
atRp3518
sVDB01255
p3519
g3
((lp3520
VN06BA12
p3521
atRp3522
sVDB01254
p3523
g3
((lp3524
VL01XE06
p3525
atRp3526
sVDB01253
p3527
g3
((lp3528
VG02AB03
p3529
atRp3530
sVDB01252
p3531
g3
((lp3532
VA10BX08
p3533
atRp3534
sVDB01250
p3535
g3
((lp3536
VA07EC03
p3537
atRp3538
sVDB01077
p3539
g3
((lp3540
VM05BA01
p3541
aVM05BB01
p3542
atRp3543
sVDB01076
p3544
g3
((lp3545
VC10AA05
p3546
aVC10BX03
p3547
aVC10BA05
p3548
aVC10BX06
p3549
aVC10BX08
p3550
aVC10BX11
p3551
atRp3552
sVDB01075
p3553
g3
((lp3554
VR06AA02
p3555
aVR06AA52
p3556
aVD04AA32
p3557
aVD04AA33
p3558
atRp3559
sVDB01074
p3560
g3
((lp3561
VC08EX02
p3562
atRp3563
sVDB01073
p3564
g3
((lp3565
VL01BB05
p3566
atRp3567
sVDB01071
p3568
g3
((lp3569
VR06AD07
p3570
atRp3571
sVDB01070
p3572
g3
((lp3573
VA11CC02
p3574
atRp3575
sVDB00074
p3576
g3
((lp3577
VL04AC02
p3578
atRp3579
sVDB00075
p3580
g3
((lp3581
VL04AA02
p3582
atRp3583
sVDB00070
p3584
g3
((lp3585
VB06AA03
p3586
atRp3587
sVDB00071
p3588
g3
((lp3589
VA10AE03
p3590
aVA10AD03
p3591
aVA10AC03
p3592
aVA10AB03
p3593
atRp3594
sVDB01079
p3595
g3
((lp3596
VA06AX06
p3597
atRp3598
sVDB01078
p3599
g3
((lp3600
VC01AA07
p3601
atRp3602
sVDB08604
p3603
g3
((lp3604
VD08AE04
p3605
aVD09AA06
p3606
atRp3607
sVDB00470
p3608
g3
((lp3609
VA04AD10
p3610
atRp3611
sVDB00471
p3612
g3
((lp3613
VR03DC53
p3614
aVR03DC03
p3615
atRp3616
sVDB00472
p3617
g3
((lp3618
VN06CA03
p3619
aVN06AB03
p3620
atRp3621
sVDB00474
p3622
g3
((lp3623
VN05CB01
p3624
aVN01AF01
p3625
aVN05CA15
p3626
atRp3627
sVDB00476
p3628
g3
((lp3629
VN06AX21
p3630
atRp3631
sVDB00477
p3632
g3
((lp3633
VN05AA01
p3634
atRp3635
sVDB01408
p3636
g3
((lp3637
VR03CC12
p3638
atRp3639
sVDB00619
p3640
g3
((lp3641
VL01XE01
p3642
atRp3643
sVDB04599
p3644
g3
((lp3645
VN06BX11
p3646
atRp3647
sVDB00610
p3648
g3
((lp3649
VC01CA09
p3650
atRp3651
sVDB00611
p3652
g3
((lp3653
VN02AF01
p3654
atRp3655
sVDB00612
p3656
g3
((lp3657
VC07BB07
p3658
aVC09BX02
p3659
aVC07FB07
p3660
aVC07AB07
p3661
aVC07AB57
p3662
atRp3663
sVDB00613
p3664
g3
((lp3665
VP01BF03
p3666
aVP01BA06
p3667
atRp3668
sVDB00615
p3669
g3
((lp3670
VJ04AB04
p3671
atRp3672
sVDB00617
p3673
g3
((lp3674
VN03AC01
p3675
atRp3676
sVDB00242
p3677
g3
((lp3678
VL01BB04
p3679
atRp3680
sVDB00218
p3681
g3
((lp3682
VS01AE07
p3683
aVJ01MA14
p3684
atRp3685
sVDB01612
p3686
g3
((lp3687
VV03AB22
p3688
atRp3689
sVDB00748
p3690
g3
((lp3691
VR06AA08
p3692
atRp3693
sVDB00214
p3694
g3
((lp3695
VC03CA04
p3696
atRp3697
sVDB00278
p3698
g3
((lp3699
VB01AE03
p3700
atRp3701
sVDB00279
p3702
g3
((lp3703
VH03AA02
p3704
aVH03AA03
p3705
atRp3706
sVDB00215
p3707
g3
((lp3708
VN06AB10
p3709
aVN06AB04
p3710
atRp3711
sVDB00273
p3712
g3
((lp3713
VN03AX11
p3714
atRp3715
sVDB00270
p3716
g3
((lp3717
VC08CA03
p3718
atRp3719
sVDB00276
p3720
g3
((lp3721
VL01XX01
p3722
atRp3723
sVDB00277
p3724
g3
((lp3725
VR03DA54
p3726
aVR03DB04
p3727
aVR03DA74
p3728
aVR03DA05
p3729
aVR03DA04
p3730
aVR03DA20
p3731
atRp3732
sVDB00275
p3733
g3
((lp3734
VC09DA08
p3735
aVC09CA08
p3736
aVC09DX03
p3737
aVC09DB02
p3738
atRp3739
sVDB00104
p3740
g3
((lp3741
VH01CB02
p3742
atRp3743
sVDB00105
p3744
g3
((lp3745
VL03AB05
p3746
aVL03AB10
p3747
atRp3748
sVDB00106
p3749
g3
((lp3750
VL02BX01
p3751
atRp3752
sVDB00107
p3753
g3
((lp3754
VG02AC01
p3755
aVH01BB02
p3756
aVH01BB01
p3757
atRp3758
sVDB00100
p3759
g3
((lp3760
VB02BD09
p3761
atRp3762
sVDB00102
p3763
g3
((lp3764
VA01AD08
p3765
aVD03AX06
p3766
atRp3767
sVDB00966
p3768
g3
((lp3769
VC09DB04
p3770
aVC09CA07
p3771
aVC09DA07
p3772
atRp3773
sVDB06603
p3774
g3
((lp3775
VL01XX42
p3776
atRp3777
sVDB00108
p3778
g3
((lp3779
VL04AA23
p3780
atRp3781
sVDB00967
p3782
g3
((lp3783
VR06AX27
p3784
atRp3785
sVDB00294
p3786
g3
((lp3787
VG03AC08
p3788
atRp3789
sVDB00295
p3790
g3
((lp3791
VN02AA09
p3792
aVR05DA05
p3793
aVR05DA01
p3794
aVN02AA01
p3795
aVA07DA52
p3796
aVD10AX30
p3797
aVN02AA04
p3798
aVN02AA51
p3799
aVG04BE07
p3800
aVS01XA06
p3801
aVN02AG01
p3802
aVN04BC07
p3803
atRp3804
sVDB00296
p3805
g3
((lp3806
VN01BB09
p3807
atRp3808
sVDB00297
p3809
g3
((lp3810
VN01BB01
p3811
aVN01BB10
p3812
aVN01BB51
p3813
atRp3814
sVDB00290
p3815
g3
((lp3816
VL01DC01
p3817
atRp3818
sVDB01619
p3819
g3
((lp3820
VR06AX04
p3821
atRp3822
sVDB00292
p3823
g3
((lp3824
VN01AX07
p3825
atRp3826
sVDB00293
p3827
g3
((lp3828
VL01BA03
p3829
atRp3830
sVDB01618
p3831
g3
((lp3832
VN05AE02
p3833
atRp3834
sVDB00298
p3835
g3
((lp3836
VS01EX02
p3837
atRp3838
sVDB13179
p3839
g3
((lp3840
VJ01FA08
p3841
atRp3842
sVDB06739
p3843
g3
((lp3844
VR03DX06
p3845
atRp3846
sVDB06738
p3847
g3
((lp3848
VN02AB01
p3849
aVN02AG02
p3850
atRp3851
sVDB06736
p3852
g3
((lp3853
VM01AB16
p3854
aVM02AA25
p3855
atRp3856
sVDB06285
p3857
g3
((lp3858
VH05AA02
p3859
atRp3860
sVDB06287
p3861
g3
((lp3862
VL01XE09
p3863
atRp3864
sVDB06282
p3865
g3
((lp3866
VR06AE09
p3867
atRp3868
sVDB06288
p3869
g3
((lp3870
VN05AL05
p3871
atRp3872
sVDB04825
p3873
g3
((lp3874
VC01DX52
p3875
aVC01DX02
p3876
atRp3877
sVDB04824
p3878
g3
((lp3879
VA06AB04
p3880
atRp3881
sVDB04821
p3882
g3
((lp3883
VN06AX04
p3884
atRp3885
sVDB04820
p3886
g3
((lp3887
VN06AF02
p3888
atRp3889
sVDB00857
p3890
g3
((lp3891
VD01BA02
p3892
aVD01AE15
p3893
atRp3894
sVDB00855
p3895
g3
((lp3896
VL01XD04
p3897
atRp3898
sVDB00852
p3899
g3
((lp3900
VR01BA52
p3901
aVR01BA02
p3902
atRp3903
sVDB00850
p3904
g3
((lp3905
VN05AB03
p3906
atRp3907
sVDB00851
p3908
g3
((lp3909
VL01AX04
p3910
atRp3911
sVDB03106
p3912
g3
((lp3913
VA11HA07
p3914
atRp3915
sVDB11738
p3916
g3
((lp3917
VC02AC06
p3918
atRp3919
sVDB06196
p3920
g3
((lp3921
VB06AC02
p3922
atRp3923
sVDB00367
p3924
g3
((lp3925
VG03AB03
p3926
aVG03FA11
p3927
aVG03AA07
p3928
aVG03AD01
p3929
aVG03AC03
p3930
aVG03FB09
p3931
atRp3932
sVDB09265
p3933
g3
((lp3934
VA10BX10
p3935
atRp3936
sVDB08931
p3937
g3
((lp3938
VC02KX05
p3939
atRp3940
sVDB08932
p3941
g3
((lp3942
VC02KX04
p3943
atRp3944
sVDB08935
p3945
g3
((lp3946
VL01XC15
p3947
atRp3948
sVDB08936
p3949
g3
((lp3950
VR06AE04
p3951
atRp3952
sVDB06204
p3953
g3
((lp3954
VN02AX06
p3955
atRp3956
sVDB06203
p3957
g3
((lp3958
VA10BD13
p3959
aVA10BD09
p3960
aVA10BH04
p3961
atRp3962
sVDB01088
p3963
g3
((lp3964
VB01AC11
p3965
atRp3966
sVDB01089
p3967
g3
((lp3968
VC02LA03
p3969
aVC02AA05
p3970
atRp3971
sVDB09079
p3972
g3
((lp3973
VL01XE31
p3974
atRp3975
sVDB09078
p3976
g3
((lp3977
VL01XE29
p3978
atRp3979
sVDB01082
p3980
g3
((lp3981
VJ04AM01
p3982
aVA07AA04
p3983
aVA07AA54
p3984
aVJ01GA01
p3985
aVS01AA15
p3986
atRp3987
sVDB09076
p3988
g3
((lp3989
VR03BB07
p3990
aVR03AL03
p3991
atRp3992
sVDB01080
p3993
g3
((lp3994
VN03AG04
p3995
atRp3996
sVDB09074
p3997
g3
((lp3998
VL01XX46
p3999
atRp4000
sVDB01086
p4001
g3
((lp4002
VC05AD03
p4003
aVD04AB04
p4004
aVN01BA05
p4005
aVR02AD01
p4006
atRp4007
sVDB01087
p4008
g3
((lp4009
VP01BA03
p4010
atRp4011
sVDB01084
p4012
g3
((lp4013
VS01GX06
p4014
atRp4015
sVDB01085
p4016
g3
((lp4017
VN07AX01
p4018
aVS01EB51
p4019
aVS01EB01
p4020
atRp4021
sVDB01248
p4022
g3
((lp4023
VL01CD02
p4024
atRp4025
sVDB01244
p4026
g3
((lp4027
VC08EA02
p4028
atRp4029
sVDB01246
p4030
g3
((lp4031
VR06AD01
p4032
atRp4033
sVDB01247
p4034
g3
((lp4035
VN06AF01
p4036
atRp4037
sVDB01240
p4038
g3
((lp4039
VB01AC09
p4040
atRp4041
sVDB01241
p4042
g3
((lp4043
VC10AB04
p4044
atRp4045
sVDB01242
p4046
g3
((lp4047
VN06AA04
p4048
atRp4049
sVDB01064
p4050
g3
((lp4051
VR03AB02
p4052
aVD08AX05
p4053
aVR03CB51
p4054
aVR03AK02
p4055
aVC01CA02
p4056
aVR03CB01
p4057
atRp4058
sVDB00048
p4059
g3
((lp4060
VM09AB02
p4061
aVD03BA02
p4062
aVD03BA52
p4063
atRp4064
sVDB00599
p4065
g3
((lp4066
VN05CA19
p4067
aVN05CB01
p4068
aVN01AF03
p4069
atRp4070
sVDB01067
p4071
g3
((lp4072
VA10BB07
p4073
atRp4074
sVDB01062
p4075
g3
((lp4076
VG04BD04
p4077
atRp4078
sVDB01063
p4079
g3
((lp4080
VN05AB07
p4081
atRp4082
sVDB00041
p4083
g3
((lp4084
VL03AC01
p4085
aVL03AB60
p4086
aVA10AB01
p4087
aVL03AB10
p4088
atRp4089
sVDB00592
p4090
g3
((lp4091
VP02CB01
p4092
atRp4093
sVDB00043
p4094
g3
((lp4095
VR03DX05
p4096
atRp4097
sVDB00042
p4098
g3
((lp4099
VM03AX01
p4100
atRp4101
sVDB01068
p4102
g3
((lp4103
VN03AE01
p4104
atRp4105
sVDB01069
p4106
g3
((lp4107
VR06AD05
p4108
aVD04AA10
p4109
aVV03AB05
p4110
aVR06AD02
p4111
aVR06AD52
p4112
atRp4113
sVDB00047
p4114
g3
((lp4115
VA10AE04
p4116
atRp4117
sVDB00594
p4118
g3
((lp4119
VC03DB01
p4120
atRp4121
sVDB00449
p4122
g3
((lp4123
VS01EA02
p4124
atRp4125
sVDB00448
p4126
g3
((lp4127
VA02BD02
p4128
aVA02BD03
p4129
aVA02BD10
p4130
aVA02BC53
p4131
aVA02BD09
p4132
aVA02BC03
p4133
aVA02BD07
p4134
atRp4135
sVDB00445
p4136
g3
((lp4137
VL01DB03
p4138
atRp4139
sVDB00444
p4140
g3
((lp4141
VL01CB02
p4142
atRp4143
sVDB00446
p4144
g3
((lp4145
VS02AA01
p4146
aVD10AF03
p4147
aVD06AX02
p4148
aVG01AA05
p4149
aVS03AA08
p4150
aVS01AA01
p4151
aVJ01BA01
p4152
atRp4153
sVDB00441
p4154
g3
((lp4155
VL01BC05
p4156
atRp4157
sVDB00440
p4158
g3
((lp4159
VJ01EE07
p4160
aVJ01EE04
p4161
aVJ01EE05
p4162
aVJ01EE02
p4163
aVJ01EE03
p4164
aVJ01EE01
p4165
aVJ01EA01
p4166
atRp4167
sVDB00443
p4168
g3
((lp4169
VS03CA06
p4170
aVS03BA03
p4171
aVS01CA05
p4172
aVS01BB04
p4173
aVR03BA04
p4174
aVA07EA04
p4175
aVH02AB01
p4176
aVC05AA05
p4177
aVD07CC01
p4178
aVD07BC01
p4179
aVD07AC01
p4180
aVD07XC01
p4181
aVS02BA07
p4182
aVS01BA06
p4183
aVR01AD06
p4184
aVS01CB04
p4185
atRp4186
sVDB01406
p4187
g3
((lp4188
VG03XA01
p4189
atRp4190
sVDB01407
p4191
g3
((lp4192
VR03AC14
p4193
aVR03CC13
p4194
atRp4195
sVDB01403
p4196
g3
((lp4197
VN05AA02
p4198
atRp4199
sVDB01400
p4200
g3
((lp4201
VN07AA01
p4202
aVS01EB06
p4203
aVN07AA51
p4204
atRp4205
sVDB01394
p4206
g3
((lp4207
VM04AC01
p4208
atRp4209
sVDB09185
p4210
g3
((lp4211
VN06AX09
p4212
atRp4213
sVDB01409
p4214
g3
((lp4215
VR03BB54
p4216
aVR03BB04
p4217
aVR03AL06
p4218
atRp4219
sVDB01395
p4220
g3
((lp4221
VG03AC10
p4222
aVG03FA17
p4223
aVG03AA12
p4224
atRp4225
sVDB00130
p4226
g3
((lp4227
VA16AA03
p4228
atRp4229
sVDB00134
p4230
g3
((lp4231
VV03AB26
p4232
atRp4233
sVDB00136
p4234
g3
((lp4235
VA11CC04
p4236
aVD05AX03
p4237
atRp4238
sVDB00918
p4239
g3
((lp4240
VN02CC05
p4241
atRp4242
sVDB00917
p4243
g3
((lp4244
VG02AD02
p4245
atRp4246
sVDB00916
p4247
g3
((lp4248
VG01AF20
p4249
aVA02BD03
p4250
aVG01AF01
p4251
aVJ01RA04
p4252
aVJ01RA03
p4253
aVP01AB01
p4254
aVA01AB17
p4255
aVP01AB51
p4256
aVA02BD02
p4257
aVJ01XD01
p4258
aVD06BX01
p4259
aVA02BD01
p4260
aVA02BD11
p4261
aVJ01RA10
p4262
aVA02BD08
p4263
atRp4264
sVDB00915
p4265
g3
((lp4266
VN04BB01
p4267
atRp4268
sVDB00914
p4269
g3
((lp4270
VA10BD01
p4271
aVA10BA01
p4272
atRp4273
sVDB00913
p4274
g3
((lp4275
VN01AH05
p4276
atRp4277
sVDB00912
p4278
g3
((lp4279
VA10BD14
p4280
aVA10BX02
p4281
atRp4282
sVDB00910
p4283
g3
((lp4284
VH05BX02
p4285
atRp4286
sVDB04908
p4287
g3
((lp4288
VG02CX02
p4289
atRp4290
sVDB13166
p4291
g3
((lp4292
VC09BA15
p4293
aVC09AA15
p4294
atRp4295
sVDB13167
p4296
g3
((lp4297
VM01AB06
p4298
atRp4299
sVDB00624
p4300
g3
((lp4301
VG03EA02
p4302
aVG03BA03
p4303
atRp4304
sVDB00627
p4305
g3
((lp4306
VC04AC01
p4307
aVC10AD02
p4308
aVC10AD52
p4309
aVC10BA01
p4310
atRp4311
sVDB00626
p4312
g3
((lp4313
VR02AB04
p4314
aVJ01XX10
p4315
aVD06AX05
p4316
atRp4317
sVDB00621
p4318
g3
((lp4319
VA14AA08
p4320
atRp4321
sVDB00620
p4322
g3
((lp4323
VD07AB09
p4324
aVA01AC01
p4325
aVS02CA04
p4326
aVR03BA06
p4327
aVC05AA12
p4328
aVH02AB08
p4329
aVR01AD11
p4330
aVD07CB01
p4331
aVD07BB03
p4332
aVD07XB02
p4333
aVS01BA05
p4334
atRp4335
sVDB00623
p4336
g3
((lp4337
VN05AB02
p4338
atRp4339
sVDB00622
p4340
g3
((lp4341
VC08CA04
p4342
atRp4343
sVDB06720
p4344
g3
((lp4345
VA16AB10
p4346
atRp4347
sVDB06725
p4348
g3
((lp4349
VM01AC05
p4350
atRp4351
sVDB09097
p4352
g3
((lp4353
VG02CB04
p4354
atRp4355
sVDB04835
p4356
g3
((lp4357
VJ05AX09
p4358
atRp4359
sVDB04836
p4360
g3
((lp4361
VN06AA19
p4362
atRp4363
sVDB04837
p4364
g3
((lp4365
VR05DB10
p4366
atRp4367
sVDB04832
p4368
g3
((lp4369
VN06AB02
p4370
atRp4371
sVDB00822
p4372
g3
((lp4373
VP03AA54
p4374
aVP03AA04
p4375
aVN07BB01
p4376
atRp4377
sVDB00820
p4378
g3
((lp4379
VG04BE08
p4380
atRp4381
sVDB04838
p4382
g3
((lp4383
VC04AX01
p4384
atRp4385
sVDB04839
p4386
g3
((lp4387
VG03HB01
p4388
aVG03HA01
p4389
atRp4390
sVDB00181
p4391
g3
((lp4392
VM03BX01
p4393
atRp4394
sVDB06616
p4395
g3
((lp4396
VL01XE14
p4397
atRp4398
sVDB06612
p4399
g3
((lp4400
VL04AC06
p4401
atRp4402
sVDB08329
p4403
g3
((lp4404
VN03AX03
p4405
atRp4406
sVDB06470
p4407
g3
((lp4408
VN05CX04
p4409
aVN05CM02
p4410
atRp4411
sVDB06186
p4412
g3
((lp4413
VL01XC11
p4414
atRp4415
sVDB05578
p4416
g3
((lp4417
VL01XC21
p4418
atRp4419
sVDB11614
p4420
g3
((lp4421
VR06AX28
p4422
atRp4423
sVDB03754
p4424
g3
((lp4425
VB05XX02
p4426
aVB05BB03
p4427
atRp4428
sVDB05990
p4429
g3
((lp4430
VA05AA04
p4431
atRp4432
sVDB09213
p4433
g3
((lp4434
VM01AE14
p4435
atRp4436
sVDB00829
p4437
g3
((lp4438
VN05BA17
p4439
aVN05BA01
p4440
atRp4441
sVDB05351
p4442
g3
((lp4443
VA02BC06
p4444
atRp4445
sVDB09068
p4446
g3
((lp4447
VN06AX26
p4448
atRp4449
sVDB09069
p4450
g3
((lp4451
VC01EB15
p4452
atRp4453
sVDB09063
p4454
g3
((lp4455
VL01XE28
p4456
atRp4457
sVDB01279
p4458
g3
((lp4459
VA16AB08
p4460
atRp4461
sVDB01278
p4462
g3
((lp4463
VA10BX05
p4464
atRp4465
sVDB01271
p4466
g3
((lp4467
VA16AB09
p4468
atRp4469
sVDB01270
p4470
g3
((lp4471
VS01LA04
p4472
atRp4473
sVDB01273
p4474
g3
((lp4475
VN07BA03
p4476
atRp4477
sVDB01272
p4478
g3
((lp4479
VA16AB07
p4480
atRp4481
sVDB01275
p4482
g3
((lp4483
VC02DB01
p4484
aVC02DB02
p4485
aVC02LG02
p4486
atRp4487
sVDB01274
p4488
g3
((lp4489
VR03AC13
p4490
atRp4491
sVDB01277
p4492
g3
((lp4493
VH01AC03
p4494
aVH01AC05
p4495
atRp4496
sVDB01276
p4497
g3
((lp4498
VA10BX04
p4499
atRp4500
sVDB00588
p4501
g3
((lp4502
VD07AC17
p4503
aVR03BA05
p4504
aVR01AD08
p4505
atRp4506
sVDB00589
p4507
g3
((lp4508
VG02CB02
p4509
aVN02CA07
p4510
atRp4511
sVDB01054
p4512
g3
((lp4513
VC08CA08
p4514
aVC09BB06
p4515
atRp4516
sVDB01057
p4517
g3
((lp4518
VS01EB03
p4519
atRp4520
sVDB01056
p4521
g3
((lp4522
VC01BB03
p4523
atRp4524
sVDB00580
p4525
g3
((lp4526
VM01AH03
p4527
atRp4528
sVDB00583
p4529
g3
((lp4530
VA16AA01
p4531
atRp4532
sVDB00584
p4533
g3
((lp4534
VC09BA02
p4535
aVC09AA02
p4536
aVC09BB02
p4537
aVC09BB06
p4538
atRp4539
sVDB00586
p4540
g3
((lp4541
VD11AX18
p4542
aVS01BC03
p4543
aVM01AB55
p4544
aVM02AA15
p4545
aVS01CC01
p4546
aVM01AB05
p4547
atRp4548
sVDB01183
p4549
g3
((lp4550
VV03AB15
p4551
atRp4552
sVDB01182
p4553
g3
((lp4554
VC01BC03
p4555
atRp4556
sVDB01181
p4557
g3
((lp4558
VL01AA06
p4559
atRp4560
sVDB01180
p4561
g3
((lp4562
VC02AA01
p4563
aVC02LA52
p4564
aVC02LA02
p4565
atRp4566
sVDB01186
p4567
g3
((lp4568
VN04BC02
p4569
atRp4570
sVDB01185
p4571
g3
((lp4572
VG03BA01
p4573
atRp4574
sVDB01184
p4575
g3
((lp4576
VA03FA03
p4577
atRp4578
sVDB00452
p4579
g3
((lp4580
VJ01GB05
p4581
aVB05CA09
p4582
aVA07AA01
p4583
aVS02AA07
p4584
aVS03AA01
p4585
aVD09AA01
p4586
aVR02AB01
p4587
aVD06AX04
p4588
aVA07AA51
p4589
aVS01AA03
p4590
aVR01AX08
p4591
aVS01AA07
p4592
aVA01AB08
p4593
atRp4594
sVDB01189
p4595
g3
((lp4596
VN01AB07
p4597
atRp4598
sVDB00451
p4599
g3
((lp4600
VH03AA01
p4601
atRp4602
sVDB00457
p4603
g3
((lp4604
VC02LE01
p4605
aVC02CA01
p4606
atRp4607
sVDB00454
p4608
g3
((lp4609
VN02AB02
p4610
aVN02AB52
p4611
aVN02AG03
p4612
aVN02AB72
p4613
atRp4614
sVDB00455
p4615
g3
((lp4616
VC09AA03
p4617
aVR06AX13
p4618
aVR06AX27
p4619
atRp4620
sVDB09194
p4621
g3
((lp4622
VN06AB09
p4623
atRp4624
sVDB04339
p4625
g3
((lp4626
VR05CB03
p4627
atRp4628
sVDB04335
p4629
g3
((lp4630
VG01AX02
p4631
aVD06BB05
p4632
aVS01XA10
p4633
atRp4634
sVDB01014
p4635
g3
((lp4636
VA07EC04
p4637
atRp4638
sVDB00056
p4639
g3
((lp4640
VL01XC05
p4641
atRp4642
sVDB00054
p4643
g3
((lp4644
VB01AC13
p4645
atRp4646
sVDB01016
p4647
g3
((lp4648
VA10BB01
p4649
atRp4650
sVDB00052
p4651
g3
((lp4652
VH01AC01
p4653
atRp4654
sVDB00050
p4655
g3
((lp4656
VH01CC02
p4657
atRp4658
sVDB01698
p4659
g3
((lp4660
VC05CA01
p4661
aVC05CA51
p4662
atRp4663
sVDB00058
p4664
g3
((lp4665
VB02AB02
p4666
atRp4667
sVDB00126
p4668
g3
((lp4669
VA11GA01
p4670
aVA11GB01
p4671
aVS01XA15
p4672
aVG01AD03
p4673
atRp4674
sVDB00125
p4675
g3
((lp4676
VB05XB01
p4677
atRp4678
sVDB00122
p4679
g3
((lp4680
VN02BA03
p4681
atRp4682
sVDB00123
p4683
g3
((lp4684
VB05XB03
p4685
atRp4686
sVDB00121
p4687
g3
((lp4688
VA11HA05
p4689
atRp4690
sVDB00908
p4691
g3
((lp4692
VC01BA51
p4693
aVC01BA01
p4694
aVC01BA71
p4695
atRp4696
sVDB04930
p4697
g3
((lp4698
VP03AC04
p4699
aVP03AC54
p4700
atRp4701
sVDB04932
p4702
g3
((lp4703
VB01AX01
p4704
atRp4705
sVDB00904
p4706
g3
((lp4707
VA04AA01
p4708
atRp4709
sVDB00905
p4710
g3
((lp4711
VS01EE03
p4712
atRp4713
sVDB00907
p4714
g3
((lp4715
VN01BC01
p4716
aVS02DA02
p4717
aVR02AD03
p4718
aVS01HA01
p4719
atRp4720
sVDB00900
p4721
g3
((lp4722
VJ05AF02
p4723
atRp4724
sVDB00901
p4725
g3
((lp4726
VR03AC17
p4727
atRp4728
sVDB00902
p4729
g3
((lp4730
VR06AD04
p4731
atRp4732
sVDB00903
p4733
g3
((lp4734
VC03CC01
p4735
atRp4736
sVDB00547
p4737
g3
((lp4738
VD07XC02
p4739
aVD07AC03
p4740
atRp4741
sVDB00016
p4742
g3
((lp4743
VB03XA02
p4744
aVB03XA01
p4745
atRp4746
sVDB00017
p4747
g3
((lp4748
VH05BA01
p4749
atRp4750
sVDB00633
p4751
g3
((lp4752
VN05CM18
p4753
atRp4754
sVDB00630
p4755
g3
((lp4756
VM05BB03
p4757
aVM05BA04
p4758
aVM05BB06
p4759
aVM05BB05
p4760
atRp4761
sVDB00631
p4762
g3
((lp4763
VL01BB06
p4764
atRp4765
sVDB00636
p4766
g3
((lp4767
VC10AB01
p4768
atRp4769
sVDB00637
p4770
g3
((lp4771
VR06AX11
p4772
atRp4773
sVDB00635
p4774
g3
((lp4775
VA07EA03
p4776
aVH02AB15
p4777
aVH02AB07
p4778
atRp4779
sVDB00543
p4780
g3
((lp4781
VN06AA17
p4782
atRp4783
sVDB03904
p4784
g3
((lp4785
VD02AE01
p4786
aVB05BC02
p4787
atRp4788
sVDB00764
p4789
g3
((lp4790
VD07XC03
p4791
aVR01AD09
p4792
aVR03AK09
p4793
aVD07AC13
p4794
aVR03BA07
p4795
atRp4796
sVDB00765
p4797
g3
((lp4798
VC02KB01
p4799
atRp4800
sVDB06268
p4801
g3
((lp4802
VC02KX03
p4803
atRp4804
sVDB06267
p4805
g3
((lp4806
VG04BE11
p4807
atRp4808
sVDB06266
p4809
g3
((lp4810
VL01XX07
p4811
atRp4812
sVDB06263
p4813
g3
((lp4814
VL01DB10
p4815
atRp4816
sVDB06262
p4817
g3
((lp4818
VC01CA27
p4819
atRp4820
sVDB00838
p4821
g3
((lp4822
VD07AB21
p4823
atRp4824
sVDB13025
p4825
g3
((lp4826
VN05AL03
p4827
atRp4828
sVDB00946
p4829
g3
((lp4830
VB01AA04
p4831
atRp4832
sVDB00831
p4833
g3
((lp4834
VN05AB06
p4835
atRp4836
sVDB00834
p4837
g3
((lp4838
VG03XB01
p4839
aVG03XB51
p4840
atRp4841
sVDB00835
p4842
g3
((lp4843
VR06AB51
p4844
aVR06AB01
p4845
aVR06AB06
p4846
atRp4847
sVDB00836
p4848
g3
((lp4849
VA07DA53
p4850
aVA07DA05
p4851
aVA07DA03
p4852
atRp4853
sVDB00837
p4854
g3
((lp4855
VN03AG05
p4856
atRp4857
sVDB06663
p4858
g3
((lp4859
VH01CB05
p4860
atRp4861
sVDB00089
p4862
g3
((lp4863
VV09IB04
p4864
atRp4865
sVDB00899
p4866
g3
((lp4867
VN01AH06
p4868
atRp4869
sVDB06403
p4870
g3
((lp4871
VC02KX02
p4872
atRp4873
sVDB06401
p4874
g3
((lp4875
VG03XC02
p4876
aVG03CC07
p4877
atRp4878
sVDB06404
p4879
g3
((lp4880
VB06AC01
p4881
atRp4882
sVDB11994
p4883
g3
((lp4884
VM01AX21
p4885
atRp4886
sVDB08822
p4887
g3
((lp4888
VC09CA09
p4889
aVC09DA09
p4890
atRp4891
sVDB08820
p4892
g3
((lp4893
VR07AX30
p4894
aVR07AX02
p4895
atRp4896
sVDB08827
p4897
g3
((lp4898
VC10AX12
p4899
atRp4900
sVDB08828
p4901
g3
((lp4902
VL01XX43
p4903
atRp4904
sVDB09203
p4905
g3
((lp4906
VS01GA56
p4907
aVC01CA08
p4908
aVS01GA06
p4909
atRp4910
sVDB09166
p4911
g3
((lp4912
VN05BA19
p4913
atRp4914
sVDB08950
p4915
g3
((lp4916
VC02CA02
p4917
atRp4918
sVDB08954
p4919
g3
((lp4920
VC04AX28
p4921
atRp4922
sVDB00264
p4923
g3
((lp4924
VC07AB02
p4925
aVC07BB02
p4926
aVC07BB52
p4927
aVC07FB02
p4928
aVC07AB52
p4929
aVC07CB02
p4930
atRp4931
sVDB01267
p4932
g3
((lp4933
VN05AX13
p4934
atRp4935
sVDB01262
p4936
g3
((lp4937
VL01BC08
p4938
atRp4939
sVDB01260
p4940
g3
((lp4941
VS01BA11
p4942
aVD07AB08
p4943
aVD07BB02
p4944
atRp4945
sVDB01261
p4946
g3
((lp4947
VA10BH51
p4948
aVA10BD12
p4949
aVA10BD07
p4950
aVA10BH01
p4951
atRp4952
sVDB09053
p4953
g3
((lp4954
VL01XE27
p4955
atRp4956
sVDB09052
p4957
g3
((lp4958
VL01XC19
p4959
atRp4960
sVDB05039
p4961
g3
((lp4962
VR03AL04
p4963
aVR03AC18
p4964
atRp4965
sVDB01269
p4966
g3
((lp4967
VL01XC08
p4968
atRp4969
sVDB01049
p4970
g3
((lp4971
VC04AE51
p4972
aVC04AE01
p4973
atRp4974
sVDB01046
p4975
g3
((lp4976
VA06AX03
p4977
atRp4978
sVDB04743
p4979
g3
((lp4980
VM01AX17
p4981
aVM02AA26
p4982
atRp4983
sVDB01045
p4984
g3
((lp4985
VJ04AM02
p4986
aVJ04AM05
p4987
aVJ04AB02
p4988
aVJ04AM06
p4989
atRp4990
sVDB01043
p4991
g3
((lp4992
VN06DX01
p4993
aVN06DA52
p4994
aVN06DA53
p4995
atRp4996
sVDB01041
p4997
g3
((lp4998
VL04AX02
p4999
atRp5000
sVDB00114
p5001
g3
((lp5002
VA11HA06
p5003
atRp5004
sVDB01191
p5005
g3
((lp5006
VA08AA04
p5007
atRp5008
sVDB01193
p5009
g3
((lp5010
VC07BB04
p5011
aVC07AB04
p5012
atRp5013
sVDB01194
p5014
g3
((lp5015
VS01EC04
p5016
aVS01EC54
p5017
atRp5018
sVDB01195
p5019
g3
((lp5020
VC01BC04
p5021
atRp5022
sVDB01196
p5023
g3
((lp5024
VL01XX11
p5025
atRp5026
sVDB01197
p5027
g3
((lp5028
VC09AA01
p5029
aVC09BA01
p5030
atRp5031
sVDB01198
p5032
g3
((lp5033
VN05CF01
p5034
atRp5035
sVDB01199
p5036
g3
((lp5037
VM03AA02
p5038
atRp5039
sVDB01463
p5040
g3
((lp5041
VN06BA06
p5042
atRp5043
sVDB04106
p5044
g3
((lp5045
VL01AD05
p5046
atRp5047
sVDB00481
p5048
g3
((lp5049
VG03XC01
p5050
atRp5051
sVDB00480
p5052
g3
((lp5053
VL04AX04
p5054
atRp5055
sVDB00482
p5056
g3
((lp5057
VL01XX33
p5058
aVM01AH01
p5059
aVG01AE10
p5060
atRp5061
sVDB00484
p5062
g3
((lp5063
VS01EA05
p5064
aVD11AX21
p5065
atRp5066
sVDB04630
p5067
g3
((lp5068
VH02AA01
p5069
atRp5070
sVDB00486
p5071
g3
((lp5072
VA04AD11
p5073
atRp5074
sVDB00489
p5075
g3
((lp5076
VC07BA07
p5077
aVC07AA57
p5078
aVC07AA07
p5079
atRp5080
sVDB00335
p5081
g3
((lp5082
VC07AB03
p5083
aVC07DB01
p5084
aVC07BB03
p5085
aVC07FB03
p5086
aVC07CB53
p5087
aVC07AB11
p5088
aVC07CB03
p5089
atRp5090
sVDB00334
p5091
g3
((lp5092
VN05AH03
p5093
atRp5094
sVDB00333
p5095
g3
((lp5096
VN07BC02
p5097
aVN02AC52
p5098
atRp5099
sVDB00332
p5100
g3
((lp5101
VR03AL01
p5102
aVR03AL02
p5103
aVR01AX03
p5104
aVR03BB01
p5105
atRp5106
sVDB00331
p5107
g3
((lp5108
VA10BD10
p5109
aVA10BD16
p5110
aVA10BD02
p5111
aVA10BD03
p5112
aVA10BD11
p5113
aVA10BD13
p5114
aVA10BD07
p5115
aVA10BD15
p5116
aVA10BD05
p5117
aVA10BD17
p5118
aVA10BD18
p5119
aVA10BD14
p5120
aVA10BD08
p5121
aVA10BA02
p5122
aVA10BD20
p5123
atRp5124
sVDB00022
p5125
g3
((lp5126
VL03AC01
p5127
aVL03AB60
p5128
aVA10AB01
p5129
aVL03AB10
p5130
atRp5131
sVDB00021
p5132
g3
((lp5133
VV04CK01
p5134
atRp5135
sVDB00020
p5136
g3
((lp5137
VL03AA09
p5138
atRp5139
sVDB00026
p5140
g3
((lp5141
VL04AC03
p5142
atRp5143
sVDB00025
p5144
g3
((lp5145
VB02BD02
p5146
atRp5147
sVDB00024
p5148
g3
((lp5149
VH01AB01
p5150
aVV04CJ01
p5151
atRp5152
sVDB00029
p5153
g3
((lp5154
VB01AD03
p5155
atRp5156
sVDB00282
p5157
g3
((lp5158
VM05BA03
p5159
atRp5160
sVDB00158
p5161
g3
((lp5162
VB03BB51
p5163
aVB03AE01
p5164
aVB03AE02
p5165
aVB03BB01
p5166
atRp5167
sVDB00153
p5168
g3
((lp5169
VA11CC01
p5170
atRp5171
sVDB00152
p5172
g3
((lp5173
VA11DA01
p5174
atRp5175
sVDB00939
p5176
g3
((lp5177
VM01AG04
p5178
aVM02AA18
p5179
atRp5180
sVDB00938
p5181
g3
((lp5182
VR03AK12
p5183
aVR03AK06
p5184
aVR03AC12
p5185
atRp5186
sVDB04920
p5187
g3
((lp5188
VC08CA16
p5189
atRp5190
sVDB04924
p5191
g3
((lp5192
VA03FA07
p5193
atRp5194
sVDB00933
p5195
g3
((lp5196
VN05AC03
p5197
atRp5198
sVDB00935
p5199
g3
((lp5200
VS01GA04
p5201
aVR01AB07
p5202
aVR01AA05
p5203
atRp5204
sVDB00934
p5205
g3
((lp5206
VN06AA21
p5207
atRp5208
sVDB00937
p5209
g3
((lp5210
VA08AA03
p5211
atRp5212
sVDB00936
p5213
g3
((lp5214
VN02BA04
p5215
aVD01AE12
p5216
aVS01BC08
p5217
aVN02BA12
p5218
atRp5219
sVDB01032
p5220
g3
((lp5221
VG01AE10
p5222
aVM04AB01
p5223
atRp5224
sVDB00960
p5225
g3
((lp5226
VC07CA03
p5227
aVC07AA17
p5228
aVC07AA03
p5229
aVC07AA14
p5230
atRp5231
sVDB00805
p5232
g3
((lp5233
VN06AX07
p5234
atRp5235
sVDB00804
p5236
g3
((lp5237
VA03AA07
p5238
atRp5239
sVDB00807
p5240
g3
((lp5241
VS01HA04
p5242
atRp5243
sVDB00806
p5244
g3
((lp5245
VC04AD03
p5246
aVR03DA20
p5247
atRp5248
sVDB00801
p5249
g3
((lp5250
VN05BA13
p5251
atRp5252
sVDB00800
p5253
g3
((lp5254
VC01CA19
p5255
atRp5256
sVDB00802
p5257
g3
((lp5258
VN01AH02
p5259
atRp5260
sVDB06274
p5261
g3
((lp5262
VA06AH02
p5263
atRp5264
sVDB00809
p5265
g3
((lp5266
VS01FA06
p5267
aVS01FA56
p5268
atRp5269
sVDB00808
p5270
g3
((lp5271
VG01AE10
p5272
aVC03BA11
p5273
aVC09BX01
p5274
atRp5275
sVDB06273
p5276
g3
((lp5277
VL04AC07
p5278
atRp5279
sVDB04817
p5280
g3
((lp5281
VN02BB72
p5282
aVN02BB52
p5283
aVN02BB02
p5284
atRp5285
sVDB06674
p5286
g3
((lp5287
VL04AB06
p5288
atRp5289
sVDB06410
p5290
g3
((lp5291
VH05BX03
p5292
atRp5293
sVDB06412
p5294
g3
((lp5295
VA14AA05
p5296
atRp5297
sVDB06413
p5298
g3
((lp5299
VN06BA13
p5300
atRp5301
sVDB00964
p5302
g3
((lp5303
VS01EA03
p5304
atRp5305
sVDB08835
p5306
g3
((lp5307
VR01AC05
p5308
aVS01GX03
p5309
atRp5310
sVDB08836
p5311
g3
((lp5312
VC09AA14
p5313
atRp5314
sVDB09238
p5315
g3
((lp5316
VC08CA11
p5317
aVC09BB12
p5318
atRp5319
sVDB01325
p5320
g3
((lp5321
VC03BB02
p5322
aVC03BA02
p5323
atRp5324
sVDB09301
p5325
g3
((lp5326
VM01AX25
p5327
atRp5328
sVDB09300
p5329
g3
((lp5330
VA03BB01
p5331
aVA03DB04
p5332
atRp5333
sVDB05332
p5334
g3
((lp5335
VB02BX04
p5336
atRp5337
sVDB01320
p5338
g3
((lp5339
VN03AB05
p5340
atRp5341
sVDB09045
p5342
g3
((lp5343
VA10BX14
p5344
atRp5345
sVDB09043
p5346
g3
((lp5347
VA10BX13
p5348
atRp5349
sVDB09049
p5350
g3
((lp5351
VA06AH03
p5352
atRp5353
sVDB01213
p5354
g3
((lp5355
VV03AB34
p5356
atRp5357
sVDB01211
p5358
g3
((lp5359
VJ01FA09
p5360
aVA02BD06
p5361
aVA02BD07
p5362
aVA02BD04
p5363
aVA02BD05
p5364
aVA02BD11
p5365
aVA02BD09
p5366
atRp5367
sVDB01210
p5368
g3
((lp5369
VS01ED03
p5370
atRp5371
sVDB00083
p5372
g3
((lp5373
VM03AX01
p5374
atRp5375
sVDB01215
p5376
g3
((lp5377
VN05CD04
p5378
atRp5379
sVDB01214
p5380
g3
((lp5381
VC07BA68
p5382
aVS01ED54
p5383
aVS01ED04
p5384
atRp5385
sVDB01219
p5386
g3
((lp5387
VM03CA01
p5388
atRp5389
sVDB01218
p5390
g3
((lp5391
VP01BX01
p5392
atRp5393
sVDB00324
p5394
g3
((lp5395
VS01BB03
p5396
aVD10AA01
p5397
aVS01CA07
p5398
aVD07AB06
p5399
aVC05AA06
p5400
aVD07CB03
p5401
aVD07XB04
p5402
aVS01BA07
p5403
aVS01CB05
p5404
atRp5405
sVDB00325
p5406
g3
((lp5407
VC02DD01
p5408
atRp5409
sVDB01039
p5410
g3
((lp5411
VC10BA03
p5412
aVC10AB05
p5413
aVC10BA04
p5414
atRp5415
sVDB00327
p5416
g3
((lp5417
VN02AA03
p5418
aVN02AG04
p5419
atRp5420
sVDB01033
p5421
g3
((lp5422
VL01BB02
p5423
atRp5424
sVDB00320
p5425
g3
((lp5426
VN02CA01
p5427
aVN02CA51
p5428
atRp5429
sVDB01030
p5430
g3
((lp5431
VL01XX17
p5432
atRp5433
sVDB01037
p5434
g3
((lp5435
VN04BD01
p5436
atRp5437
sVDB01036
p5438
g3
((lp5439
VG04BD07
p5440
atRp5441
sVDB01035
p5442
g3
((lp5443
VC01BA02
p5444
atRp5445
sVDB00493
p5446
g3
((lp5447
VJ01DD51
p5448
aVJ01DD01
p5449
atRp5450
sVDB00490
p5451
g3
((lp5452
VN05BE01
p5453
atRp5454
sVDB01148
p5455
g3
((lp5456
VG04BD02
p5457
atRp5458
sVDB11081
p5459
g3
((lp5460
VD10AX01
p5461
atRp5462
sVDB01327
p5463
g3
((lp5464
VJ01DB04
p5465
atRp5466
sVDB13919
p5467
g3
((lp5468
VC09DB07
p5469
aVC09DA06
p5470
aVC09CA06
p5471
atRp5472
sVDB01324
p5473
g3
((lp5474
VC03AA05
p5475
aVG01AE10
p5476
aVC03AB05
p5477
atRp5478
sVDB01452
p5479
g3
((lp5480
VN02AA09
p5481
aVN07BC06
p5482
atRp5483
sVDB01146
p5484
g3
((lp5485
VR06AA57
p5486
aVR06AA07
p5487
atRp5488
sVDB01144
p5489
g3
((lp5490
VG01AE10
p5491
aVS01EC02
p5492
atRp5493
sVDB00328
p5494
g3
((lp5495
VM01AB51
p5496
aVS01BC01
p5497
aVM02AA23
p5498
aVS01CC02
p5499
aVM01AB01
p5500
aVC01EB03
p5501
atRp5502
sVDB01142
p5503
g3
((lp5504
VN06AA12
p5505
atRp5506
sVDB00498
p5507
g3
((lp5508
VB01AA02
p5509
atRp5510
sVDB00499
p5511
g3
((lp5512
VL02BB01
p5513
atRp5514
sVDB00496
p5515
g3
((lp5516
VG04BD10
p5517
atRp5518
sVDB00497
p5519
g3
((lp5520
VN02AA05
p5521
aVN02AA55
p5522
atRp5523
sVDB00495
p5524
g3
((lp5525
VJ05AR01
p5526
aVJ05AR05
p5527
aVJ05AF01
p5528
aVJ05AR04
p5529
atRp5530
sVDB00492
p5531
g3
((lp5532
VC09AA09
p5533
aVC09BA09
p5534
atRp5535
sVDB00321
p5536
g3
((lp5537
VN06AA09
p5538
aVN06CA01
p5539
atRp5540
sVDB01149
p5541
g3
((lp5542
VN06AX06
p5543
atRp5544
sVDB00491
p5545
g3
((lp5546
VA10BF02
p5547
atRp5548
sVDB08799
p5549
g3
((lp5550
VR01AC04
p5551
aVR06AX05
p5552
atRp5553
sVDB00030
p5554
g3
((lp5555
VA10AD01
p5556
aVA10AD05
p5557
aVA10AC01
p5558
aVA10AC03
p5559
aVA10AB04
p5560
aVA10AB05
p5561
aVA10AB01
p5562
aVA10AB03
p5563
aVA10AE01
p5564
aVA10AF01
p5565
aVA10AE05
p5566
aVA10AE04
p5567
atRp5568
sVDB00031
p5569
g3
((lp5570
VB01AD11
p5571
atRp5572
sVDB00032
p5573
g3
((lp5574
VG03GA02
p5575
atRp5576
sVDB00034
p5577
g3
((lp5578
VL03AB04
p5579
aVL03AB11
p5580
atRp5581
sVDB00035
p5582
g3
((lp5583
VH01BA02
p5584
atRp5585
sVDB00036
p5586
g3
((lp5587
VB02BD08
p5588
atRp5589
sVDB00038
p5590
g3
((lp5591
VL03AC02
p5592
atRp5593
sVDB00039
p5594
g3
((lp5595
VV03AF08
p5596
atRp5597
sVDB00926
p5598
g3
((lp5599
VD05BB01
p5600
atRp5601
sVDB00924
p5602
g3
((lp5603
VM03BX08
p5604
atRp5605
sVDB00925
p5606
g3
((lp5607
VC04AX02
p5608
atRp5609
sVDB00922
p5610
g3
((lp5611
VC01CX08
p5612
atRp5613
sVDB00920
p5614
g3
((lp5615
VS01GX08
p5616
aVR06AX17
p5617
atRp5618
sVDB00921
p5619
g3
((lp5620
VN07BC51
p5621
aVN02AE01
p5622
aVN07BC01
p5623
atRp5624
sVDB00140
p5625
g3
((lp5626
VA11HA04
p5627
atRp5628
sVDB00142
p5629
g3
((lp5630
VA09AB01
p5631
atRp5632
sVDB00143
p5633
g3
((lp5634
VV03AB32
p5635
atRp5636
sVDB00145
p5637
g3
((lp5638
VB05CX03
p5639
atRp5640
sVDB00146
p5641
g3
((lp5642
VA11CC06
p5643
atRp5644
sVDB00929
p5645
g3
((lp5646
VM01AE56
p5647
aVA02BB01
p5648
aVG02AD06
p5649
atRp5650
sVDB09559
p5651
g3
((lp5652
VL01XC22
p5653
atRp5654
sVDB00812
p5655
g3
((lp5656
VM01AA01
p5657
aVM02AA01
p5658
aVM01BA01
p5659
atRp5660
sVDB00813
p5661
g3
((lp5662
VN02AB03
p5663
aVN01AH01
p5664
aVN01AH51
p5665
atRp5666
sVDB00810
p5667
g3
((lp5668
VN04AA02
p5669
atRp5670
sVDB00811
p5671
g3
((lp5672
VJ05AB04
p5673
atRp5674
sVDB00816
p5675
g3
((lp5676
VR03AB03
p5677
aVR03CB53
p5678
aVR03CB03
p5679
atRp5680
sVDB00814
p5681
g3
((lp5682
VM01AC56
p5683
aVM01AC06
p5684
atRp5685
sVDB06791
p5686
g3
((lp5687
VH01CB03
p5688
atRp5689
sVDB00819
p5690
g3
((lp5691
VS01EC01
p5692
atRp5693
sVDB06795
p5694
g3
((lp5695
VG01AE10
p5696
aVD06BA03
p5697
atRp5698
sVDB01132
p5699
g3
((lp5700
VA10BD12
p5701
aVA10BD09
p5702
aVA10BG03
p5703
aVA10BD06
p5704
aVA10BD05
p5705
atRp5706
sVDB13003
p5707
g3
((lp5708
VH02AB17
p5709
atRp5710
sVDB04868
p5711
g3
((lp5712
VL01XE08
p5713
atRp5714
sVDB01133
p5715
g3
((lp5716
VM05BA05
p5717
atRp5718
sVDB04861
p5719
g3
((lp5720
VC07FB12
p5721
aVC07BB12
p5722
aVC07AB12
p5723
atRp5724
sVDB04865
p5725
g3
((lp5726
VL01XX40
p5727
atRp5728
sVDB06643
p5729
g3
((lp5730
VM05BX04
p5731
atRp5732
sVDB02329
p5733
g3
((lp5734
VA02BX71
p5735
aVA02BX51
p5736
aVA02BX01
p5737
atRp5738
sVDB00013
p5739
g3
((lp5740
VB01AD04
p5741
atRp5742
sVDB01138
p5743
g3
((lp5744
VM04AB02
p5745
atRp5746
sVDB00148
p5747
g3
((lp5748
VC01EB06
p5749
atRp5750
sVDB08808
p5751
g3
((lp5752
VC07AA19
p5753
atRp5754
sVDB08807
p5755
g3
((lp5756
VC07AA17
p5757
aVC07CA17
p5758
atRp5759
sVDB08801
p5760
g3
((lp5761
VD04AA13
p5762
aVR06AB03
p5763
atRp5764
sVDB04894
p5765
g3
((lp5766
VH01CB04
p5767
atRp5768
sVDB08802
p5769
g3
((lp5770
VD04AA22
p5771
aVR06AD09
p5772
atRp5773
sVDB06335
p5774
g3
((lp5775
VA10BD10
p5776
aVA10BD21
p5777
aVA10BH03
p5778
atRp5779
sVDB02300
p5780
g3
((lp5781
VD05AX52
p5782
aVD05AX02
p5783
atRp5784
sVDB03783
p5785
g3
((lp5786
VN02BE73
p5787
aVN02BE03
p5788
aVN02BE53
p5789
atRp5790
sVDB00884
p5791
g3
((lp5792
VM05BB02
p5793
aVM05BB04
p5794
aVM05BB07
p5795
aVM05BA07
p5796
atRp5797
sVDB09220
p5798
g3
((lp5799
VC01DX16
p5800
atRp5801
sVDB02546
p5802
g3
((lp5803
VL01XX38
p5804
atRp5805
sVDB00928
p5806
g3
((lp5807
VL01BC07
p5808
atRp5809
sVDB09228
p5810
g3
((lp5811
VB06AC04
p5812
atRp5813
sVDB04899
p5814
g3
((lp5815
VC01DX19
p5816
atRp5817
sVDB09033
p5818
g3
((lp5819
VL04AA33
p5820
atRp5821
sVDB09031
p5822
g3
((lp5823
VL01XX09
p5824
atRp5825
sVDB09030
p5826
g3
((lp5827
VB01AC26
p5828
atRp5829
sVDB09037
p5830
g3
((lp5831
VL01XC18
p5832
atRp5833
sVDB09036
p5834
g3
((lp5835
VL04AC11
p5836
atRp5837
sVDB09035
p5838
g3
((lp5839
VL01XC17
p5840
atRp5841
sVDB09039
p5842
g3
((lp5843
VA16AX10
p5844
atRp5845
sVDB01200
p5846
g3
((lp5847
VG02CB01
p5848
aVN04BC01
p5849
atRp5850
sVDB01202
p5851
g3
((lp5852
VN03AX14
p5853
atRp5854
sVDB01203
p5855
g3
((lp5856
VC07AA12
p5857
aVC07BA12
p5858
atRp5859
sVDB01204
p5860
g3
((lp5861
VL01DB07
p5862
atRp5863
sVDB01205
p5864
g3
((lp5865
VV03AB25
p5866
atRp5867
sVDB01206
p5868
g3
((lp5869
VL01AD02
p5870
atRp5871
sVDB01208
p5872
g3
((lp5873
VJ01MA09
p5874
atRp5875
sVDB01209
p5876
g3
((lp5877
VN02AX03
p5878
atRp5879
sVDB01028
p5880
g3
((lp5881
VN02BG09
p5882
atRp5883
sVDB01029
p5884
g3
((lp5885
VC09DA04
p5886
aVC09CA04
p5887
aVC09DB05
p5888
atRp5889
sVDB01020
p5890
g3
((lp5891
VC01DA14
p5892
atRp5893
sVDB01021
p5894
g3
((lp5895
VC03AB06
p5896
aVG01AE10
p5897
aVC03AA06
p5898
aVC03EA02
p5899
atRp5900
sVDB01022
p5901
g3
((lp5902
VB02BA01
p5903
atRp5904
sVDB01023
p5905
g3
((lp5906
VC08CA02
p5907
aVC09BB05
p5908
atRp5909
sVDB01024
p5910
g3
((lp5911
VL04AA06
p5912
atRp5913
sVDB01025
p5914
g3
((lp5915
VR03DX01
p5916
aVA01AD07
p5917
atRp5918
sVDB01026
p5919
g3
((lp5920
VG01AF11
p5921
aVJ02AB02
p5922
aVG01AF20
p5923
aVD01AC08
p5924
atRp5925
sVDB00243
p5926
g3
((lp5927
VC01EB18
p5928
atRp5929
sVDB09149
p5930
g3
((lp5931
VV09AX05
p5932
atRp5933
sVDB09148
p5934
g3
((lp5935
VV09AX06
p5936
atRp5937
sVDB09146
p5938
g3
((lp5939
VB03AB02
p5940
aVV03AE05
p5941
atRp5942
sVDB09143
p5943
g3
((lp5944
VL01XX48
p5945
atRp5946
sVDB11093
p5947
g3
((lp5948
VA11GB01
p5949
aVA12AA13
p5950
atRp5951
sVDB00716
p5952
g3
((lp5953
VS01GX04
p5954
aVR01AC07
p5955
aVR03BC03
p5956
atRp5957
sVDB01338
p5958
g3
((lp5959
VM03AC06
p5960
atRp5961
sVDB00247
p5962
g3
((lp5963
VN02CA04
p5964
atRp5965
sVDB01440
p5966
g3
((lp5967
VN01AX11
p5968
aVN07XX04
p5969
atRp5970
sVDB01337
p5971
g3
((lp5972
VM03AC01
p5973
atRp5974
sVDB00710
p5975
g3
((lp5976
VM05BA06
p5977
atRp5978
sVDB01154
p5979
g3
((lp5980
VN05CB01
p5981
atRp5982
sVDB00318
p5983
g3
((lp5984
VR05DA12
p5985
aVN02AA08
p5986
aVN02AA59
p5987
aVN02AA79
p5988
aVR05DA04
p5989
atRp5990
sVDB01156
p5991
g3
((lp5992
VA08AA62
p5993
aVN06AX12
p5994
atRp5995
sVDB01157
p5996
g3
((lp5997
VP01AX07
p5998
atRp5999
sVDB01151
p6000
g3
((lp6001
VN06AA01
p6002
atRp6003
sVDB00310
p6004
g3
((lp6005
VG01AE10
p6006
aVC03EA06
p6007
aVC03BA04
p6008
aVC03BB04
p6009
atRp6010
sVDB00313
p6011
g3
((lp6012
VN03AG01
p6013
atRp6014
sVDB00712
p6015
g3
((lp6016
VM02AA19
p6017
aVS01BC04
p6018
aVM01AE09
p6019
aVR02AX01
p6020
atRp6021
sVDB00315
p6022
g3
((lp6023
VN02CC03
p6024
atRp6025
sVDB01159
p6026
g3
((lp6027
VN01AB01
p6028
atRp6029
sVDB00317
p6030
g3
((lp6031
VL01XE02
p6032
atRp6033
sVDB00316
p6034
g3
((lp6035
VN02BE71
p6036
aVN02BE01
p6037
aVN02BE51
p6038
atRp6039
sVDB00799
p6040
g3
((lp6041
VD05AX05
p6042
atRp6043
sVDB00798
p6044
g3
((lp6045
VS01AA11
p6046
aVS03AA06
p6047
aVJ01GB03
p6048
aVD06AX07
p6049
aVS02AA14
p6050
atRp6051
sVDB00795
p6052
g3
((lp6053
VA07EC01
p6054
aVG01AE10
p6055
atRp6056
sVDB00794
p6057
g3
((lp6058
VN05CB01
p6059
aVN03AA03
p6060
atRp6061
sVDB00797
p6062
g3
((lp6063
VM02AX02
p6064
aVC04AB02
p6065
atRp6066
sVDB00796
p6067
g3
((lp6068
VC09DB07
p6069
aVC09DA06
p6070
aVC09CA06
p6071
atRp6072
sVDB00790
p6073
g3
((lp6074
VC09BX02
p6075
aVC09BX01
p6076
aVC09BA04
p6077
aVC09AA04
p6078
aVC09BB04
p6079
aVC10BX11
p6080
atRp6081
sVDB00792
p6082
g3
((lp6083
VD04AA04
p6084
aVR06AC04
p6085
atRp6086
sVDB00009
p6087
g3
((lp6088
VB01AD02
p6089
aVS01XA13
p6090
atRp6091
sVDB00008
p6092
g3
((lp6093
VL03AB61
p6094
aVL03AB11
p6095
atRp6096
sVDB00559
p6097
g3
((lp6098
VC02KX01
p6099
atRp6100
sVDB00558
p6101
g3
((lp6102
VJ05AH01
p6103
atRp6104
sVDB00557
p6105
g3
((lp6106
VN05BB51
p6107
aVN05BB01
p6108
atRp6109
sVDB00004
p6110
g3
((lp6111
VL01XX29
p6112
atRp6113
sVDB00007
p6114
g3
((lp6115
VL02AE02
p6116
atRp6117
sVDB00554
p6118
g3
((lp6119
VM01AC01
p6120
aVM02AA07
p6121
aVS01BC06
p6122
atRp6123
sVDB00001
p6124
g3
((lp6125
VB01AE02
p6126
atRp6127
sVDB00552
p6128
g3
((lp6129
VL01XX08
p6130
atRp6131
sVDB00551
p6132
g3
((lp6133
VG04BX03
p6134
atRp6135
sVDB00002
p6136
g3
((lp6137
VL01XC06
p6138
atRp6139
sVDB00777
p6140
g3
((lp6141
VN05CM06
p6142
atRp6143
sVDB00776
p6144
g3
((lp6145
VN03AF02
p6146
atRp6147
sVDB00775
p6148
g3
((lp6149
VB01AC17
p6150
atRp6151
sVDB00774
p6152
g3
((lp6153
VG01AE10
p6154
aVC03AB02
p6155
aVC03AH02
p6156
aVC03AA02
p6157
atRp6158
sVDB00773
p6159
g3
((lp6160
VL01CB01
p6161
atRp6162
sVDB00956
p6163
g3
((lp6164
VR05DA03
p6165
atRp6166
sVDB00771
p6167
g3
((lp6168
VA03CA02
p6169
atRp6170
sVDB00770
p6171
g3
((lp6172
VG04BE01
p6173
aVC01EA01
p6174
atRp6175
sVDB00959
p6176
g3
((lp6177
VD10AA02
p6178
aVD07AA01
p6179
aVS01CA08
p6180
aVH02BX01
p6181
aVD07CA02
p6182
aVD07AC14
p6183
aVH02AB04
p6184
atRp6185
sVDB00778
p6186
g3
((lp6187
VJ01FA06
p6188
atRp6189
sVDB04272
p6190
g3
((lp6191
VA09AB04
p6192
atRp6193
sVDB09564
p6194
g3
((lp6195
VA10AE56
p6196
aVA10AD06
p6197
aVA10AE06
p6198
atRp6199
sVDB04786
p6200
g3
((lp6201
VP01CX02
p6202
atRp6203
sVDB06788
p6204
g3
((lp6205
VL02AE05
p6206
atRp6207
sVDB06789
p6208
g3
((lp6209
VG03FA02
p6210
aVG03DA03
p6211
atRp6212
sVDB06781
p6213
g3
((lp6214
VD07AC19
p6215
atRp6216
sVDB06782
p6217
g3
((lp6218
VV03AB09
p6219
atRp6220
sVDB06785
p6221
g3
((lp6222
VH01CC01
p6223
atRp6224
sVDB06786
p6225
g3
((lp6226
VD07AD02
p6227
atRp6228
sVDB06787
p6229
g3
((lp6230
VA03AB10
p6231
atRp6232
sVDB04878
p6233
g3
((lp6234
VA10BF03
p6235
atRp6236
sVDB04871
p6237
g3
((lp6238
VA08AA11
p6239
atRp6240
sVDB04876
p6241
g3
((lp6242
VA10BD08
p6243
aVA10BH02
p6244
atRp6245
sVDB00175
p6246
g3
((lp6247
VC10BA03
p6248
aVC10BX02
p6249
aVC10AA03
p6250
atRp6251
sVDB00177
p6252
g3
((lp6253
VC09DB08
p6254
aVC09CA03
p6255
aVC09DA03
p6256
aVC09DB01
p6257
aVC09DX01
p6258
aVC09DX02
p6259
aVC09DX04
p6260
aVC10BX10
p6261
atRp6262
sVDB00176
p6263
g3
((lp6264
VN06AB08
p6265
atRp6266
sVDB00170
p6267
g3
((lp6268
VB02BA02
p6269
atRp6270
sVDB06650
p6271
g3
((lp6272
VL01XC10
p6273
atRp6274
sVDB00179
p6275
g3
((lp6276
VL01XX10
p6277
atRp6278
sVDB00178
p6279
g3
((lp6280
VC09AA05
p6281
aVC09BA05
p6282
aVC09BB05
p6283
aVC09BB07
p6284
aVC10BX04
p6285
aVC10BX06
p6286
atRp6287
sVDB06655
p6288
g3
((lp6289
VA10BX07
p6290
aVA10AE56
p6291
atRp6292
sVDB01050
p6293
g3
((lp6294
VM01AE01
p6295
aVR02AX02
p6296
aVM01AE14
p6297
aVG02CC01
p6298
aVM02AA13
p6299
aVC01EB16
p6300
aVM01AE51
p6301
atRp6302
sVDB06439
p6303
g3
((lp6304
VR05CA01
p6305
atRp6306
sVDB00818
p6307
g3
((lp6308
VN01AX10
p6309
atRp6310
sVDB01059
p6311
g3
((lp6312
VJ01MA06
p6313
aVS01AE02
p6314
aVJ01RA13
p6315
atRp6316
sVDB08818
p6317
g3
((lp6318
VS01KA01
p6319
aVM09AX01
p6320
aVS01KA51
p6321
aVR01AX09
p6322
aVD03AX05
p6323
atRp6324
sVDB01436
p6325
g3
((lp6326
VA11CC03
p6327
aVM05BB06
p6328
atRp6329
sVDB05829
p6330
g3
((lp6331
VH05AA03
p6332
atRp6333
sVDB08813
p6334
g3
((lp6335
VB01AB06
p6336
atRp6337
sVDB08811
p6338
g3
((lp6339
VN05BA23
p6340
atRp6341
sVDB08814
p6342
g3
((lp6343
VB01AC18
p6344
atRp6345
sVDB08815
p6346
g3
((lp6347
VN05AE05
p6348
atRp6349
sVDB03793
p6350
g3
((lp6351
VV04CG30
p6352
aVA16AX11
p6353
atRp6354
sVDB05229
p6355
g3
((lp6356
VB01AC19
p6357
atRp6358
sVDB08964
p6359
g3
((lp6360
VG02AD03
p6361
atRp6362
sVDB00458
p6363
g3
((lp6364
VN06AA02
p6365
atRp6366
sVDB00459
p6367
g3
((lp6368
VD05BB02
p6369
atRp6370
sVDB00387
p6371
g3
((lp6372
VN04AA04
p6373
atRp6374
sVDB00450
p6375
g3
((lp6376
VN05AD08
p6377
atRp6378
sVDB01188
p6379
g3
((lp6380
VG01AX12
p6381
aVD01AE14
p6382
atRp6383
sVDB09026
p6384
g3
((lp6385
VC09XA53
p6386
aVC09XA52
p6387
aVC09DX02
p6388
aVC09XA02
p6389
aVC09XA54
p6390
atRp6391
sVDB09029
p6392
g3
((lp6393
VL04AC10
p6394
atRp6395
sVDB01239
p6396
g3
((lp6397
VN05AF03
p6398
atRp6399
sVDB01238
p6400
g3
((lp6401
VN05AX12
p6402
atRp6403
sVDB01235
p6404
g3
((lp6405
VN04BA02
p6406
aVN04BA03
p6407
aVN04BA01
p6408
aVN04BA04
p6409
atRp6410
sVDB01234
p6411
g3
((lp6412
VS01CA01
p6413
aVD10AA03
p6414
aVS02BA06
p6415
aVD07AB19
p6416
aVS03BA01
p6417
aVS01BA01
p6418
aVA01AC02
p6419
aVS01CB01
p6420
aVS02CA06
p6421
aVH02AB02
p6422
aVS03CA01
p6423
aVR01AD53
p6424
aVR01AD03
p6425
aVD07XB05
p6426
aVC05AA09
p6427
aVD07CB04
p6428
atRp6429
sVDB01237
p6430
g3
((lp6431
VR06AA01
p6432
atRp6433
sVDB01236
p6434
g3
((lp6435
VN01AB08
p6436
atRp6437
sVDB01233
p6438
g3
((lp6439
VA03FA01
p6440
atRp6441
sVDB06148
p6442
g3
((lp6443
VN06AX03
p6444
atRp6445
sVDB09151
p6446
g3
((lp6447
VV09AX04
p6448
atRp6449
sVDB01309
p6450
g3
((lp6451
VA10AB06
p6452
atRp6453
sVDB01303
p6454
g3
((lp6455
VR03DA02
p6456
aVR03DB02
p6457
aVR03DA20
p6458
atRp6459
sVDB01307
p6460
g3
((lp6461
VA10AE05
p6462
atRp6463
sVDB01306
p6464
g3
((lp6465
VA10AB05
p6466
aVA10AD06
p6467
aVA10AD05
p6468
atRp6469
sVDB01161
p6470
g3
((lp6471
VN01BA04
p6472
atRp6473
sVDB01162
p6474
g3
((lp6475
VG04CA03
p6476
atRp6477
sVDB01165
p6478
g3
((lp6479
VJ01MA01
p6480
aVS01AE01
p6481
aVJ01RA09
p6482
aVS02AA16
p6483
atRp6484
sVDB01164
p6485
g3
((lp6486
VA11GB01
p6487
aVG04BA03
p6488
aVB05XA07
p6489
aVA12AA07
p6490
atRp6491
sVDB01167
p6492
g3
((lp6493
VJ02AC02
p6494
atRp6495
sVDB01166
p6496
g3
((lp6497
VB01AC23
p6498
atRp6499
sVDB01169
p6500
g3
((lp6501
VL01XX27
p6502
atRp6503
sVDB01168
p6504
g3
((lp6505
VL01XB01
p6506
atRp6507
sVDB04660
p6508
g3
((lp6509
VN07AX02
p6510
atRp6511
sVDB09481
p6512
g3
((lp6513
VV03AE04
p6514
aVA06AD01
p6515
aVA02AA01
p6516
atRp6517
sVDB09488
p6518
g3
((lp6519
VR06AX18
p6520
atRp6521
sVDB00788
p6522
g3
((lp6523
VM01AE56
p6524
aVG02CC02
p6525
aVM02AA12
p6526
aVM01AE52
p6527
aVM01AE02
p6528
atRp6529
sVDB00782
p6530
g3
((lp6531
VA03CA34
p6532
aVA03AB05
p6533
atRp6534
sVDB00783
p6535
g3
((lp6536
VG03FA08
p6537
aVG03FA13
p6538
aVG03FA12
p6539
aVG03FA11
p6540
aVG03FA10
p6541
aVG03FA17
p6542
aVG03FA16
p6543
aVG03FA15
p6544
aVG03FA14
p6545
aVG03CA53
p6546
aVL02AA03
p6547
aVL02AA02
p6548
aVG03AB08
p6549
aVG03FB10
p6550
aVG03FB11
p6551
aVG03FB12
p6552
aVG03CA03
p6553
aVG03FA09
p6554
aVG03CA01
p6555
aVG03EA01
p6556
aVG03EA03
p6557
aVG03EA02
p6558
aVG03FA01
p6559
aVG03FA02
p6560
aVG03FA03
p6561
aVG03FA04
p6562
aVG03FA05
p6563
aVG03FA06
p6564
aVG03FA07
p6565
aVG03AA14
p6566
aVG03HB01
p6567
aVG02BB01
p6568
aVG03FB03
p6569
aVG03FB02
p6570
aVG03FB01
p6571
aVG03FB07
p6572
aVG03FB06
p6573
aVG03FB05
p6574
aVG03FB04
p6575
aVG03FB09
p6576
aVG03FB08
p6577
atRp6578
sVDB00780
p6579
g3
((lp6580
VN06AF03
p6581
atRp6582
sVDB00784
p6583
g3
((lp6584
VM01AG01
p6585
atRp6586
sVDB01015
p6587
g3
((lp6588
VG01AE10
p6589
aVJ01EC01
p6590
aVJ01EE01
p6591
atRp6592
sVDB00733
p6593
g3
((lp6594
VV03AB04
p6595
atRp6596
sVDB01017
p6597
g3
((lp6598
VJ01AA20
p6599
aVJ01AA08
p6600
aVA01AB23
p6601
atRp6602
sVDB00019
p6603
g3
((lp6604
VL03AA10
p6605
aVL03AA13
p6606
atRp6607
sVDB00549
p6608
g3
((lp6609
VR03DC01
p6610
atRp6611
sVDB01013
p6612
g3
((lp6613
VD07AD01
p6614
atRp6615
sVDB01012
p6616
g3
((lp6617
VH05BX01
p6618
atRp6619
sVDB00012
p6620
g3
((lp6621
VB03XA02
p6622
atRp6623
sVDB00545
p6624
g3
((lp6625
VN07AA02
p6626
atRp6627
sVDB00546
p6628
g3
((lp6629
VN05BA07
p6630
atRp6631
sVDB00011
p6632
g3
((lp6633
VL03AB06
p6634
atRp6635
sVDB00540
p6636
g3
((lp6637
VN06AA10
p6638
atRp6639
sVDB00731
p6640
g3
((lp6641
VA10BX03
p6642
atRp6643
sVDB00014
p6644
g3
((lp6645
VL02AE03
p6646
atRp6647
sVDB00015
p6648
g3
((lp6649
VB01AD07
p6650
atRp6651
sVDB00940
p6652
g3
((lp6653
VA03AB07
p6654
atRp6655
sVDB00941
p6656
g3
((lp6657
VM03AC05
p6658
atRp6659
sVDB00944
p6660
g3
((lp6661
VS01EB04
p6662
atRp6663
sVDB00945
p6664
g3
((lp6665
VB01AC06
p6666
aVA01AD05
p6667
aVM01BA03
p6668
aVN02BA71
p6669
aVB01AC56
p6670
aVC10BX01
p6671
aVN02BA51
p6672
aVC10BX02
p6673
aVC10BX05
p6674
aVC10BX04
p6675
aVC10BX06
p6676
aVC10BX08
p6677
aVN02BA01
p6678
atRp6679
sVDB00762
p6680
g3
((lp6681
VL01XX19
p6682
atRp6683
sVDB00947
p6684
g3
((lp6685
VL02BA03
p6686
atRp6687
sVDB00949
p6688
g3
((lp6689
VN03AX10
p6690
atRp6691
sVDB00768
p6692
g3
((lp6693
VR01AC08
p6694
aVS01GX09
p6695
atRp6696
sVDB04209
p6697
g3
((lp6698
VG01AC05
p6699
aVD08AH01
p6700
aVR02AA02
p6701
atRp6702
sVDB00227
p6703
g3
((lp6704
VC10BA01
p6705
aVC10AA02
p6706
atRp6707
sVDB00306
p6708
g3
((lp6709
VN05CA07
p6710
atRp6711
sVDB00307
p6712
g3
((lp6713
VL01XX25
p6714
atRp6715
sVDB00304
p6716
g3
((lp6717
VG03AA09
p6718
aVG03FB10
p6719
aVG03AC09
p6720
aVG03AB05
p6721
atRp6722
sVDB00302
p6723
g3
((lp6724
VB02AA02
p6725
atRp6726
sVDB00308
p6727
g3
((lp6728
VC01BD05
p6729
atRp6730
sVDB00309
p6731
g3
((lp6732
VL01CA03
p6733
atRp6734
sVDB06228
p6735
g3
((lp6736
VB01AF01
p6737
atRp6738
sVDB04845
p6739
g3
((lp6740
VL01DC04
p6741
atRp6742
sVDB04844
p6743
g3
((lp6744
VN07XX06
p6745
atRp6746
sVDB04846
p6747
g3
((lp6748
VC07AB08
p6749
atRp6750
sVDB04841
p6751
g3
((lp6752
VN07CA03
p6753
atRp6754
sVDB04840
p6755
g3
((lp6756
VC02CC04
p6757
atRp6758
sVDB04843
p6759
g3
((lp6760
VA03AB12
p6761
atRp6762
sVDB04842
p6763
g3
((lp6764
VN05AG01
p6765
atRp6766
sVDB04849
p6767
g3
((lp6768
VL01XE32
p6769
atRp6770
sVDB11300
p6771
g3
((lp6772
VB02BD30
p6773
aVB02BC06
p6774
atRp6775
sVDB00162
p6776
g3
((lp6777
VV04CB01
p6778
aVS01XA02
p6779
aVA11CA01
p6780
aVR01AX02
p6781
aVD10AD02
p6782
atRp6783
sVDB00166
p6784
g3
((lp6785
VA16AX01
p6786
atRp6787
sVDB00165
p6788
g3
((lp6789
VA11HA02
p6790
atRp6791
sVDB00169
p6792
g3
((lp6793
VM05BX53
p6794
aVA11CC05
p6795
aVM05BB03
p6796
aVM05BB07
p6797
aVM05BB05
p6798
aVM05BB04
p6799
aVM05BB08
p6800
atRp6801
sVDB02925
p6802
g3
((lp6803
VC03CA03
p6804
atRp6805
sVDB06681
p6806
g3
((lp6807
VL04AA28
p6808
atRp6809
sVDB06684
p6810
g3
((lp6811
VN06AX24
p6812
atRp6813
sVDB06689
p6814
g3
((lp6815
VC05BB01
p6816
atRp6817
sVDB06688
p6818
g3
((lp6819
VL03AX17
p6820
atRp6821
sVDB02325
p6822
g3
((lp6823
VD08AX05
p6824
atRp6825
sVDB05812
p6826
g3
((lp6827
VL02BX03
p6828
atRp6829
sVDB00055
p6830
g3
((lp6831
VB01AD10
p6832
atRp6833
sVDB05254
p6834
g3
((lp6835
VB06AA02
p6836
aVB01AD05
p6837
atRp6838
sVDB05259
p6839
g3
((lp6840
VL03AX13
p6841
atRp6842
sVDB00051
p6843
g3
((lp6844
VL04AB04
p6845
atRp6846
sVDB08800
p6847
g3
((lp6848
VR06AC03
p6849
aVD04AA09
p6850
aVR06AC53
p6851
atRp6852
sVDB13783
p6853
g3
((lp6854
VM01AB11
p6855
atRp6856
sVDB13781
p6857
g3
((lp6858
VC01CX07
p6859
atRp6860
sVDB00357
p6861
g3
((lp6862
VL02BG01
p6863
atRp6864
sVDB00424
p6865
g3
((lp6866
VA03BA03
p6867
aVA03CB31
p6868
atRp6869
sVDB00351
p6870
g3
((lp6871
VG03FA08
p6872
aVG03AB01
p6873
aVG03DB02
p6874
aVG03AA04
p6875
aVG03FB04
p6876
aVL02AB01
p6877
aVG03AC05
p6878
atRp6879
sVDB00350
p6880
g3
((lp6881
VC02DC01
p6882
aVD11AX01
p6883
atRp6884
sVDB00353
p6885
g3
((lp6886
VG02AB01
p6887
aVG02AC01
p6888
atRp6889
sVDB04898
p6890
g3
((lp6891
VB01AE05
p6892
atRp6893
sVDB08996
p6894
g3
((lp6895
VN06AA18
p6896
atRp6897
sVDB08995
p6898
g3
((lp6899
VC05CA53
p6900
aVC05CA03
p6901
atRp6902
sVDB00746
p6903
g3
((lp6904
VV03AC01
p6905
atRp6906
sVDB06218
p6907
g3
((lp6908
VN03AX18
p6909
atRp6910
sVDB05676
p6911
g3
((lp6912
VL04AA32
p6913
atRp6914
sVDB05679
p6915
g3
((lp6916
VL04AC05
p6917
atRp6918
sVDB00747
p6919
g3
((lp6920
VA04AD01
p6921
aVN05CM05
p6922
aVA04AD51
p6923
aVS01FA02
p6924
atRp6925
sVDB00661
p6926
g3
((lp6927
VC08DA01
p6928
aVC08DA51
p6929
aVC09BB10
p6930
atRp6931
sVDB09018
p6932
g3
((lp6933
VA03FA04
p6934
atRp6935
sVDB09014
p6936
g3
((lp6937
VN05BB02
p6938
atRp6939
sVDB09016
p6940
g3
((lp6941
VN06AA15
p6942
atRp6943
sVDB09013
p6944
g3
((lp6945
VS01ED06
p6946
atRp6947
sVDB01228
p6948
g3
((lp6949
VC01BC08
p6950
atRp6951
sVDB01229
p6952
g3
((lp6953
VL01CD01
p6954
atRp6955
sVDB00745
p6956
g3
((lp6957
VN06BA07
p6958
atRp6959
sVDB00431
p6960
g3
((lp6961
VP03AB02
p6962
atRp6963
sVDB01222
p6964
g3
((lp6965
VR03BA02
p6966
aVA07EA06
p6967
aVR03AK07
p6968
aVR03AK12
p6969
aVD07AC09
p6970
aVR01AD05
p6971
atRp6972
sVDB01223
p6973
g3
((lp6974
VR03DA55
p6975
aVR03DA20
p6976
aVR03DA05
p6977
aVR03DB05
p6978
atRp6979
sVDB01220
p6980
g3
((lp6981
VD06AX11
p6982
aVA07AA11
p6983
atRp6984
sVDB01221
p6985
g3
((lp6986
VN01AX03
p6987
aVN01AX14
p6988
atRp6989
sVDB01226
p6990
g3
((lp6991
VM03AC10
p6992
atRp6993
sVDB01227
p6994
g3
((lp6995
VN07BC03
p6996
atRp6997
sVDB01224
p6998
g3
((lp6999
VN05AH04
p7000
atRp7001
sVDB01225
p7002
g3
((lp7003
VB01AB05
p7004
aVB01AB01
p7005
atRp7006
sVDB04931
p7007
g3
((lp7008
VD02BB02
p7009
atRp7010
sVDB00909
p7011
g3
((lp7012
VN03AX15
p7013
atRp7014
s.