(dp1
I10242
c__builtin__
set
p2
((lp3
VPF09303
p4
aVPF03185
p5
atRp6
sI13876924
g2
((lp7
VPF00809
p8
atRp9
sI729966
g2
((lp10
VPF00233
p11
atRp12
sI12931078
g2
((lp13
VPF02801
p14
aVPF00109
p15
atRp16
sI8200
g2
((lp17
VPF00688
p18
aVPF00019
p19
atRp20
sI7157769
g2
((lp21
VPF00237
p22
atRp23
sI10
g2
((lp24
VPF00797
p25
atRp26
sI7157773
g2
((lp27
VPF00164
p28
atRp29
sI1251342
g2
((lp30
VPF00302
p31
atRp32
sI2064
g2
((lp33
VPF01030
p34
aVPF07714
p35
aVPF00757
p36
aVPF14843
p37
atRp38
sI10257
g2
((lp39
VPF00005
p40
aVPF00664
p41
atRp42
sI12933138
g2
((lp43
VPF03989
p44
aVPF00521
p45
atRp46
sI19
g2
((lp47
VPF00005
p48
atRp49
sI21
g2
((lp50
VPF00005
p51
atRp52
sI90134
g2
((lp53
VPF00520
p54
aVPF00027
p55
aVPF13426
p56
atRp57
sI25
g2
((lp58
VPF00018
p59
aVPF07714
p60
aVPF00017
p61
aVPF08919
p62
atRp63
sI26
g2
((lp64
VPF02727
p65
aVPF02728
p66
aVPF01179
p67
atRp68
sI27
g2
((lp69
VPF00018
p70
aVPF07714
p71
aVPF00017
p72
aVPF08919
p73
atRp74
sI4067
g2
((lp75
VPF00018
p76
aVPF07714
p77
aVPF00017
p78
atRp79
sI4128
g2
((lp80
VPF01593
p81
atRp82
sI4129
g2
((lp83
VPF01593
p84
atRp85
sI100861540
g2
((lp86
VPF00067
p87
atRp88
sI36
g2
((lp89
VPF02771
p90
aVPF00441
p91
aVPF02770
p92
atRp93
sI4133
g2
((lp94
VPF08377
p95
aVPF00418
p96
atRp97
sI38
g2
((lp98
VPF02803
p99
aVPF00108
p100
atRp101
sI10280
g2
((lp102
VPF04622
p103
atRp104
sI41
g2
((lp105
VPF00858
p106
atRp107
sI43
g2
((lp108
VPF08674
p109
aVPF00135
p110
atRp111
sI59340
g2
((lp112
VPF00001
p113
atRp114
sI2099
g2
((lp115
VPF00104
p116
aVPF00105
p117
aVPF02159
p118
aVPF12743
p119
atRp120
sI2100
g2
((lp121
VPF00104
p122
aVPF00105
p123
aVPF12497
p124
atRp125
sI6197
g2
((lp126
VPF00069
p127
aVPF00433
p128
atRp129
sI54
g2
((lp130
VPF00149
p131
atRp132
sI9
g2
((lp133
VPF00797
p134
atRp135
sI5321
g2
((lp136
VPF00168
p137
aVPF01735
p138
atRp139
sI933948
g2
((lp140
VPF00905
p141
aVPF03717
p142
atRp143
sI2703370
g2
((lp144
VPF03167
p145
atRp146
sI18983605
g2
((lp147
VPF00809
p148
atRp149
sI2
g2
((lp150
VPF00207
p151
aVPF07678
p152
aVPF07677
p153
aVPF10569
p154
aVPF01835
p155
aVPF07703
p156
atRp157
sI57413
g2
((lp158
VPF00001
p159
atRp160
sI145482
g2
((lp161
VPF00107
p162
atRp163
sI1719
g2
((lp164
VPF00186
p165
atRp166
sI938339
g2
((lp167
VPF02540
p168
atRp169
sI51284
g2
((lp170
VPF13306
p171
aVPF01582
p172
aVPF13855
p173
atRp174
sI12933205
g2
((lp175
VPF00186
p176
atRp177
sI10327
g2
((lp178
VPF00248
p179
atRp180
sI5595
g2
((lp181
VPF00069
p182
atRp183
sI95
g2
((lp184
VPF01546
p185
aVPF07687
p186
atRp187
sI6240
g2
((lp188
VPF03477
p189
aVPF02867
p190
aVPF00317
p191
atRp192
sI6241
g2
((lp193
VPF00268
p194
atRp195
sI2147
g2
((lp196
VPF09396
p197
aVPF00594
p198
aVPF00089
p199
aVPF00051
p200
atRp201
sI100
g2
((lp202
VPF00962
p203
atRp204
sI1382
g2
((lp205
VPF00061
p206
atRp207
sI2703462
g2
((lp208
VPF11590
p209
aVPF03104
p210
aVPF00136
p211
atRp212
sI2153
g2
((lp213
VPF07732
p214
aVPF00754
p215
atRp216
sI940139
g2
((lp217
VPF00905
p218
aVPF03717
p219
aVPF05223
p220
atRp221
sI18
g2
((lp222
VPF00202
p223
atRp224
sI2159
g2
((lp225
VPF00089
p226
aVPF00008
p227
aVPF00594
p228
atRp229
sI6256
g2
((lp230
VPF00104
p231
aVPF00105
p232
aVPF11825
p233
atRp234
sI6257
g2
((lp235
VPF00104
p236
aVPF00105
p237
atRp238
sI2162
g2
((lp239
VPF00927
p240
aVPF01841
p241
aVPF00868
p242
atRp243
sI3091
g2
((lp244
VPF08447
p245
aVPF11413
p246
aVPF00989
p247
aVPF08778
p248
atRp249
sI6261
g2
((lp250
VPF00520
p251
aVPF02026
p252
aVPF06459
p253
aVPF08709
p254
aVPF00622
p255
aVPF02815
p256
aVPF13833
p257
aVPF08454
p258
aVPF01365
p259
atRp260
sI2166
g2
((lp261
VPF01425
p262
atRp263
sI950391
g2
((lp264
VPF03989
p265
aVPF00521
p266
atRp267
sI2703480
g2
((lp268
VPF00959
p269
atRp270
sI2169
g2
((lp271
VPF00061
p272
atRp273
sI124
g2
((lp274
VPF00107
p275
aVPF08240
p276
atRp277
sI125
g2
((lp278
VPF00107
p279
aVPF08240
p280
atRp281
sI126
g2
((lp282
VPF00107
p283
aVPF08240
p284
atRp285
sI127
g2
((lp286
VPF00107
p287
aVPF08240
p288
atRp289
sI128
g2
((lp290
VPF00107
p291
aVPF08240
p292
atRp293
sI10369
g2
((lp294
VPF00822
p295
atRp296
sI130
g2
((lp297
VPF00107
p298
aVPF08240
p299
atRp300
sI131
g2
((lp301
VPF00107
p302
aVPF08240
p303
atRp304
sI132
g2
((lp305
VPF00294
p306
atRp307
sI134
g2
((lp308
VPF00001
p309
atRp310
sI135
g2
((lp311
VPF00001
p312
atRp313
sI136
g2
((lp314
VPF00001
p315
atRp316
sI2185
g2
((lp317
VPF00373
p318
aVPF07714
p319
aVPF03623
p320
atRp321
sI140
g2
((lp322
VPF00001
p323
atRp324
sI10381
g2
((lp325
VPF03953
p326
aVPF00091
p327
atRp328
sI142
g2
((lp329
VPF05406
p330
aVPF00533
p331
aVPF02877
p332
aVPF00645
p333
aVPF00644
p334
aVPF08063
p335
atRp336
sI10383
g2
((lp337
VPF03953
p338
aVPF00091
p339
atRp340
sI146
g2
((lp341
VPF00001
p342
atRp343
sI147
g2
((lp344
VPF00001
p345
atRp346
sI148
g2
((lp347
VPF00001
p348
atRp349
sI150
g2
((lp350
VPF00001
p351
atRp352
sI151
g2
((lp353
VPF00001
p354
atRp355
sI152
g2
((lp356
VPF00001
p357
atRp358
sI153
g2
((lp359
VPF00001
p360
atRp361
sI154
g2
((lp362
VPF00001
p363
atRp364
sI155
g2
((lp365
VPF00001
p366
atRp367
sI2205
g2
((lp368
VPF13895
p369
atRp370
sI2206
g2
((lp371
VPF04103
p372
atRp373
sI4255
g2
((lp374
VPF02870
p375
aVPF01035
p376
atRp377
sI2209
g2
((lp378
VPF13895
p379
aVPF00047
p380
atRp381
sI4258
g2
((lp382
VPF01124
p383
atRp384
sI2212
g2
((lp385
VPF13895
p386
atRp387
sI2213
g2
((lp388
VPF13895
p389
atRp390
sI2214
g2
((lp391
VPF13895
p392
atRp393
sI2215
g2
((lp394
VPF13895
p395
atRp396
sI654364
g2
((lp397
VPF00334
p398
atRp399
sI2220
g2
((lp400
VPF01391
p401
aVPF00147
p402
atRp403
sI12933293
g2
((lp404
VPF13378
p405
atRp406
sI2224
g2
((lp407
VPF00348
p408
atRp409
sI712
g2
((lp410
VPF00386
p411
aVPF01391
p412
atRp413
sI54963
g2
((lp414
VPF00485
p415
aVPF14681
p416
atRp417
sI6323
g2
((lp418
VPF00520
p419
aVPF11933
p420
aVPF06512
p421
atRp422
sI6324
g2
((lp423
VPF07686
p424
atRp425
sI6325
g2
((lp426
VPF00520
p427
aVPF11933
p428
aVPF06512
p429
atRp430
sI6326
g2
((lp431
VPF00520
p432
aVPF11933
p433
aVPF06512
p434
atRp435
sI6327
g2
((lp436
VPF07686
p437
atRp438
sI6328
g2
((lp439
VPF00520
p440
aVPF11933
p441
aVPF06512
p442
atRp443
sI185
g2
((lp444
VPF00001
p445
atRp446
sI6330
g2
((lp447
VPF07686
p448
atRp449
sI6331
g2
((lp450
VPF00520
p451
aVPF11933
p452
aVPF06512
p453
atRp454
sI3796682
g2
((lp455
VPF07650
p456
atRp457
sI190
g2
((lp458
VPF00104
p459
aVPF14046
p460
atRp461
sI6335
g2
((lp462
VPF00520
p463
aVPF11933
p464
aVPF06512
p465
atRp466
sI6336
g2
((lp467
VPF00520
p468
aVPF06512
p469
atRp470
sI6337
g2
((lp471
VPF00858
p472
atRp473
sI6338
g2
((lp474
VPF00858
p475
atRp476
sI6339
g2
((lp477
VPF00858
p478
atRp479
sI6340
g2
((lp480
VPF00858
p481
atRp482
sI2246
g2
((lp483
VPF00167
p484
atRp485
sI2247
g2
((lp486
VPF00167
p487
atRp488
sI1250578
g2
((lp489
VPF07650
p490
atRp491
sI204
g2
((lp492
VPF05191
p493
atRp494
sI205
g2
((lp495
VPF05191
p496
atRp497
sI207
g2
((lp498
VPF00169
p499
aVPF00069
p500
aVPF00433
p501
atRp502
sI4306
g2
((lp503
VPF00104
p504
aVPF00105
p505
atRp506
sI2260
g2
((lp507
VPF07714
p508
aVPF07679
p509
aVPF00047
p510
atRp511
sI2261
g2
((lp512
VPF07714
p513
aVPF07679
p514
atRp515
sI6385878
g2
((lp516
VPF01427
p517
atRp518
sI936151
g2
((lp519
VPF02518
p520
aVPF00986
p521
aVPF00204
p522
aVPF01751
p523
atRp524
sI2264
g2
((lp525
VPF07714
p526
aVPF07679
p527
atRp528
sI4313
g2
((lp529
VPF00040
p530
aVPF01471
p531
aVPF00045
p532
aVPF00413
p533
atRp534
sI3791
g2
((lp535
VPF07714
p536
aVPF07679
p537
aVPF00047
p538
atRp539
sI4318
g2
((lp540
VPF00040
p541
aVPF01471
p542
aVPF00045
p543
aVPF00413
p544
atRp545
sI85320
g2
((lp546
VPF00005
p547
aVPF00664
p548
atRp549
sI7157986
g2
((lp550
VPF00380
p551
atRp552
sI3641571
g2
((lp553
VPF00067
p554
atRp555
sI51185
g2
((lp556
VPF02190
p557
aVPF03226
p558
atRp559
sI4134
g2
((lp560
VPF00418
p561
atRp562
sI8913
g2
((lp563
VPF00520
p564
atRp565
sI2280
g2
((lp566
VPF00254
p567
atRp568
sI3643
g2
((lp569
VPF01030
p570
aVPF07714
p571
aVPF00757
p572
atRp573
sI6383
g2
((lp574
VPF01034
p575
atRp576
sI240
g2
((lp577
VPF00305
p578
aVPF01477
p579
atRp580
sI241
g2
((lp581
VPF01124
p582
atRp583
sI7872757
g2
((lp584
VPF00809
p585
atRp586
sI3486
g2
((lp587
VPF00086
p588
aVPF00219
p589
atRp590
sI4137
g2
((lp591
VPF00418
p592
atRp593
sI10495
g2
((lp594
VPF00076
p595
atRp596
sI4352
g2
((lp597
VPF00041
p598
aVPF09067
p599
atRp600
sI4353
g2
((lp601
VPF03098
p602
atRp603
sI213
g2
((lp604
VPF00273
p605
atRp606
sI10499
g2
((lp607
VPF16279
p608
aVPF08832
p609
aVPF08815
p610
aVPF00989
p611
aVPF07469
p612
atRp613
sI948487
g2
((lp614
VPF04983
p615
aVPF04997
p616
aVPF05000
p617
aVPF00623
p618
aVPF04998
p619
atRp620
sI948488
g2
((lp621
VPF10385
p622
aVPF04563
p623
aVPF04560
p624
aVPF04561
p625
aVPF00562
p626
aVPF04565
p627
atRp628
sI4363
g2
((lp629
VPF00005
p630
aVPF00664
p631
atRp632
sI2321
g2
((lp633
VPF07714
p634
aVPF07679
p635
aVPF00047
p636
atRp637
sI2322
g2
((lp638
VPF07714
p639
aVPF00047
p640
atRp641
sI54659
g2
((lp642
VPF00201
p643
atRp644
sI2324
g2
((lp645
VPF07714
p646
aVPF07679
p647
atRp648
sI2326
g2
((lp649
VPF00743
p650
atRp651
sI2328
g2
((lp652
VPF00743
p653
atRp654
sI284
g2
((lp655
VPF00147
p656
atRp657
sI285
g2
((lp658
VPF00147
p659
atRp660
sI55584
g2
((lp661
VPF02932
p662
aVPF02931
p663
atRp664
sI290
g2
((lp665
VPF01433
p666
aVPF11838
p667
atRp668
sI2342
g2
((lp669
VPF00432
p670
atRp671
sI2348
g2
((lp672
VPF03024
p673
atRp674
sI301
g2
((lp675
VPF00191
p676
atRp677
sI29456686
g2
((lp678
VPF00237
p679
atRp680
sI79581
g2
((lp681
VPF06237
p682
atRp683
sI2352
g2
((lp684
VPF03024
p685
atRp686
sI7152691
g2
((lp687
VPF00573
p688
atRp689
sI947793
g2
((lp690
VPF00163
p691
aVPF01479
p692
atRp693
sI8503
g2
((lp694
VPF16454
p695
aVPF00017
p696
atRp697
sI203068
g2
((lp698
VPF03953
p699
aVPF00091
p700
atRp701
sI6462
g2
((lp702
VPF00054
p703
atRp704
sI12933443
g2
((lp705
VPF02113
p706
atRp707
sI947806
g2
((lp708
VPF00252
p709
atRp710
sI10752055
g2
((lp711
VPF00809
p712
atRp713
sI12933452
g2
((lp714
VPF00380
p715
atRp716
sI55244
g2
((lp717
VPF01554
p718
atRp719
sI8529
g2
((lp720
VPF00067
p721
atRp722
sI2057
g2
((lp723
VPF00041
p724
aVPF09067
p725
atRp726
sI29456732
g2
((lp727
VPF00164
p728
atRp729
sI950626
g2
((lp730
VPF00905
p731
aVPF03717
p732
atRp733
sI8547
g2
((lp734
VPF00147
p735
atRp736
sI12933477
g2
((lp737
VPF00177
p738
atRp739
sI10599
g2
((lp740
VPF03137
p741
aVPF07648
p742
atRp743
sI6505
g2
((lp744
VPF00375
p745
atRp746
sI51564
g2
((lp747
VPF00850
p748
atRp749
sI5604
g2
((lp750
VPF00069
p751
atRp752
sI367
g2
((lp753
VPF00104
p754
aVPF00105
p755
aVPF02166
p756
atRp757
sI368
g2
((lp758
VPF00005
p759
aVPF00664
p760
atRp761
sI8565
g2
((lp762
VPF00579
p763
aVPF01588
p764
atRp765
sI8566
g2
((lp766
VPF08543
p767
atRp768
sI17035641
g2
((lp769
VPF00809
p770
atRp771
sI6523
g2
((lp772
VPF00474
p773
atRp774
sI6524
g2
((lp775
VPF00474
p776
atRp777
sI4842
g2
((lp778
VPF00175
p779
aVPF00258
p780
aVPF02898
p781
aVPF00667
p782
aVPF00595
p783
atRp784
sI2263
g2
((lp785
VPF07714
p786
aVPF07679
p787
atRp788
sI383
g2
((lp789
VPF00491
p790
atRp791
sI384
g2
((lp792
VPF00491
p793
atRp794
sI6529
g2
((lp795
VPF00209
p796
atRp797
sI6530
g2
((lp798
VPF00209
p799
atRp800
sI6531
g2
((lp801
VPF00209
p802
atRp803
sI6532
g2
((lp804
VPF03491
p805
aVPF00209
p806
atRp807
sI53637
g2
((lp808
VPF00001
p809
atRp810
sI6535
g2
((lp811
VPF00209
p812
atRp813
sI4489
g2
((lp814
VPF00131
p815
atRp816
sI6538
g2
((lp817
VPF00209
p818
atRp819
sI20468108
g2
((lp820
VPF00809
p821
atRp822
sI6541
g2
((lp823
VPF13906
p824
aVPF13520
p825
atRp826
sI27032
g2
((lp827
VPF00690
p828
aVPF00689
p829
aVPF00122
p830
atRp831
sI6548
g2
((lp832
VPF16644
p833
aVPF00999
p834
atRp835
sI2798
g2
((lp836
VPF00001
p837
atRp838
sI4502
g2
((lp839
VPF00131
p840
atRp841
sI8600
g2
((lp842
VPF00229
p843
atRp844
sI6554
g2
((lp845
VPF01758
p846
atRp847
sI6555
g2
((lp848
VPF01758
p849
atRp850
sI412
g2
((lp851
VPF00884
p852
atRp853
sI6557
g2
((lp854
VPF00324
p855
aVPF03522
p856
aVPF08403
p857
atRp858
sI6558
g2
((lp859
VPF00324
p860
aVPF03522
p861
aVPF08403
p862
atRp863
sI899487
g2
((lp864
VPF00881
p865
atRp866
sI4981154
g2
((lp867
VPF02364
p868
aVPF14288
p869
atRp870
sI6563
g2
((lp871
VPF03253
p872
atRp873
sI6564
g2
((lp874
VPF00854
p875
atRp876
sI6565
g2
((lp877
VPF00854
p878
atRp879
sI6566
g2
((lp880
VPF07690
p881
atRp882
sI6567
g2
((lp883
VPF07690
p884
atRp885
sI6570
g2
((lp886
VPF07690
p887
atRp888
sI2475
g2
((lp889
VPF02260
p890
aVPF11865
p891
aVPF02259
p892
aVPF08771
p893
aVPF00454
p894
atRp895
sI4524
g2
((lp896
VPF02219
p897
atRp898
sI6573
g2
((lp899
VPF01770
p900
atRp901
sI4790
g2
((lp902
VPF12796
p903
aVPF00554
p904
aVPF00531
p905
aVPF16179
p906
atRp907
sI6578
g2
((lp908
VPF03137
p909
aVPF07648
p910
atRp911
sI435
g2
((lp912
VPF00206
p913
aVPF14698
p914
atRp915
sI6580
g2
((lp916
VPF00083
p917
atRp918
sI6581
g2
((lp919
VPF07690
p920
atRp921
sI946614
g2
((lp922
VPF03989
p923
aVPF00521
p924
atRp925
sI4535
g2
((lp926
VPF00146
p927
atRp928
sI6584
g2
((lp929
VPF00083
p930
atRp931
sI10682
g2
((lp932
VPF05241
p933
atRp934
sI6559
g2
((lp935
VPF00324
p936
aVPF03522
p937
aVPF08403
p938
atRp939
sI2492
g2
((lp940
VPF13306
p941
aVPF01462
p942
aVPF00001
p943
aVPF12369
p944
atRp945
sI445
g2
((lp946
VPF00764
p947
atRp948
sI8639
g2
((lp949
VPF02727
p950
aVPF02728
p951
aVPF01179
p952
atRp953
sI22978
g2
((lp954
VPF05761
p955
atRp956
sI4548
g2
((lp957
VPF02965
p958
aVPF02607
p959
aVPF02310
p960
aVPF00809
p961
aVPF02574
p962
atRp963
sI8647
g2
((lp964
VPF00005
p965
aVPF00664
p966
atRp967
sI8648
g2
((lp968
VPF08832
p969
aVPF00010
p970
aVPF08815
p971
aVPF00989
p972
aVPF07469
p973
atRp974
sI8654
g2
((lp975
VPF01590
p976
aVPF00233
p977
atRp978
sI6609
g2
((lp979
VPF00149
p980
atRp981
sI66002
g2
((lp982
VPF00067
p983
atRp984
sI948691
g2
((lp985
VPF08676
p986
aVPF01119
p987
atRp988
sI27094
g2
((lp989
VPF03185
p990
atRp991
sI471
g2
((lp992
VPF01808
p993
aVPF02142
p994
atRp995
sI472
g2
((lp996
VPF02260
p997
aVPF02259
p998
aVPF11640
p999
aVPF00454
p1000
atRp1001
sI476
g2
((lp1002
VPF00690
p1003
aVPF00689
p1004
aVPF00122
p1005
atRp1006
sI8671
g2
((lp1007
VPF07565
p1008
aVPF00955
p1009
atRp1010
sI2534
g2
((lp1011
VPF00018
p1012
aVPF07714
p1013
aVPF00017
p1014
atRp1015
sI946665
g2
((lp1016
VPF02801
p1017
aVPF00109
p1018
atRp1019
sI57835
g2
((lp1020
VPF07565
p1021
aVPF00955
p1022
atRp1023
sI64805
g2
((lp1024
VPF00001
p1025
atRp1026
sI495
g2
((lp1027
VPF00690
p1028
aVPF00689
p1029
aVPF00122
p1030
aVPF09040
p1031
atRp1032
sI915954
g2
((lp1033
VPF00164
p1034
atRp1035
sI766
g2
((lp1036
VPF00194
p1037
atRp1038
sI6646
g2
((lp1039
VPF03062
p1040
atRp1041
sI55799
g2
((lp1042
VPF08399
p1043
aVPF13768
p1044
aVPF08473
p1045
atRp1046
sI55800
g2
((lp1047
VPF07686
p1048
atRp1049
sI2554
g2
((lp1050
VPF02932
p1051
aVPF02931
p1052
atRp1053
sI2555
g2
((lp1054
VPF02932
p1055
aVPF02931
p1056
atRp1057
sI2556
g2
((lp1058
VPF02932
p1059
aVPF02931
p1060
atRp1061
sI2557
g2
((lp1062
VPF02932
p1063
aVPF02931
p1064
atRp1065
sI2558
g2
((lp1066
VPF02932
p1067
aVPF02931
p1068
atRp1069
sI117247
g2
((lp1070
VPF07690
p1071
atRp1072
sI915968
g2
((lp1073
VPF00237
p1074
atRp1075
sI2561
g2
((lp1076
VPF02932
p1077
aVPF02931
p1078
atRp1079
sI2562
g2
((lp1080
VPF02932
p1081
aVPF02931
p1082
atRp1083
sI2563
g2
((lp1084
VPF02932
p1085
aVPF02931
p1086
atRp1087
sI2564
g2
((lp1088
VPF02932
p1089
aVPF02931
p1090
atRp1091
sI2565
g2
((lp1092
VPF02932
p1093
aVPF02931
p1094
atRp1095
sI2566
g2
((lp1096
VPF02932
p1097
aVPF02931
p1098
atRp1099
sI2567
g2
((lp1100
VPF02932
p1101
aVPF02931
p1102
atRp1103
sI2568
g2
((lp1104
VPF02932
p1105
aVPF02931
p1106
atRp1107
sI2569
g2
((lp1108
VPF02932
p1109
aVPF02931
p1110
atRp1111
sI8714
g2
((lp1112
VPF00005
p1113
aVPF00664
p1114
atRp1115
sI523
g2
((lp1116
VPF02874
p1117
aVPF00006
p1118
aVPF16886
p1119
atRp1120
sI1586
g2
((lp1121
VPF00067
p1122
atRp1123
sI5550
g2
((lp1124
VPF00326
p1125
aVPF02897
p1126
atRp1127
sI3973
g2
((lp1128
VPF13306
p1129
aVPF00001
p1130
atRp1131
sI538
g2
((lp1132
VPF00403
p1133
aVPF00122
p1134
atRp1135
sI540
g2
((lp1136
VPF00403
p1137
aVPF00122
p1138
atRp1139
sI12932293
g2
((lp1140
VPF00237
p1141
atRp1142
sI1381
g2
((lp1143
VPF00061
p1144
atRp1145
sI5553
g2
((lp1146
VPF00059
p1147
atRp1148
sI552
g2
((lp1149
VPF00001
p1150
aVPF08983
p1151
atRp1152
sI553
g2
((lp1153
VPF00001
p1154
aVPF08983
p1155
atRp1156
sI554
g2
((lp1157
VPF00001
p1158
atRp1159
sI10800
g2
((lp1160
VPF00001
p1161
atRp1162
sI776
g2
((lp1163
VPF00520
p1164
aVPF16885
p1165
aVPF16905
p1166
aVPF08763
p1167
atRp1168
sI6579
g2
((lp1169
VPF03137
p1170
aVPF07648
p1171
atRp1172
sI17824309
g2
((lp1173
VPF01636
p1174
atRp1175
sI819
g2
((lp1176
VPF14963
p1177
atRp1178
sI6711
g2
((lp1179
VPF00307
p1180
aVPF00435
p1181
atRp1182
sI216
g2
((lp1183
VPF00171
p1184
atRp1185
sI6714
g2
((lp1186
VPF00018
p1187
aVPF07714
p1188
aVPF00017
p1189
atRp1190
sI55867
g2
((lp1191
VPF00083
p1192
atRp1193
sI6716
g2
((lp1194
VPF02544
p1195
atRp1196
sI55869
g2
((lp1197
VPF00850
p1198
atRp1199
sI20492862
g2
((lp1200
VPF00809
p1201
atRp1202
sI948211
g2
((lp1203
VPF02518
p1204
aVPF00986
p1205
aVPF00204
p1206
aVPF01751
p1207
atRp1208
sI54576
g2
((lp1209
VPF00201
p1210
atRp1211
sI6582
g2
((lp1212
VPF00083
p1213
atRp1214
sI55879
g2
((lp1215
VPF02932
p1216
aVPF02931
p1217
atRp1218
sI8972
g2
((lp1219
VPF01055
p1220
aVPF00088
p1221
aVPF16863
p1222
atRp1223
sI586
g2
((lp1224
VPF01063
p1225
atRp1226
sI6583
g2
((lp1227
VPF00083
p1228
atRp1229
sI170572
g2
((lp1230
VPF02932
p1231
aVPF02931
p1232
atRp1233
sI64078
g2
((lp1234
VPF07670
p1235
aVPF07662
p1236
aVPF01773
p1237
atRp1238
sI781
g2
((lp1239
VPF00092
p1240
aVPF08399
p1241
aVPF08473
p1242
atRp1243
sI916048
g2
((lp1244
VPF00380
p1245
atRp1246
sI113235
g2
((lp1247
VPF07690
p1248
atRp1249
sI596
g2
((lp1250
VPF00452
p1251
aVPF02180
p1252
atRp1253
sI1111
g2
((lp1254
VPF00069
p1255
atRp1256
sI783
g2
((lp1257
VPF00625
p1258
aVPF12052
p1259
atRp1260
sI10846
g2
((lp1261
VPF01590
p1262
aVPF00233
p1263
atRp1264
sI881247
g2
((lp1265
VPF00905
p1266
aVPF03717
p1267
atRp1268
sI6752
g2
((lp1269
VPF00001
p1270
atRp1271
sI2066
g2
((lp1272
VPF01030
p1273
aVPF07714
p1274
aVPF00757
p1275
aVPF14843
p1276
atRp1277
sI6755
g2
((lp1278
VPF00001
p1279
atRp1280
sI613
g2
((lp1281
VPF00168
p1282
aVPF00621
p1283
aVPF00620
p1284
aVPF09036
p1285
atRp1286
sI10855
g2
((lp1287
VPF03662
p1288
atRp1289
sI10857
g2
((lp1290
VPF00173
p1291
atRp1292
sI24271467
g2
((lp1293
VPF00693
p1294
atRp1295
sI4718
g2
((lp1296
VPF06374
p1297
atRp1298
sI946799
g2
((lp1299
VPF02801
p1300
aVPF00109
p1301
atRp1302
sI10864
g2
((lp1303
VPF07690
p1304
atRp1305
sI4722
g2
((lp1306
VPF00329
p1307
atRp1308
sI13906547
g2
((lp1309
VPF00809
p1310
atRp1311
sI2677
g2
((lp1312
VPF05090
p1313
atRp1314
sI1129
g2
((lp1315
VPF00001
p1316
atRp1317
sI8824
g2
((lp1318
VPF00135
p1319
atRp1320
sI948857
g2
((lp1321
VPF01274
p1322
atRp1323
sI13906557
g2
((lp1324
VPF00809
p1325
atRp1326
sI6783
g2
((lp1327
VPF00685
p1328
atRp1329
sI945600
g2
((lp1330
VPF00171
p1331
aVPF01619
p1332
aVPF14850
p1333
atRp1334
sI642
g2
((lp1335
VPF03051
p1336
atRp1337
sI7150211
g2
((lp1338
VPF00380
p1339
atRp1340
sI8836
g2
((lp1341
VPF07722
p1342
atRp1343
sI1317
g2
((lp1344
VPF04145
p1345
atRp1346
sI2694
g2
((lp1347
VPF14478
p1348
aVPF01122
p1349
atRp1350
sI5228
g2
((lp1351
VPF00341
p1352
atRp1353
sI8843
g2
((lp1354
VPF00001
p1355
atRp1356
sI18157677
g2
((lp1357
VPF01636
p1358
atRp1359
sI950929
g2
((lp1360
VPF00905
p1361
aVPF03717
p1362
atRp1363
sI944790
g2
((lp1364
VPF00186
p1365
atRp1366
sI4759
g2
((lp1367
VPF13088
p1368
atRp1369
sI8856
g2
((lp1370
VPF00104
p1371
aVPF00105
p1372
atRp1373
sI8644
g2
((lp1374
VPF00248
p1375
atRp1376
sI1446559
g2
((lp1377
VPF00809
p1378
atRp1379
sI673
g2
((lp1380
VPF00130
p1381
aVPF02196
p1382
aVPF07714
p1383
atRp1384
sI6818
g2
((lp1385
VPF00685
p1386
atRp1387
sI18157927
g2
((lp1388
VPF01636
p1389
atRp1390
sI4772
g2
((lp1391
VPF00554
p1392
aVPF16179
p1393
atRp1394
sI6822
g2
((lp1395
VPF00685
p1396
atRp1397
sI30833
g2
((lp1398
VPF06941
p1399
atRp1400
sI5916
g2
((lp1401
VPF00104
p1402
aVPF00105
p1403
atRp1404
sI683
g2
((lp1405
VPF02267
p1406
atRp1407
sI8877
g2
((lp1408
VPF00781
p1409
atRp1410
sI81693
g2
((lp1411
VPF14828
p1412
atRp1413
sI10928
g2
((lp1414
VPF00620
p1415
atRp1416
sI6833
g2
((lp1417
VPF00005
p1418
aVPF00664
p1419
atRp1420
sI2739
g2
((lp1421
VPF00903
p1422
atRp1423
sI2740
g2
((lp1424
VPF02793
p1425
aVPF00002
p1426
atRp1427
sI2741
g2
((lp1428
VPF02932
p1429
aVPF02931
p1430
atRp1431
sI2742
g2
((lp1432
VPF02932
p1433
aVPF02931
p1434
atRp1435
sI4792
g2
((lp1436
VPF00023
p1437
aVPF12796
p1438
atRp1439
sI1723
g2
((lp1440
VPF01180
p1441
atRp1442
sI17824444
g2
((lp1443
VPF01636
p1444
atRp1445
sI387775
g2
((lp1446
VPF00083
p1447
atRp1448
sI2752
g2
((lp1449
VPF03951
p1450
aVPF00120
p1451
atRp1452
sI706
g2
((lp1453
VPF03073
p1454
atRp1455
sI4803
g2
((lp1456
VPF00243
p1457
atRp1458
sI6262
g2
((lp1459
VPF00520
p1460
aVPF02026
p1461
aVPF06459
p1462
aVPF08709
p1463
aVPF00622
p1464
aVPF02815
p1465
aVPF13833
p1466
aVPF08454
p1467
aVPF01365
p1468
atRp1469
sI7184
g2
((lp1470
VPF02518
p1471
aVPF00183
p1472
atRp1473
sI12933831
g2
((lp1474
VPF07943
p1475
aVPF00768
p1476
atRp1477
sI2760
g2
((lp1478
VPF02221
p1479
atRp1480
sI713
g2
((lp1481
VPF00386
p1482
aVPF01391
p1483
atRp1484
sI714
g2
((lp1485
VPF00386
p1486
aVPF01391
p1487
atRp1488
sI715
g2
((lp1489
VPF00084
p1490
aVPF00089
p1491
aVPF00431
p1492
atRp1493
sI716
g2
((lp1494
VPF00084
p1495
aVPF00089
p1496
aVPF00431
p1497
atRp1498
sI8911
g2
((lp1499
VPF00520
p1500
atRp1501
sI8912
g2
((lp1502
VPF00520
p1503
atRp1504
sI27345
g2
((lp1505
VPF03185
p1506
atRp1507
sI6947
g2
((lp1508
VPF14478
p1509
aVPF01122
p1510
atRp1511
sI6869
g2
((lp1512
VPF00001
p1513
atRp1514
sI5241
g2
((lp1515
VPF00104
p1516
aVPF00105
p1517
aVPF02161
p1518
atRp1519
sI12933852
g2
((lp1520
VPF00171
p1521
aVPF01619
p1522
aVPF14850
p1523
atRp1524
sI6571
g2
((lp1525
VPF07690
p1526
atRp1527
sI4830
g2
((lp1528
VPF00334
p1529
atRp1530
sI4831
g2
((lp1531
VPF00334
p1532
atRp1533
sI5139
g2
((lp1534
VPF00233
p1535
atRp1536
sI4835
g2
((lp1537
VPF02525
p1538
atRp1539
sI4837
g2
((lp1540
VPF01234
p1541
atRp1542
sI5753
g2
((lp1543
VPF00018
p1544
aVPF07714
p1545
aVPF00017
p1546
atRp1547
sI6890
g2
((lp1548
VPF00005
p1549
aVPF00664
p1550
atRp1551
sI4843
g2
((lp1552
VPF00175
p1553
aVPF00258
p1554
aVPF02898
p1555
aVPF00667
p1556
atRp1557
sI4846
g2
((lp1558
VPF00175
p1559
aVPF00258
p1560
aVPF02898
p1561
aVPF00667
p1562
atRp1563
sI1100527
g2
((lp1564
VPF00106
p1565
atRp1566
sI64240
g2
((lp1567
VPF00005
p1568
aVPF01061
p1569
atRp1570
sI64241
g2
((lp1571
VPF00005
p1572
aVPF01061
p1573
atRp1574
sI6898
g2
((lp1575
VPF07706
p1576
aVPF00155
p1577
atRp1578
sI759
g2
((lp1579
VPF00194
p1580
atRp1581
sI4856
g2
((lp1582
VPF00093
p1583
aVPF00007
p1584
aVPF00219
p1585
atRp1586
sI761
g2
((lp1587
VPF00194
p1588
atRp1589
sI762
g2
((lp1590
VPF00194
p1591
atRp1592
sI763
g2
((lp1593
VPF00194
p1594
atRp1595
sI4860
g2
((lp1596
VPF01048
p1597
atRp1598
sI765
g2
((lp1599
VPF00194
p1600
atRp1601
sI6779646
g2
((lp1602
VPF01427
p1603
atRp1604
sI767
g2
((lp1605
VPF00194
p1606
atRp1607
sI768
g2
((lp1608
VPF00194
p1609
atRp1610
sI1152
g2
((lp1611
VPF00217
p1612
aVPF02807
p1613
atRp1614
sI770
g2
((lp1615
VPF00194
p1616
atRp1617
sI771
g2
((lp1618
VPF00194
p1619
atRp1620
sI6916
g2
((lp1621
VPF00067
p1622
atRp1623
sI773
g2
((lp1624
VPF00520
p1625
aVPF16905
p1626
aVPF08763
p1627
atRp1628
sI774
g2
((lp1629
VPF00520
p1630
aVPF16905
p1631
aVPF08763
p1632
atRp1633
sI775
g2
((lp1634
VPF00520
p1635
aVPF16885
p1636
aVPF16905
p1637
aVPF08763
p1638
atRp1639
sI949000
g2
((lp1640
VPF00380
p1641
atRp1642
sI778
g2
((lp1643
VPF00520
p1644
aVPF16885
p1645
aVPF16905
p1646
aVPF08763
p1647
atRp1648
sI779
g2
((lp1649
VPF00520
p1650
aVPF16905
p1651
aVPF08763
p1652
atRp1653
sI780
g2
((lp1654
VPF07714
p1655
aVPF00754
p1656
atRp1657
sI8973
g2
((lp1658
VPF02932
p1659
aVPF02931
p1660
atRp1661
sI782
g2
((lp1662
VPF00625
p1663
aVPF12052
p1664
atRp1665
sI4879
g2
((lp1666
VPF00212
p1667
atRp1668
sI784
g2
((lp1669
VPF00625
p1670
aVPF12052
p1671
atRp1672
sI4881
g2
((lp1673
VPF01094
p1674
aVPF07714
p1675
aVPF00211
p1676
atRp1677
sI786
g2
((lp1678
VPF13903
p1679
atRp1680
sI81027
g2
((lp1681
VPF03953
p1682
aVPF00091
p1683
atRp1684
sI2862
g2
((lp1685
VPF00001
p1686
atRp1687
sI3674
g2
((lp1688
VPF00357
p1689
aVPF08441
p1690
aVPF01839
p1691
atRp1692
sI3797792
g2
((lp1693
VPF00164
p1694
atRp1695
sI801
g2
((lp1696
VPF13499
p1697
atRp1698
sI3244835
g2
((lp1699
VPF00809
p1700
atRp1701
sI6948
g2
((lp1702
VPF14478
p1703
aVPF01122
p1704
atRp1705
sI805
g2
((lp1706
VPF13499
p1707
atRp1708
sI808
g2
((lp1709
VPF13499
p1710
atRp1711
sI4670250
g2
((lp1712
VPF01427
p1713
atRp1714
sI113451
g2
((lp1715
VPF02784
p1716
aVPF00278
p1717
atRp1718
sI9498
g2
((lp1719
VPF07565
p1720
aVPF00955
p1721
atRp1722
sI818
g2
((lp1723
VPF08332
p1724
aVPF00069
p1725
atRp1726
sI12931886
g2
((lp1727
VPF00905
p1728
aVPF14814
p1729
aVPF00912
p1730
aVPF14812
p1731
atRp1732
sI4914
g2
((lp1733
VPF07714
p1734
aVPF16920
p1735
aVPF13855
p1736
atRp1737
sI4915
g2
((lp1738
VPF01462
p1739
aVPF07714
p1740
aVPF16920
p1741
aVPF07679
p1742
aVPF13855
p1743
atRp1744
sI81034
g2
((lp1745
VPF00153
p1746
atRp1747
sI831
g2
((lp1748
VPF00748
p1749
atRp1750
sI834
g2
((lp1751
VPF00619
p1752
atRp1753
sI3553
g2
((lp1754
VPF00340
p1755
aVPF02394
p1756
atRp1757
sI2890
g2
((lp1758
VPF01094
p1759
aVPF10613
p1760
aVPF00060
p1761
atRp1762
sI2891
g2
((lp1763
VPF01094
p1764
aVPF10613
p1765
aVPF00060
p1766
atRp1767
sI2892
g2
((lp1768
VPF01094
p1769
aVPF10613
p1770
aVPF00060
p1771
atRp1772
sI12933965
g2
((lp1773
VPF04983
p1774
aVPF04997
p1775
aVPF05000
p1776
aVPF00623
p1777
aVPF04998
p1778
atRp1779
sI846
g2
((lp1780
VPF01094
p1781
aVPF00003
p1782
aVPF07562
p1783
atRp1784
sI6285
g2
((lp1785
VPF01023
p1786
aVPF00036
p1787
atRp1788
sI2897
g2
((lp1789
VPF01094
p1790
aVPF10613
p1791
aVPF00060
p1792
atRp1793
sI2898
g2
((lp1794
VPF01094
p1795
aVPF10613
p1796
aVPF00060
p1797
atRp1798
sI947811
g2
((lp1799
VPF00203
p1800
atRp1801
sI2902
g2
((lp1802
VPF10562
p1803
aVPF01094
p1804
aVPF10613
p1805
aVPF00060
p1806
atRp1807
sI2903
g2
((lp1808
VPF01094
p1809
aVPF10613
p1810
aVPF10565
p1811
aVPF00060
p1812
atRp1813
sI2904
g2
((lp1814
VPF01094
p1815
aVPF10613
p1816
aVPF10565
p1817
aVPF00060
p1818
atRp1819
sI2905
g2
((lp1820
VPF01094
p1821
aVPF10613
p1822
aVPF10565
p1823
aVPF00060
p1824
atRp1825
sI54106
g2
((lp1826
VPF13516
p1827
aVPF01582
p1828
aVPF13855
p1829
atRp1830
sI2908
g2
((lp1831
VPF00104
p1832
aVPF00105
p1833
aVPF02155
p1834
atRp1835
sI2911
g2
((lp1836
VPF01094
p1837
aVPF10606
p1838
aVPF00003
p1839
aVPF07562
p1840
atRp1841
sI2912
g2
((lp1842
VPF01094
p1843
aVPF00003
p1844
aVPF07562
p1845
atRp1846
sI2913
g2
((lp1847
VPF01094
p1848
aVPF00003
p1849
aVPF07562
p1850
atRp1851
sI866
g2
((lp1852
VPF00079
p1853
atRp1854
sI2915
g2
((lp1855
VPF01094
p1856
aVPF10606
p1857
aVPF00003
p1858
aVPF07562
p1859
atRp1860
sI101929829
g2
((lp1861
VPF00067
p1862
atRp1863
sI4967
g2
((lp1864
VPF00676
p1865
aVPF16870
p1866
aVPF02779
p1867
aVPF16078
p1868
atRp1869
sI873
g2
((lp1870
VPF00106
p1871
atRp1872
sI7018
g2
((lp1873
VPF00405
p1874
atRp1875
sI2194
g2
((lp1876
VPF00698
p1877
aVPF08242
p1878
aVPF16197
p1879
aVPF00975
p1880
aVPF02801
p1881
aVPF00109
p1882
aVPF14765
p1883
aVPF00550
p1884
aVPF00107
p1885
aVPF08659
p1886
atRp1887
sI12933998
g2
((lp1888
VPF17092
p1889
aVPF00905
p1890
aVPF00912
p1891
atRp1892
sI23408
g2
((lp1893
VPF02146
p1894
atRp1895
sI2932
g2
((lp1896
VPF00069
p1897
atRp1898
sI2936
g2
((lp1899
VPF07992
p1900
aVPF02852
p1901
atRp1902
sI4985
g2
((lp1903
VPF00001
p1904
atRp1905
sI4986
g2
((lp1906
VPF00001
p1907
atRp1908
sI2939
g2
((lp1909
VPF14497
p1910
aVPF02798
p1911
atRp1912
sI4988
g2
((lp1913
VPF00001
p1914
atRp1915
sI2944
g2
((lp1916
VPF14497
p1917
aVPF02798
p1918
atRp1919
sI101929857
g2
((lp1920
VPF00685
p1921
atRp1922
sI947691
g2
((lp1923
VPF00809
p1924
atRp1925
sI23428
g2
((lp1926
VPF13520
p1927
atRp1928
sI885638
g2
((lp1929
VPF00141
p1930
atRp1931
sI934791
g2
((lp1932
VPF00905
p1933
aVPF00912
p1934
atRp1935
sI2952
g2
((lp1936
VPF00043
p1937
aVPF13417
p1938
atRp1939
sI5004
g2
((lp1940
VPF00061
p1941
atRp1942
sI909
g2
((lp1943
VPF07654
p1944
aVPF16497
p1945
atRp1946
sI3885966
g2
((lp1947
VPF01180
p1948
atRp1949
sI9103
g2
((lp1950
VPF13895
p1951
atRp1952
sI7056
g2
((lp1953
VPF09064
p1954
aVPF07645
p1955
aVPF12662
p1956
aVPF00059
p1957
atRp1958
sI445329
g2
((lp1959
VPF00685
p1960
atRp1961
sI53632
g2
((lp1962
VPF00571
p1963
atRp1964
sI886937
g2
((lp1965
VPF00137
p1966
atRp1967
sI920
g2
((lp1968
VPF09191
p1969
aVPF12104
p1970
aVPF05790
p1971
aVPF00047
p1972
atRp1973
sI84889
g2
((lp1974
VPF13906
p1975
aVPF13520
p1976
atRp1977
sI23335835
g2
((lp1978
VPF00302
p1979
atRp1980
sI5020
g2
((lp1981
VPF00184
p1982
aVPF00220
p1983
atRp1984
sI5021
g2
((lp1985
VPF00001
p1986
atRp1987
sI3169183
g2
((lp1988
VPF03167
p1989
atRp1990
sI2977
g2
((lp1991
VPF07701
p1992
aVPF07700
p1993
aVPF00211
p1994
atRp1995
sI931
g2
((lp1996
VPF04103
p1997
atRp1998
sI6276004
g2
((lp1999
VPF00302
p2000
atRp2001
sI23461
g2
((lp2002
VPF00005
p2003
atRp2004
sI1635
g2
((lp2005
VPF00383
p2006
atRp2007
sI2984
g2
((lp2008
VPF07714
p2009
aVPF00211
p2010
atRp2011
sI5033
g2
((lp2012
VPF08336
p2013
aVPF13640
p2014
atRp2015
sI7083
g2
((lp2016
VPF00265
p2017
atRp2018
sI941
g2
((lp2019
VPF08205
p2020
aVPF07686
p2021
atRp2022
sI942
g2
((lp2023
VPF13895
p2024
aVPF07686
p2025
atRp2026
sI943
g2
((lp2027
VPF00020
p2028
atRp2029
sI945
g2
((lp2030
VPF07686
p2031
aVPF00047
p2032
atRp2033
sI23475
g2
((lp2034
VPF02749
p2035
aVPF01729
p2036
atRp2037
sI353189
g2
((lp2038
VPF03137
p2039
aVPF07648
p2040
atRp2041
sI13900729
g2
((lp2042
VPF00809
p2043
atRp2044
sI11194
g2
((lp2045
VPF00005
p2046
aVPF00664
p2047
atRp2048
sI7099
g2
((lp2049
VPF13516
p2050
aVPF01582
p2051
aVPF13855
p2052
atRp2053
sI946587
g2
((lp2054
VPF01558
p2055
aVPF02775
p2056
aVPF10371
p2057
aVPF01855
p2058
aVPF17147
p2059
atRp2060
sI54205
g2
((lp2061
VPF00034
p2062
atRp2063
sI5054
g2
((lp2064
VPF00079
p2065
atRp2066
sI8829
g2
((lp2067
VPF00629
p2068
aVPF00431
p2069
aVPF11980
p2070
aVPF00754
p2071
atRp2072
sI944799
g2
((lp2073
VPF00905
p2074
aVPF03717
p2075
atRp2076
sI9153
g2
((lp2077
VPF07670
p2078
aVPF07662
p2079
aVPF01773
p2080
atRp2081
sI9154
g2
((lp2082
VPF07670
p2083
aVPF07662
p2084
aVPF01773
p2085
atRp2086
sI12932037
g2
((lp2087
VPF08545
p2088
aVPF08541
p2089
atRp2090
sI1491910
g2
((lp2091
VPF00098
p2092
aVPF00077
p2093
aVPF00607
p2094
aVPF02022
p2095
aVPF00078
p2096
aVPF02813
p2097
aVPF00552
p2098
aVPF06817
p2099
aVPF00665
p2100
atRp2101
sI945313
g2
((lp2102
VPF01820
p2103
aVPF07478
p2104
atRp2105
sI1027017
g2
((lp2106
VPF00164
p2107
atRp2108
sI6647
g2
((lp2109
VPF00080
p2110
atRp2111
sI2893
g2
((lp2112
VPF01094
p2113
aVPF10613
p2114
aVPF00060
p2115
atRp2116
sI978
g2
((lp2117
VPF00383
p2118
atRp2119
sI7124
g2
((lp2120
VPF00229
p2121
atRp2122
sI7125
g2
((lp2123
VPF13499
p2124
aVPF13833
p2125
atRp2126
sI983
g2
((lp2127
VPF00069
p2128
atRp2129
sI160728
g2
((lp2130
VPF00474
p2131
atRp2132
sI9177
g2
((lp2133
VPF02932
p2134
aVPF02931
p2135
atRp2136
sI7133
g2
((lp2137
VPF00020
p2138
atRp2139
sI7134
g2
((lp2140
VPF13499
p2141
aVPF13833
p2142
atRp2143
sI3039
g2
((lp2144
VPF00042
p2145
atRp2146
sI3040
g2
((lp2147
VPF00042
p2148
atRp2149
sI326625
g2
((lp2150
VPF01923
p2151
atRp2152
sI12934115
g2
((lp2153
VPF00252
p2154
atRp2155
sI11238
g2
((lp2156
VPF00194
p2157
atRp2158
sI915964
g2
((lp2159
VPF00573
p2160
atRp2161
sI9194
g2
((lp2162
VPF07690
p2163
atRp2164
sI1003
g2
((lp2165
VPF00028
p2166
aVPF01049
p2167
atRp2168
sI7150
g2
((lp2169
VPF01028
p2170
aVPF02919
p2171
aVPF14370
p2172
atRp2173
sI3055
g2
((lp2174
VPF00018
p2175
aVPF07714
p2176
aVPF00017
p2177
atRp2178
sI5104
g2
((lp2179
VPF00079
p2180
atRp2181
sI7153
g2
((lp2182
VPF00204
p2183
aVPF16898
p2184
aVPF01751
p2185
aVPF02518
p2186
aVPF00521
p2187
aVPF08070
p2188
atRp2189
sI7155
g2
((lp2190
VPF00204
p2191
aVPF16898
p2192
aVPF01751
p2193
aVPF02518
p2194
aVPF00521
p2195
aVPF08070
p2196
atRp2197
sI7157
g2
((lp2198
VPF07710
p2199
aVPF00870
p2200
aVPF08563
p2201
atRp2202
sI13875662
g2
((lp2203
VPF07827
p2204
atRp2205
sI1017
g2
((lp2206
VPF00069
p2207
atRp2208
sI3066
g2
((lp2209
VPF00850
p2210
atRp2211
sI2559
g2
((lp2212
VPF02932
p2213
aVPF02931
p2214
atRp2215
sI1020
g2
((lp2216
VPF00069
p2217
atRp2218
sI1021
g2
((lp2219
VPF00069
p2220
atRp2221
sI1022
g2
((lp2222
VPF00069
p2223
atRp2224
sI1024
g2
((lp2225
VPF00069
p2226
atRp2227
sI1025
g2
((lp2228
VPF00069
p2229
atRp2230
sI5122
g2
((lp2231
VPF12177
p2232
aVPF16470
p2233
aVPF01483
p2234
aVPF00082
p2235
atRp2236
sI7172
g2
((lp2237
VPF05724
p2238
atRp2239
sI5126
g2
((lp2240
VPF16470
p2241
aVPF01483
p2242
aVPF00082
p2243
atRp2244
sI915969
g2
((lp2245
VPF07650
p2246
atRp2247
sI5130
g2
((lp2248
VPF01467
p2249
atRp2250
sI11280
g2
((lp2251
VPF00520
p2252
aVPF06512
p2253
atRp2254
sI23569
g2
((lp2255
VPF08526
p2256
aVPF08527
p2257
aVPF03068
p2258
atRp2259
sI123264
g2
((lp2260
VPF15048
p2261
atRp2262
sI1043
g2
((lp2263
VPF15116
p2264
atRp2265
sI5141
g2
((lp2266
VPF00233
p2267
atRp2268
sI5142
g2
((lp2269
VPF00233
p2270
atRp2271
sI5143
g2
((lp2272
VPF00233
p2273
atRp2274
sI5144
g2
((lp2275
VPF00233
p2276
atRp2277
sI5148
g2
((lp2278
VPF04868
p2279
atRp2280
sI5149
g2
((lp2281
VPF04868
p2282
atRp2283
sI4783136
g2
((lp2284
VPF01427
p2285
atRp2286
sI5153
g2
((lp2287
VPF00233
p2288
aVPF08499
p2289
atRp2290
sI5979
g2
((lp2291
VPF00028
p2292
aVPF07714
p2293
atRp2294
sI5156
g2
((lp2295
VPF07714
p2296
aVPF07679
p2297
atRp2298
sI5158
g2
((lp2299
VPF01590
p2300
aVPF00233
p2301
atRp2302
sI5159
g2
((lp2303
VPF07714
p2304
aVPF07679
p2305
aVPF00047
p2306
atRp2307
sI9052
g2
((lp2308
VPF00003
p2309
atRp2310
sI1066
g2
((lp2311
VPF00135
p2312
atRp2313
sI23657
g2
((lp2314
VPF13520
p2315
atRp2316
sI7152684
g2
((lp2317
VPF07650
p2318
atRp2319
sI11309
g2
((lp2320
VPF03137
p2321
atRp2322
sI5167
g2
((lp2323
VPF01033
p2324
aVPF01223
p2325
aVPF01663
p2326
atRp2327
sI5170
g2
((lp2328
VPF14593
p2329
aVPF00069
p2330
atRp2331
sI3123
g2
((lp2332
VPF00969
p2333
aVPF07654
p2334
atRp2335
sI513
g2
((lp2336
VPF02823
p2337
atRp2338
sI1080
g2
((lp2339
VPF00005
p2340
aVPF00664
p2341
aVPF14396
p2342
atRp2343
sI947258
g2
((lp2344
VPF13378
p2345
atRp2346
sI56606
g2
((lp2347
VPF00083
p2348
atRp2349
sI2570
g2
((lp2350
VPF02932
p2351
aVPF02931
p2352
atRp2353
sI1090623
g2
((lp2354
VPF00137
p2355
atRp2356
sI1450507
g2
((lp2357
VPF00809
p2358
atRp2359
sI3140
g2
((lp2360
VPF07654
p2361
aVPF00129
p2362
atRp2363
sI1548
g2
((lp2364
VPF00067
p2365
atRp2366
sI5833
g2
((lp2367
VPF01467
p2368
atRp2369
sI7152715
g2
((lp2370
VPF00237
p2371
atRp2372
sI5196
g2
((lp2373
VPF00048
p2374
atRp2375
sI7010
g2
((lp2376
VPF00041
p2377
aVPF07714
p2378
aVPF10430
p2379
atRp2380
sI7152719
g2
((lp2381
VPF00164
p2382
atRp2383
sI23632
g2
((lp2384
VPF00194
p2385
atRp2386
sI1105
g2
((lp2387
VPF00271
p2388
aVPF00385
p2389
aVPF00176
p2390
aVPF13907
p2391
atRp2392
sI3156
g2
((lp2393
VPF00368
p2394
aVPF12349
p2395
atRp2396
sI2560
g2
((lp2397
VPF02932
p2398
aVPF02931
p2399
atRp2400
sI13906105
g2
((lp2401
VPF00809
p2402
atRp2403
sI945240
g2
((lp2404
VPF00905
p2405
aVPF03717
p2406
atRp2407
sI1258585
g2
((lp2408
VPF00959
p2409
atRp2410
sI186
g2
((lp2411
VPF00001
p2412
atRp2413
sI1118
g2
((lp2414
VPF01607
p2415
aVPF00704
p2416
atRp2417
sI23649
g2
((lp2418
VPF08418
p2419
aVPF04042
p2420
atRp2421
sI1128
g2
((lp2422
VPF00001
p2423
atRp2424
sI3177
g2
((lp2425
VPF01733
p2426
atRp2427
sI5226
g2
((lp2428
VPF00393
p2429
aVPF03446
p2430
atRp2431
sI1131
g2
((lp2432
VPF00001
p2433
atRp2434
sI7276
g2
((lp2435
VPF00576
p2436
atRp2437
sI100529261
g2
((lp2438
VPF00432
p2439
atRp2440
sI5230
g2
((lp2441
VPF00162
p2442
atRp2443
sI1135
g2
((lp2444
VPF02932
p2445
aVPF02931
p2446
atRp2447
sI1136
g2
((lp2448
VPF02932
p2449
aVPF02931
p2450
atRp2451
sI1137
g2
((lp2452
VPF02932
p2453
aVPF02931
p2454
atRp2455
sI1138
g2
((lp2456
VPF02932
p2457
aVPF02931
p2458
atRp2459
sI1139
g2
((lp2460
VPF02932
p2461
aVPF02931
p2462
atRp2463
sI1141
g2
((lp2464
VPF02932
p2465
aVPF02931
p2466
atRp2467
sI1142
g2
((lp2468
VPF02932
p2469
aVPF02931
p2470
atRp2471
sI1143
g2
((lp2472
VPF02932
p2473
aVPF02931
p2474
atRp2475
sI3284089
g2
((lp2476
VPF07827
p2477
atRp2478
sI191
g2
((lp2479
VPF00670
p2480
aVPF05221
p2481
atRp2482
sI5244
g2
((lp2483
VPF00005
p2484
aVPF00664
p2485
atRp2486
sI874
g2
((lp2487
VPF00106
p2488
atRp2489
sI877694
g2
((lp2490
VPF00768
p2491
atRp2492
sI7296
g2
((lp2493
VPF07992
p2494
aVPF00462
p2495
aVPF02852
p2496
atRp2497
sI7298
g2
((lp2498
VPF00303
p2499
atRp2500
sI7299
g2
((lp2501
VPF00264
p2502
atRp2503
sI1558
g2
((lp2504
VPF00067
p2505
atRp2506
sI1158
g2
((lp2507
VPF00217
p2508
aVPF02807
p2509
atRp2510
sI1159
g2
((lp2511
VPF00217
p2512
aVPF02807
p2513
atRp2514
sI1160
g2
((lp2515
VPF00217
p2516
aVPF02807
p2517
atRp2518
sI81033
g2
((lp2519
VPF00520
p2520
aVPF00027
p2521
aVPF13426
p2522
atRp2523
sI20468874
g2
((lp2524
VPF00809
p2525
atRp2526
sI1559
g2
((lp2527
VPF00067
p2528
atRp2529
sI9356
g2
((lp2530
VPF00083
p2531
atRp2532
sI785
g2
((lp2533
VPF00625
p2534
aVPF12052
p2535
atRp2536
sI20493165
g2
((lp2537
VPF00302
p2538
atRp2539
sI29200589
g2
((lp2540
VPF00809
p2541
atRp2542
sI2243
g2
((lp2543
VPF08702
p2544
aVPF12160
p2545
aVPF00147
p2546
atRp2547
sI5269
g2
((lp2548
VPF00079
p2549
atRp2550
sI3609
g2
((lp2551
VPF00035
p2552
aVPF07528
p2553
atRp2554
sI105372824
g2
((lp2555
VPF08543
p2556
atRp2557
sI79001
g2
((lp2558
VPF07884
p2559
atRp2560
sI1025180
g2
((lp2561
VPF00466
p2562
atRp2563
sI1181
g2
((lp2564
VPF00654
p2565
atRp2566
sI20491422
g2
((lp2567
VPF00809
p2568
atRp2569
sI3269
g2
((lp2570
VPF00001
p2571
atRp2572
sI9376
g2
((lp2573
VPF00083
p2574
atRp2575
sI10746
g2
((lp2576
VPF00564
p2577
aVPF00069
p2578
atRp2579
sI5136
g2
((lp2580
VPF00233
p2581
aVPF08499
p2582
atRp2583
sI12932294
g2
((lp2584
VPF00203
p2585
atRp2586
sI8732
g2
((lp2587
VPF00782
p2588
aVPF01331
p2589
aVPF03919
p2590
atRp2591
sI5290
g2
((lp2592
VPF00794
p2593
aVPF02192
p2594
aVPF00613
p2595
aVPF00454
p2596
aVPF00792
p2597
atRp2598
sI5291
g2
((lp2599
VPF00794
p2600
aVPF02192
p2601
aVPF00613
p2602
aVPF00454
p2603
aVPF00792
p2604
atRp2605
sI5292
g2
((lp2606
VPF00069
p2607
atRp2608
sI5293
g2
((lp2609
VPF00794
p2610
aVPF02192
p2611
aVPF00613
p2612
aVPF00454
p2613
aVPF00792
p2614
atRp2615
sI5294
g2
((lp2616
VPF00794
p2617
aVPF00613
p2618
aVPF00454
p2619
aVPF00792
p2620
atRp2621
sI5295
g2
((lp2622
VPF16454
p2623
aVPF00017
p2624
aVPF00620
p2625
atRp2626
sI5296
g2
((lp2627
VPF16454
p2628
aVPF00017
p2629
aVPF00620
p2630
atRp2631
sI3251
g2
((lp2632
VPF00156
p2633
atRp2634
sI1813
g2
((lp2635
VPF00001
p2636
atRp2637
sI8094921
g2
((lp2638
VPF01636
p2639
atRp2640
sI29881
g2
((lp2641
VPF12349
p2642
aVPF02460
p2643
aVPF16414
p2644
atRp2645
sI1439
g2
((lp2646
VPF09240
p2647
aVPF09294
p2648
atRp2649
sI20466880
g2
((lp2650
VPF00809
p2651
atRp2652
sI7363
g2
((lp2653
VPF00201
p2654
atRp2655
sI12932292
g2
((lp2656
VPF07650
p2657
atRp2658
sI888005
g2
((lp2659
VPF00797
p2660
atRp2661
sI7366
g2
((lp2662
VPF00201
p2663
atRp2664
sI7367
g2
((lp2665
VPF00201
p2666
atRp2667
sI5320
g2
((lp2668
VPF00068
p2669
atRp2670
sI12932297
g2
((lp2671
VPF00573
p2672
atRp2673
sI3274
g2
((lp2674
VPF00001
p2675
atRp2676
sI12932299
g2
((lp2677
VPF00338
p2678
atRp2679
sI7372
g2
((lp2680
VPF00215
p2681
aVPF00156
p2682
atRp2683
sI200909
g2
((lp2684
VPF02932
p2685
aVPF02931
p2686
atRp2687
sI9424
g2
((lp2688
VPF07885
p2689
atRp2690
sI1132
g2
((lp2691
VPF00001
p2692
atRp2693
sI1234
g2
((lp2694
VPF00001
p2695
atRp2696
sI1571
g2
((lp2697
VPF00067
p2698
atRp2699
sI3284
g2
((lp2700
VPF01073
p2701
atRp2702
sI9429
g2
((lp2703
VPF00005
p2704
aVPF01061
p2705
atRp2706
sI2937
g2
((lp2707
VPF03917
p2708
aVPF03199
p2709
atRp2710
sI5337
g2
((lp2711
VPF00169
p2712
aVPF00614
p2713
aVPF00787
p2714
aVPF13091
p2715
atRp2716
sI3290
g2
((lp2717
VPF00106
p2718
atRp2719
sI5327
g2
((lp2720
VPF00039
p2721
aVPF00089
p2722
aVPF00008
p2723
aVPF00051
p2724
atRp2725
sI1244
g2
((lp2726
VPF00005
p2727
aVPF00664
p2728
atRp2729
sI2938
g2
((lp2730
VPF00043
p2731
aVPF02798
p2732
atRp2733
sI1573
g2
((lp2734
VPF00067
p2735
atRp2736
sI5328
g2
((lp2737
VPF00089
p2738
aVPF00051
p2739
atRp2740
sI945378
g2
((lp2741
VPF00849
p2742
aVPF01479
p2743
atRp2744
sI5329
g2
((lp2745
VPF00021
p2746
atRp2747
sI2906
g2
((lp2748
VPF01094
p2749
aVPF10613
p2750
aVPF00060
p2751
atRp2752
sI7378
g2
((lp2753
VPF01048
p2754
atRp2755
sI1133
g2
((lp2756
VPF00001
p2757
atRp2758
sI7412
g2
((lp2759
VPF07679
p2760
aVPF05790
p2761
aVPF00047
p2762
atRp2763
sI3320
g2
((lp2764
VPF02518
p2765
aVPF00183
p2766
atRp2767
sI12934394
g2
((lp2768
VPF00163
p2769
aVPF01479
p2770
atRp2771
sI29697275
g2
((lp2772
VPF00137
p2773
atRp2774
sI7421
g2
((lp2775
VPF00104
p2776
aVPF00105
p2777
atRp2778
sI7422
g2
((lp2779
VPF14554
p2780
aVPF00341
p2781
atRp2782
sI7423
g2
((lp2783
VPF00341
p2784
atRp2785
sI3309
g2
((lp2786
VPF00012
p2787
atRp2788
sI12934404
g2
((lp2789
VPF01000
p2790
aVPF01193
p2791
aVPF03118
p2792
atRp2793
sI4924679
g2
((lp2794
VPF00809
p2795
atRp2796
sI12934408
g2
((lp2797
VPF00410
p2798
atRp2799
sI4311
g2
((lp2800
VPF05649
p2801
aVPF01431
p2802
atRp2803
sI1250573
g2
((lp2804
VPF00573
p2805
atRp2806
sI2157
g2
((lp2807
VPF07732
p2808
aVPF07731
p2809
aVPF00394
p2810
aVPF00754
p2811
atRp2812
sI12932368
g2
((lp2813
VPF02875
p2814
aVPF08245
p2815
atRp2816
sI1250577
g2
((lp2817
VPF00237
p2818
atRp2819
sI7442
g2
((lp2820
VPF12796
p2821
aVPF00520
p2822
atRp2823
sI935189
g2
((lp2824
VPF14318
p2825
aVPF01728
p2826
aVPF12803
p2827
aVPF00946
p2828
atRp2829
sI3350
g2
((lp2830
VPF00001
p2831
atRp2832
sI217
g2
((lp2833
VPF00171
p2834
atRp2835
sI3352
g2
((lp2836
VPF00001
p2837
atRp2838
sI9497
g2
((lp2839
VPF07565
p2840
aVPF00955
p2841
atRp2842
sI877850
g2
((lp2843
VPF09102
p2844
aVPF09101
p2845
aVPF09009
p2846
atRp2847
sI3355
g2
((lp2848
VPF00001
p2849
atRp2850
sI3356
g2
((lp2851
VPF00001
p2852
atRp2853
sI3357
g2
((lp2854
VPF00001
p2855
atRp2856
sI3358
g2
((lp2857
VPF00001
p2858
atRp2859
sI1311
g2
((lp2860
VPF05735
p2861
aVPF07645
p2862
aVPF11598
p2863
aVPF02412
p2864
atRp2865
sI3360
g2
((lp2866
VPF00001
p2867
atRp2868
sI3361
g2
((lp2869
VPF00001
p2870
atRp2871
sI3362
g2
((lp2872
VPF00001
p2873
atRp2874
sI3363
g2
((lp2875
VPF00001
p2876
atRp2877
sI2950
g2
((lp2878
VPF14497
p2879
aVPF02798
p2880
atRp2881
sI1318
g2
((lp2882
VPF04145
p2883
atRp2884
sI5340
g2
((lp2885
VPF00051
p2886
aVPF00089
p2887
aVPF00024
p2888
atRp2889
sI945451
g2
((lp2890
VPF02875
p2891
aVPF08245
p2892
atRp2893
sI12934445
g2
((lp2894
VPF00416
p2895
atRp2896
sI5422
g2
((lp2897
VPF08996
p2898
aVPF12254
p2899
aVPF03104
p2900
aVPF00136
p2901
atRp2902
sI5423
g2
((lp2903
VPF14716
p2904
aVPF10391
p2905
aVPF14792
p2906
aVPF14791
p2907
atRp2908
sI64816
g2
((lp2909
VPF00067
p2910
atRp2911
sI54577
g2
((lp2912
VPF00201
p2913
atRp2914
sI54578
g2
((lp2915
VPF00201
p2916
atRp2917
sI2655541
g2
((lp2918
VPF00032
p2919
aVPF00033
p2920
atRp2921
sI1509
g2
((lp2922
VPF07966
p2923
aVPF00026
p2924
atRp2925
sI590
g2
((lp2926
VPF08674
p2927
aVPF00135
p2928
atRp2929
sI12931480
g2
((lp2930
VPF00849
p2931
aVPF01479
p2932
atRp2933
sI4924736
g2
((lp2934
VPF00809
p2935
atRp2936
sI2847485
g2
((lp2937
VPF00302
p2938
atRp2939
sI5446
g2
((lp2940
VPF01731
p2941
atRp2942
sI5447
g2
((lp2943
VPF00175
p2944
aVPF00258
p2945
aVPF00667
p2946
atRp2947
sI54600
g2
((lp2948
VPF00201
p2949
atRp2950
sI7498
g2
((lp2951
VPF03450
p2952
aVPF00941
p2953
aVPF01799
p2954
aVPF02738
p2955
aVPF01315
p2956
aVPF00111
p2957
atRp2958
sI567
g2
((lp2959
VPF07654
p2960
atRp2961
sI1356
g2
((lp2962
VPF07732
p2963
aVPF07731
p2964
aVPF00394
p2965
atRp2966
sI100507855
g2
((lp2967
VPF05191
p2968
atRp2969
sI5005
g2
((lp2970
VPF00061
p2971
atRp2972
sI9846098
g2
((lp2973
VPF00809
p2974
atRp2975
sI200931
g2
((lp2976
VPF03619
p2977
atRp2978
sI5460
g2
((lp2979
VPF00157
p2980
aVPF00046
p2981
atRp2982
sI7054
g2
((lp2983
VPF00351
p2984
aVPF12549
p2985
atRp2986
sI1593
g2
((lp2987
VPF00067
p2988
atRp2989
sI3416
g2
((lp2990
VPF00675
p2991
aVPF16187
p2992
aVPF05193
p2993
atRp2994
sI5465
g2
((lp2995
VPF00104
p2996
aVPF00105
p2997
atRp2998
sI5468
g2
((lp2999
VPF00104
p3000
aVPF00105
p3001
aVPF12577
p3002
atRp3003
sI285242
g2
((lp3004
VPF02932
p3005
aVPF02931
p3006
atRp3007
sI1374
g2
((lp3008
VPF16484
p3009
aVPF00755
p3010
atRp3011
sI5471
g2
((lp3012
VPF00156
p3013
atRp3014
sI886112
g2
((lp3015
VPF04602
p3016
aVPF14896
p3017
atRp3018
sI6715
g2
((lp3019
VPF02544
p3020
atRp3021
sI7525
g2
((lp3022
VPF00018
p3023
aVPF07714
p3024
aVPF00017
p3025
atRp3026
sI5478
g2
((lp3027
VPF00160
p3028
atRp3029
sI1385
g2
((lp3030
VPF02173
p3031
aVPF00170
p3032
atRp3033
sI886123
g2
((lp3034
VPF04602
p3035
aVPF14896
p3036
atRp3037
sI886126
g2
((lp3038
VPF04602
p3039
aVPF14896
p3040
atRp3041
sI29663938
g2
((lp3042
VPF00106
p3043
atRp3044
sI29488497
g2
((lp3045
VPF00573
p3046
atRp3047
sI146802
g2
((lp3048
VPF01554
p3049
atRp3050
sI6035
g2
((lp3051
VPF00074
p3052
atRp3053
sI9588
g2
((lp3054
VPF00578
p3055
aVPF10417
p3056
atRp3057
sI116085
g2
((lp3058
VPF00083
p3059
atRp3060
sI25974
g2
((lp3061
VPF16690
p3062
atRp3063
sI40
g2
((lp3064
VPF00858
p3065
atRp3066
sI3454
g2
((lp3067
VPF01108
p3068
aVPF09294
p3069
atRp3070
sI3455
g2
((lp3071
VPF01108
p3072
aVPF09294
p3073
atRp3074
sI54657
g2
((lp3075
VPF00201
p3076
atRp3077
sI54658
g2
((lp3078
VPF00201
p3079
atRp3080
sI3459
g2
((lp3081
VPF07140
p3082
aVPF01108
p3083
atRp3084
sI3460
g2
((lp3085
VPF01108
p3086
aVPF09294
p3087
atRp3088
sI18157747
g2
((lp3089
VPF00302
p3090
atRp3091
sI9607
g2
((lp3092
VPF06373
p3093
atRp3094
sI4246764
g2
((lp3095
VPF00809
p3096
atRp3097
sI12932492
g2
((lp3098
VPF00809
p3099
atRp3100
sI9453
g2
((lp3101
VPF00348
p3102
atRp3103
sI18157952
g2
((lp3104
VPF00302
p3105
atRp3106
sI5699
g2
((lp3107
VPF12465
p3108
aVPF00227
p3109
atRp3110
sI3480
g2
((lp3111
VPF01030
p3112
aVPF07714
p3113
aVPF00757
p3114
atRp3115
sI3482
g2
((lp3116
VPF00040
p3117
aVPF00878
p3118
atRp3119
sI9254
g2
((lp3120
VPF00092
p3121
aVPF08399
p3122
aVPF08473
p3123
atRp3124
sI1436
g2
((lp3125
VPF07714
p3126
aVPF00047
p3127
atRp3128
sI1438
g2
((lp3129
VPF09240
p3130
atRp3131
sI5535
g2
((lp3132
VPF13499
p3133
atRp3134
sI1441
g2
((lp3135
VPF00041
p3136
aVPF06328
p3137
atRp3138
sI3490
g2
((lp3139
VPF07679
p3140
aVPF00219
p3141
aVPF07648
p3142
atRp3143
sI120227
g2
((lp3144
VPF00067
p3145
atRp3146
sI85413
g2
((lp3147
VPF00083
p3148
atRp3149
sI855465
g2
((lp3150
VPF01288
p3151
aVPF02152
p3152
aVPF00809
p3153
atRp3154
sI1168814
g2
((lp3155
VPF00890
p3156
aVPF14537
p3157
atRp3158
sI7277
g2
((lp3159
VPF03953
p3160
aVPF00091
p3161
atRp3162
sI1457
g2
((lp3163
VPF00069
p3164
atRp3165
sI20491703
g2
((lp3166
VPF00302
p3167
atRp3168
sI12932537
g2
((lp3169
VPF01820
p3170
aVPF07478
p3171
atRp3172
sI5564
g2
((lp3173
VPF16561
p3174
aVPF04739
p3175
atRp3176
sI13905341
g2
((lp3177
VPF00809
p3178
atRp3179
sI20495808
g2
((lp3180
VPF00302
p3181
atRp3182
sI50632
g2
((lp3183
VPF06387
p3184
atRp3185
sI5578
g2
((lp3186
VPF00130
p3187
aVPF00168
p3188
aVPF00069
p3189
aVPF00433
p3190
atRp3191
sI5579
g2
((lp3192
VPF00130
p3193
aVPF00168
p3194
aVPF00069
p3195
aVPF00433
p3196
atRp3197
sI9123
g2
((lp3198
VPF07690
p3199
atRp3200
sI2638
g2
((lp3201
VPF00273
p3202
aVPF09164
p3203
atRp3204
sI5590
g2
((lp3205
VPF00130
p3206
aVPF00564
p3207
aVPF00069
p3208
aVPF00433
p3209
atRp3210
sI5591
g2
((lp3211
VPF02260
p3212
aVPF08163
p3213
aVPF02259
p3214
aVPF00454
p3215
atRp3216
sI5594
g2
((lp3217
VPF00069
p3218
atRp3219
sI1499
g2
((lp3220
VPF00514
p3221
atRp3222
sI13905373
g2
((lp3223
VPF00809
p3224
atRp3225
sI3551
g2
((lp3226
VPF12179
p3227
aVPF00069
p3228
atRp3229
sI3552
g2
((lp3230
VPF00340
p3231
aVPF02394
p3232
atRp3233
sI12930245
g2
((lp3234
VPF01274
p3235
atRp3236
sI760
g2
((lp3237
VPF00194
p3238
atRp3239
sI107986404
g2
((lp3240
VPF00175
p3241
aVPF00258
p3242
aVPF00667
p3243
atRp3244
sI5605
g2
((lp3245
VPF00069
p3246
atRp3247
sI3558
g2
((lp3248
VPF00715
p3249
atRp3250
sI3559
g2
((lp3251
VPF00084
p3252
atRp3253
sI5915
g2
((lp3254
VPF00104
p3255
aVPF00105
p3256
atRp3257
sI3561
g2
((lp3258
VPF09240
p3259
atRp3260
sI1132010
g2
((lp3261
VPF00809
p3262
atRp3263
sI3563
g2
((lp3264
VPF09240
p3265
atRp3266
sI947693
g2
((lp3267
VPF02113
p3268
atRp3269
sI12930543
g2
((lp3270
VPF02518
p3271
aVPF00986
p3272
aVPF00204
p3273
aVPF01751
p3274
atRp3275
sI3570
g2
((lp3276
VPF09240
p3277
aVPF00047
p3278
atRp3279
sI595
g2
((lp3280
VPF00134
p3281
aVPF02984
p3282
atRp3283
sI5621
g2
((lp3284
VPF00377
p3285
aVPF11587
p3286
atRp3287
sI94121
g2
((lp3288
VPF00168
p3289
aVPF02318
p3290
atRp3291
sI5625
g2
((lp3292
VPF01619
p3293
atRp3294
sI5627
g2
((lp3295
VPF00054
p3296
aVPF07645
p3297
aVPF00008
p3298
aVPF02210
p3299
aVPF00594
p3300
atRp3301
sI947814
g2
((lp3302
VPF07650
p3303
atRp3304
sI4552
g2
((lp3305
VPF00175
p3306
aVPF00258
p3307
aVPF00667
p3308
atRp3309
sI9734
g2
((lp3310
VPF00850
p3311
aVPF12203
p3312
atRp3313
sI1543
g2
((lp3314
VPF00067
p3315
atRp3316
sI1544
g2
((lp3317
VPF00067
p3318
atRp3319
sI1545
g2
((lp3320
VPF00067
p3321
atRp3322
sI2697
g2
((lp3323
VPF00029
p3324
aVPF03508
p3325
atRp3326
sI12932620
g2
((lp3327
VPF00164
p3328
atRp3329
sI5645
g2
((lp3330
VPF00089
p3331
atRp3332
sI1551
g2
((lp3333
VPF00067
p3334
atRp3335
sI1553
g2
((lp3336
VPF00067
p3337
atRp3338
sI2643
g2
((lp3339
VPF01227
p3340
atRp3341
sI374291
g2
((lp3342
VPF01058
p3343
atRp3344
sI1557
g2
((lp3345
VPF00067
p3346
atRp3347
sI206358
g2
((lp3348
VPF01490
p3349
atRp3350
sI13903449
g2
((lp3351
VPF00809
p3352
atRp3353
sI1250564
g2
((lp3354
VPF00164
p3355
atRp3356
sI1562
g2
((lp3357
VPF00067
p3358
atRp3359
sI3612
g2
((lp3360
VPF00459
p3361
atRp3362
sI1565
g2
((lp3363
VPF00067
p3364
atRp3365
sI3614
g2
((lp3366
VPF00478
p3367
aVPF00571
p3368
atRp3369
sI3615
g2
((lp3370
VPF00478
p3371
aVPF00571
p3372
atRp3373
sI12932643
g2
((lp3374
VPF00905
p3375
aVPF03717
p3376
atRp3377
sI6258
g2
((lp3378
VPF00104
p3379
aVPF00105
p3380
aVPF11825
p3381
atRp3382
sI1576
g2
((lp3383
VPF00067
p3384
atRp3385
sI1577
g2
((lp3386
VPF00067
p3387
atRp3388
sI1579
g2
((lp3389
VPF00067
p3390
atRp3391
sI1580
g2
((lp3392
VPF00067
p3393
atRp3394
sI1254957
g2
((lp3395
VPF07650
p3396
atRp3397
sI1254958
g2
((lp3398
VPF00237
p3399
atRp3400
sI1583
g2
((lp3401
VPF00067
p3402
atRp3403
sI1584
g2
((lp3404
VPF00067
p3405
atRp3406
sI1585
g2
((lp3407
VPF00067
p3408
atRp3409
sI1254962
g2
((lp3410
VPF00573
p3411
atRp3412
sI1588
g2
((lp3413
VPF00067
p3414
atRp3415
sI1589
g2
((lp3416
VPF00067
p3417
atRp3418
sI1591
g2
((lp3419
VPF00067
p3420
atRp3421
sI1592
g2
((lp3422
VPF00067
p3423
atRp3424
sI5689
g2
((lp3425
VPF00227
p3426
atRp3427
sI5690
g2
((lp3428
VPF00227
p3429
atRp3430
sI1254971
g2
((lp3431
VPF00164
p3432
atRp3433
sI100517436
g2
((lp3434
VPF02727
p3435
aVPF02728
p3436
aVPF01179
p3437
atRp3438
sI5693
g2
((lp3439
VPF00227
p3440
atRp3441
sI5696
g2
((lp3442
VPF00227
p3443
atRp3444
sI5698
g2
((lp3445
VPF00227
p3446
atRp3447
sI3339
g2
((lp3448
VPF07679
p3449
aVPF00057
p3450
aVPF00054
p3451
aVPF00052
p3452
aVPF00053
p3453
aVPF13895
p3454
aVPF00008
p3455
atRp3456
sI1604
g2
((lp3457
VPF00084
p3458
atRp3459
sI28231
g2
((lp3460
VPF03137
p3461
aVPF07648
p3462
atRp3463
sI28232
g2
((lp3464
VPF03137
p3465
aVPF07648
p3466
atRp3467
sI947569
g2
((lp3468
VPF02525
p3469
atRp3470
sI28234
g2
((lp3471
VPF03137
p3472
aVPF07648
p3473
atRp3474
sI5707
g2
((lp3475
VPF01851
p3476
atRp3477
sI5708
g2
((lp3478
VPF01851
p3479
atRp3480
sI947791
g2
((lp3481
VPF00416
p3482
atRp3483
sI24145
g2
((lp3484
VPF00876
p3485
atRp3486
sI947794
g2
((lp3487
VPF01000
p3488
aVPF01193
p3489
aVPF03118
p3490
atRp3491
sI5731
g2
((lp3492
VPF00001
p3493
atRp3494
sI947801
g2
((lp3495
VPF00253
p3496
atRp3497
sI947802
g2
((lp3498
VPF00410
p3499
atRp3500
sI3678
g2
((lp3501
VPF01839
p3502
aVPF08441
p3503
atRp3504
sI5733
g2
((lp3505
VPF00001
p3506
atRp3507
sI1633
g2
((lp3508
VPF01712
p3509
atRp3510
sI3683
g2
((lp3511
VPF00092
p3512
aVPF00357
p3513
aVPF08441
p3514
aVPF01839
p3515
atRp3516
sI1636
g2
((lp3517
VPF01401
p3518
atRp3519
sI3685
g2
((lp3520
VPF00357
p3521
aVPF08441
p3522
aVPF01839
p3523
atRp3524
sI5734
g2
((lp3525
VPF00001
p3526
atRp3527
sI3688
g2
((lp3528
VPF07974
p3529
aVPF00362
p3530
aVPF07965
p3531
aVPF17205
p3532
aVPF08725
p3533
atRp3534
sI3689
g2
((lp3535
VPF00362
p3536
aVPF07965
p3537
aVPF17205
p3538
aVPF08725
p3539
atRp3540
sI3690
g2
((lp3541
VPF07974
p3542
aVPF00362
p3543
aVPF07965
p3544
aVPF17205
p3545
aVPF08725
p3546
atRp3547
sI5739
g2
((lp3548
VPF00001
p3549
atRp3550
sI1644
g2
((lp3551
VPF00282
p3552
atRp3553
sI1645
g2
((lp3554
VPF00248
p3555
atRp3556
sI5742
g2
((lp3557
VPF03098
p3558
aVPF00008
p3559
atRp3560
sI5053
g2
((lp3561
VPF01842
p3562
aVPF00351
p3563
atRp3564
sI1555
g2
((lp3565
VPF00067
p3566
atRp3567
sI153201
g2
((lp3568
VPF01490
p3569
atRp3570
sI9780852
g2
((lp3571
VPF05922
p3572
aVPF00082
p3573
atRp3574
sI3702
g2
((lp3575
VPF00018
p3576
aVPF00169
p3577
aVPF07714
p3578
aVPF00017
p3579
aVPF00779
p3580
atRp3581
sI5737
g2
((lp3582
VPF00001
p3583
atRp3584
sI6329
g2
((lp3585
VPF00520
p3586
aVPF06512
p3587
atRp3588
sI3557
g2
((lp3589
VPF00340
p3590
atRp3591
sI13874812
g2
((lp3592
VPF07827
p3593
atRp3594
sI947818
g2
((lp3595
VPF00573
p3596
atRp3597
sI3710
g2
((lp3598
VPF08709
p3599
aVPF00520
p3600
aVPF08454
p3601
aVPF02815
p3602
aVPF01365
p3603
atRp3604
sI338442
g2
((lp3605
VPF00001
p3606
atRp3607
sI947845
g2
((lp3608
VPF00164
p3609
atRp3610
sI947846
g2
((lp3611
VPF00177
p3612
atRp3613
sI3351
g2
((lp3614
VPF00001
p3615
atRp3616
sI3725
g2
((lp3617
VPF00170
p3618
aVPF03957
p3619
atRp3620
sI81551
g2
((lp3621
VPF00836
p3622
atRp3623
sI7448
g2
((lp3624
VPF01033
p3625
aVPF00045
p3626
atRp3627
sI1147
g2
((lp3628
VPF12179
p3629
aVPF00069
p3630
atRp3631
sI1646
g2
((lp3632
VPF00248
p3633
atRp3634
sI947907
g2
((lp3635
VPF17092
p3636
aVPF00905
p3637
aVPF00912
p3638
atRp3639
sI7449
g2
((lp3640
VPF00357
p3641
aVPF08441
p3642
aVPF01839
p3643
atRp3644
sI3736
g2
((lp3645
VPF00520
p3646
aVPF02214
p3647
atRp3648
sI5743
g2
((lp3649
VPF03098
p3650
aVPF00008
p3651
atRp3652
sI3354
g2
((lp3653
VPF00001
p3654
atRp3655
sI5791
g2
((lp3656
VPF00102
p3657
atRp3658
sI4720
g2
((lp3659
VPF00346
p3660
atRp3661
sI7846
g2
((lp3662
VPF03953
p3663
aVPF00091
p3664
atRp3665
sI5745
g2
((lp3666
VPF02793
p3667
aVPF00002
p3668
atRp3669
sI3752
g2
((lp3670
VPF11601
p3671
aVPF00520
p3672
aVPF11879
p3673
aVPF02214
p3674
atRp3675
sI3753
g2
((lp3676
VPF02060
p3677
atRp3678
sI5802
g2
((lp3679
VPF00041
p3680
aVPF07679
p3681
aVPF00102
p3682
atRp3683
sI7852
g2
((lp3684
VPF00001
p3685
aVPF12109
p3686
atRp3687
sI3757
g2
((lp3688
VPF00520
p3689
aVPF00027
p3690
aVPF13426
p3691
atRp3692
sI3758
g2
((lp3693
VPF01007
p3694
atRp3695
sI3760
g2
((lp3696
VPF01007
p3697
atRp3698
sI3762
g2
((lp3699
VPF01007
p3700
atRp3701
sI5951155
g2
((lp3702
VPF01636
p3703
atRp3704
sI3764
g2
((lp3705
VPF01007
p3706
atRp3707
sI3765
g2
((lp3708
VPF01007
p3709
atRp3710
sI1193654
g2
((lp3711
VPF02357
p3712
aVPF00467
p3713
aVPF07009
p3714
atRp3715
sI3767
g2
((lp3716
VPF01007
p3717
atRp3718
sI4594
g2
((lp3719
VPF01642
p3720
aVPF02310
p3721
atRp3722
sI3359
g2
((lp3723
VPF02932
p3724
aVPF02931
p3725
atRp3726
sI3167932
g2
((lp3727
VPF00338
p3728
atRp3729
sI3775
g2
((lp3730
VPF07885
p3731
atRp3732
sI1728
g2
((lp3733
VPF02525
p3734
atRp3735
sI1312
g2
((lp3736
VPF01596
p3737
atRp3738
sI3778
g2
((lp3739
VPF00520
p3740
aVPF03493
p3741
atRp3742
sI3779
g2
((lp3743
VPF03185
p3744
atRp3745
sI3780
g2
((lp3746
VPF03530
p3747
aVPF07885
p3748
aVPF02888
p3749
atRp3750
sI3781
g2
((lp3751
VPF03530
p3752
aVPF07885
p3753
aVPF02888
p3754
atRp3755
sI3782
g2
((lp3756
VPF03530
p3757
aVPF07885
p3758
aVPF02888
p3759
atRp3760
sI3783
g2
((lp3761
VPF03530
p3762
aVPF07885
p3763
aVPF02888
p3764
atRp3765
sI3784
g2
((lp3766
VPF00520
p3767
aVPF03520
p3768
atRp3769
sI3785
g2
((lp3770
VPF11956
p3771
aVPF00520
p3772
aVPF03520
p3773
atRp3774
sI3786
g2
((lp3775
VPF11956
p3776
aVPF00520
p3777
aVPF03520
p3778
atRp3779
sI3796683
g2
((lp3780
VPF00237
p3781
atRp3782
sI5837
g2
((lp3783
VPF00343
p3784
atRp3785
sI3796687
g2
((lp3786
VPF00573
p3787
atRp3788
sI134864
g2
((lp3789
VPF00001
p3790
atRp3791
sI6777
g2
((lp3792
VPF01017
p3793
aVPF02865
p3794
aVPF00017
p3795
aVPF02864
p3796
atRp3797
sI116443
g2
((lp3798
VPF10613
p3799
aVPF00060
p3800
atRp3801
sI116444
g2
((lp3802
VPF10613
p3803
aVPF00060
p3804
atRp3805
sI57053
g2
((lp3806
VPF02932
p3807
aVPF02931
p3808
atRp3809
sI116447
g2
((lp3810
VPF01028
p3811
aVPF02919
p3812
aVPF14370
p3813
atRp3814
sI4048
g2
((lp3815
VPF09127
p3816
aVPF01433
p3817
atRp3818
sI3815
g2
((lp3819
VPF07714
p3820
aVPF00047
p3821
atRp3822
sI89832
g2
((lp3823
VPF02932
p3824
aVPF02931
p3825
atRp3826
sI7915
g2
((lp3827
VPF00171
p3828
atRp3829
sI6401
g2
((lp3830
VPF00084
p3831
aVPF00008
p3832
aVPF00059
p3833
atRp3834
sI56934
g2
((lp3835
VPF00194
p3836
atRp3837
sI7919
g2
((lp3838
VPF00270
p3839
aVPF00271
p3840
atRp3841
sI945455
g2
((lp3842
VPF07943
p3843
aVPF00768
p3844
atRp3845
sI222962
g2
((lp3846
VPF01733
p3847
atRp3848
sI7015
g2
((lp3849
VPF00078
p3850
aVPF12009
p3851
atRp3852
sI548596
g2
((lp3853
VPF00217
p3854
aVPF02807
p3855
atRp3856
sI89845
g2
((lp3857
VPF00005
p3858
aVPF00664
p3859
atRp3860
sI5880
g2
((lp3861
VPF00071
p3862
atRp3863
sI9900
g2
((lp3864
VPF13599
p3865
aVPF07690
p3866
aVPF00083
p3867
atRp3868
sI1786
g2
((lp3869
VPF01426
p3870
aVPF02008
p3871
aVPF12047
p3872
aVPF00145
p3873
aVPF06464
p3874
atRp3875
sI50940
g2
((lp3876
VPF01590
p3877
aVPF00233
p3878
atRp3879
sI3577
g2
((lp3880
VPF00001
p3881
atRp3882
sI196
g2
((lp3883
VPF08447
p3884
aVPF00010
p3885
aVPF00989
p3886
atRp3887
sI5894
g2
((lp3888
VPF00130
p3889
aVPF02196
p3890
aVPF07714
p3891
atRp3892
sI1800
g2
((lp3893
VPF01244
p3894
atRp3895
sI1803
g2
((lp3896
VPF00930
p3897
aVPF00326
p3898
atRp3899
sI2690
g2
((lp3900
VPF00041
p3901
aVPF12772
p3902
aVPF09067
p3903
atRp3904
sI1806
g2
((lp3905
VPF07992
p3906
aVPF14691
p3907
aVPF01180
p3908
atRp3909
sI3855
g2
((lp3910
VPF00038
p3911
aVPF16208
p3912
atRp3913
sI1594
g2
((lp3914
VPF00067
p3915
atRp3916
sI5243
g2
((lp3917
VPF00005
p3918
aVPF00664
p3919
atRp3920
sI1812
g2
((lp3921
VPF00001
p3922
atRp3923
sI2350
g2
((lp3924
VPF03024
p3925
atRp3926
sI1814
g2
((lp3927
VPF00001
p3928
atRp3929
sI1815
g2
((lp3930
VPF00001
p3931
atRp3932
sI1816
g2
((lp3933
VPF00001
p3934
atRp3935
sI462
g2
((lp3936
VPF00079
p3937
atRp3938
sI5914
g2
((lp3939
VPF00104
p3940
aVPF00105
p3941
atRp3942
sI54575
g2
((lp3943
VPF00201
p3944
atRp3945
sI79644
g2
((lp3946
VPF02544
p3947
atRp3948
sI10013
g2
((lp3949
VPF02148
p3950
aVPF00850
p3951
atRp3952
sI5918
g2
((lp3953
VPF06907
p3954
atRp3955
sI10544
g2
((lp3956
VPF16497
p3957
atRp3958
sI3399458
g2
((lp3959
VPF00809
p3960
atRp3961
sI10019
g2
((lp3962
VPF08916
p3963
aVPF00169
p3964
aVPF00017
p3965
atRp3966
sI5925
g2
((lp3967
VPF01858
p3968
aVPF11934
p3969
aVPF08934
p3970
aVPF01857
p3971
atRp3972
sI878374
g2
((lp3973
VPF00132
p3974
atRp3975
sI6403
g2
((lp3976
VPF00084
p3977
aVPF00059
p3978
atRp3979
sI30330666
g2
((lp3980
VPF07650
p3981
atRp3982
sI947816
g2
((lp3983
VPF00338
p3984
atRp3985
sI8854
g2
((lp3986
VPF00171
p3987
atRp3988
sI12934450
g2
((lp3989
VPF00253
p3990
atRp3991
sI377677
g2
((lp3992
VPF00194
p3993
atRp3994
sI10038
g2
((lp3995
VPF02877
p3996
aVPF00644
p3997
aVPF05406
p3998
atRp3999
sI8841
g2
((lp4000
VPF00850
p4001
atRp4002
sI8001
g2
((lp4003
VPF02932
p4004
aVPF02931
p4005
atRp4006
sI887777
g2
((lp4007
VPF00186
p4008
atRp4009
sI10057
g2
((lp4010
VPF00005
p4011
aVPF00664
p4012
atRp4013
sI10060
g2
((lp4014
VPF00005
p4015
aVPF00664
p4016
atRp4017
sI3763
g2
((lp4018
VPF01007
p4019
atRp4020
sI29458256
g2
((lp4021
VPF00380
p4022
atRp4023
sI946003
g2
((lp4024
VPF08545
p4025
aVPF08541
p4026
atRp4027
sI5972
g2
((lp4028
VPF07966
p4029
aVPF00026
p4030
atRp4031
sI944843
g2
((lp4032
VPF00905
p4033
aVPF14814
p4034
aVPF00912
p4035
aVPF14812
p4036
atRp4037
sI5775
g2
((lp4038
VPF00373
p4039
aVPF09380
p4040
aVPF00595
p4041
aVPF09379
p4042
aVPF08736
p4043
aVPF00102
p4044
atRp4045
sI3932
g2
((lp4046
VPF00018
p4047
aVPF07714
p4048
aVPF00017
p4049
atRp4050
sI8029
g2
((lp4051
VPF07645
p4052
aVPF12947
p4053
aVPF00008
p4054
aVPF00431
p4055
atRp4056
sI1890
g2
((lp4057
VPF07831
p4058
aVPF00591
p4059
aVPF02885
p4060
atRp4061
sI3939
g2
((lp4062
VPF00056
p4063
aVPF02866
p4064
atRp4065
sI12932682
g2
((lp4066
VPF01558
p4067
aVPF02775
p4068
aVPF10371
p4069
aVPF01855
p4070
aVPF17147
p4071
atRp4072
sI12930918
g2
((lp4073
VPF00905
p4074
aVPF03717
p4075
atRp4076
sI316
g2
((lp4077
VPF03450
p4078
aVPF00941
p4079
aVPF01799
p4080
aVPF02738
p4081
aVPF01315
p4082
aVPF00111
p4083
atRp4084
sI2887532
g2
((lp4085
VPF00067
p4086
atRp4087
sI1909
g2
((lp4088
VPF00001
p4089
atRp4090
sI1910
g2
((lp4091
VPF00001
p4092
atRp4093
sI10105
g2
((lp4094
VPF00160
p4095
atRp4096
sI51067
g2
((lp4097
VPF00579
p4098
atRp4099
sI8170
g2
((lp4100
VPF03253
p4101
atRp4102
sI151531
g2
((lp4103
VPF01048
p4104
atRp4105
sI4758
g2
((lp4106
VPF13088
p4107
atRp4108
sI59272
g2
((lp4109
VPF16959
p4110
aVPF01401
p4111
atRp4112
sI3978
g2
((lp4113
VPF04679
p4114
aVPF01068
p4115
aVPF04675
p4116
atRp4117
sI3980
g2
((lp4118
VPF16759
p4119
aVPF00645
p4120
aVPF04679
p4121
aVPF01068
p4122
aVPF04675
p4123
atRp4124
sI7872397
g2
((lp4125
VPF00809
p4126
atRp4127
sI5443
g2
((lp4128
VPF08384
p4129
aVPF00976
p4130
aVPF08035
p4131
atRp4132
sI200959
g2
((lp4133
VPF02932
p4134
aVPF02931
p4135
atRp4136
sI7872406
g2
((lp4137
VPF01636
p4138
atRp4139
sI3554
g2
((lp4140
VPF13895
p4141
aVPF01582
p4142
aVPF07679
p4143
atRp4144
sI4924744
g2
((lp4145
VPF00302
p4146
atRp4147
sI105369243
g2
((lp4148
VPF00685
p4149
atRp4150
sI1956
g2
((lp4151
VPF01030
p4152
aVPF07714
p4153
aVPF00757
p4154
aVPF14843
p4155
atRp4156
sI9817
g2
((lp4157
VPF01344
p4158
aVPF07707
p4159
aVPF00651
p4160
atRp4161
sI1595
g2
((lp4162
VPF00067
p4163
atRp4164
sI4907
g2
((lp4165
VPF00149
p4166
aVPF02872
p4167
atRp4168
sI888177
g2
((lp4169
VPF04983
p4170
aVPF04997
p4171
aVPF05000
p4172
aVPF00623
p4173
aVPF04998
p4174
atRp4175
sI1969
g2
((lp4176
VPF00041
p4177
aVPF14575
p4178
aVPF01404
p4179
aVPF00536
p4180
aVPF07714
p4181
atRp4182
sI2618
g2
((lp4183
VPF02769
p4184
aVPF00551
p4185
aVPF02844
p4186
aVPF02843
p4187
aVPF00586
p4188
aVPF01071
p4189
atRp4190
sI11251
g2
((lp4191
VPF00001
p4192
atRp4193
sI12930997
g2
((lp4194
VPF00881
p4195
atRp4196
sI950199
g2
((lp4197
VPF03989
p4198
aVPF00521
p4199
atRp4200
sI6817
g2
((lp4201
VPF00685
p4202
atRp4203
sI1493
g2
((lp4204
VPF07686
p4205
atRp4206
sI53919
g2
((lp4207
VPF03137
p4208
aVPF07648
p4209
atRp4210
sI4999104
g2
((lp4211
VPF00809
p4212
atRp4213
sI57282
g2
((lp4214
VPF07565
p4215
aVPF00955
p4216
atRp4217
sI945483
g2
((lp4218
VPF00881
p4219
atRp4220
sI4036
g2
((lp4221
VPF00057
p4222
aVPF07645
p4223
aVPF12662
p4224
aVPF00058
p4225
atRp4226
sI1991
g2
((lp4227
VPF00089
p4228
atRp4229
sI5732
g2
((lp4230
VPF00001
p4231
atRp4232
sI8140
g2
((lp4233
VPF13520
p4234
atRp4235
sI12931799
g2
((lp4236
VPF02801
p4237
aVPF00109
p4238
atRp4239
sI6545
g2
((lp4240
VPF13906
p4241
aVPF13520
p4242
atRp4243
sI4049
g2
((lp4244
VPF00229
p4245
atRp4246
sI947813
g2
((lp4247
VPF00237
p4248
atRp4249
sI12934478
g2
((lp4250
VPF10385
p4251
aVPF04563
p4252
aVPF04560
p4253
aVPF04561
p4254
aVPF00562
p4255
aVPF04565
p4256
atRp4257
sI3065
g2
((lp4258
VPF00850
p4259
atRp4260
sI55256
g2
((lp4261
VPF03079
p4262
atRp4263
sI13905882
g2
((lp4264
VPF00809
p4265
atRp4266
sI10203
g2
((lp4267
VPF02793
p4268
aVPF00002
p4269
atRp4270
sI3613
g2
((lp4271
VPF00459
p4272
atRp4273
sI940002
g2
((lp4274
VPF03989
p4275
aVPF00521
p4276
atRp4277
sI1019
g2
((lp4278
VPF00069
p4279
atRp4280
sI7364
g2
((lp4281
VPF00201
p4282
atRp4283
sI4069
g2
((lp4284
VPF00062
p4285
atRp4286
sI51174
g2
((lp4287
VPF00091
p4288
atRp4289
sI51175
g2
((lp4290
VPF03953
p4291
aVPF00091
p4292
atRp4293
sI5618
g2
((lp4294
VPF09067
p4295
atRp4296
sI7157738
g2
((lp4297
VPF07650
p4298
atRp4299
sI3751
g2
((lp4300
VPF11601
p4301
aVPF00520
p4302
aVPF11879
p4303
aVPF02214
p4304
atRp4305
sI12934482
g2
((lp4306
VPF08676
p4307
aVPF01119
p4308
atRp4309
sI2030
g2
((lp4310
VPF01733
p4311
atRp4312
sI7157745
g2
((lp4313
VPF00573
p4314
atRp4315
sI1363
g2
((lp4316
VPF00246
p4317
atRp4318
sI7283
g2
((lp4319
VPF03953
p4320
aVPF00091
p4321
atRp4322
sI6751
g2
((lp4323
VPF00001
p4324
atRp4325
sI5319
g2
((lp4326
VPF00068
p4327
atRp4328
sI2182
g2
((lp4329
VPF00501
p4330
atRp4331
s.