(dp1
VDCC0081
p2
VCN(C)CC[C@@H](C1=CC=C(Br)C=C1)C1=CC=CC=N1
p3
sVDCC0777
p4
VCN(C1=CC2=NN(C)C(C)=C2C=C1)C1=CC=NC(NC2=CC=C(C)C(=C2)S(N)(=O)=O)=N1
p5
sVDCC1515
p6
VCNCCCN1C2=CC=CC=C2CCC2=CC=CC=C12
p7
sVDCC0099
p8
VOC(=O)CC1(CC1)CS[C@H](CCC1=CC=CC=C1C(O)(C)C)C1=CC=CC(\u005cC=C\u005cC2=NC3=C(C=CC(Cl)=C3)C=C2)=C1
p9
sVDCC1400
p10
VCCOC(=O)C1=CN=C(C=C1)C#CC1=CC2=C(SCCC2(C)C)C=C1
p11
sVDCC1459
p12
VCN1CCCC(CC1)N1N=C(CC2=CC=C(Cl)C=C2)C2=CC=CC=C2C1=O
p13
sVDCC1450
p14
V[H][C@@]12CC[C@H](O)[C@@]1(C)CC[C@@]1([H])C2[C@H](CCCCCCCCCS(=O)CCCC(F)(F)C(F)(F)F)CC2=CC(O)=CC=C12
p15
sVDCC1453
p16
VCCN[C@@H]1C[C@H](N)[C@@H](O[C@H]2OC(CN)=CC[C@H]2N)[C@H](O)[C@H]1O[C@H]1OC[C@H](O)[C@@H](NC)[C@@]1(C)O
p17
sVDCC1455
p18
VCC(C)NCC(O)COC1=CC=CC2=C1C=CN2
p19
sVDCC1454
p20
V[H][C@@]12CC[C@](O)(C(=O)CO)[C@@]1(C)C[C@H](O)[C@@]1([H])[C@@]2([H])C[C@H](C)C2=CC(=O)C=C[C@]12C
p21
sVDCC1489
p22
VCOC(=O)N[C@H](C(=O)N[C@@H](CC1=CC=CC=C1)[C@@H](O)CN(CC1=CC=C(C=C1)C1=CC=CC=N1)NC(=O)[C@@H](NC(=O)OC)C(C)(C)C)C(C)(C)C
p23
sVDCC1498
p24
V[H][C@@]1(CC[C@@]([H])(C2=CC(Cl)=C(Cl)C=C2)C2=CC=CC=C12)NC
p25
sVDCC1218
p26
VClC1=C(CCN2CCN(CC2)C2=NSC3=CC=CC=C23)C=C2CC(=O)NC2=C1
p27
sVDCC0070
p28
V[H][C@@]12CC[C@@](O)(C#C)[C@@]1(CC)CC[C@]1([H])[C@@]3([H])CCC(=O)C=C3CC[C@@]21[H]
p29
sVDCC0071
p30
VCCCC(C)(COC(N)=O)COC(N)=O
p31
sVDCC0072
p32
VCC(C)(C)NCC(O)COC1=NSN=C1N1CCOCC1
p33
sVDCC0073
p34
VCCOC(=O)C1=C(COCCN)NC(C)=C(C1C1=CC=CC=C1Cl)C(=O)OC
p35
sVDCC0074
p36
VNC1=NC(N)=C2N=C(C(N)=NC2=N1)C1=CC=CC=C1
p37
sVDCC0075
p38
VCNC[C@H](O)C1=CC(O)=CC=C1
p39
sVDCC0076
p40
VCOCCOC(=O)C1=C(C)NC(C)=C(C1C1=CC(=CC=C1)[N+]([O-])=O)C(=O)OC(C)C
p41
sVDCC0077
p42
V[H][C@@]12C[C@H](C)[C@](OC(=O)CC)(C(=O)COC(=O)CC)[C@@]1(C)C[C@H](O)[C@@]1(Cl)[C@@]2([H])CCC2=CC(=O)C=C[C@]12C
p43
sVDCC1855
p44
VCC1=CC(C)=NC(NS(=O)(=O)C2=CC=C(N)C=C2)=N1
p45
sVDCC0079
p46
VCNC(=O)C1=NC=CC(OC2=CC=C(NC(=O)NC3=CC(=C(Cl)C=C3)C(F)(F)F)C=C2)=C1
p47
sVDCC1857
p48
V[H][C@@]12CN(C[C@]1([H])[C@H]2N)C1=NC2=C(C=C1F)C(=O)C(=CN2C1=C(F)C=C(F)C=C1)C(O)=O
p49
sVDCC0723
p50
VCOC1=CC2=C(C=C1OCCCN1CCCC1)N=CN=C2OC1=C(F)C2=C(NC(C)=C2)C=C1
p51
sVDCC1851
p52
V[H][C@@]12CCCN1C(=O)[C@@H](CC)NC(=O)[C@@H](NC(=O)C1=NC=CC=C1O)[C@@H](C)OC(=O)[C@@H](NC(=O)[C@]1([H])CC(=O)[C@]([H])(CS[C@@H]3CN4CCC3CC4)CN1C(=O)[C@H](CC1=CC=C(C=C1)N(C)C)N(C)C2=O)C1=CC=CC=C1
p53
sVDCC1850
p54
VCCC1NC(=O)C2=CC(=C(Cl)C=C2N1)S(N)(=O)=O
p55
sVDCC1852
p56
V[H][C@]12C[C@@H](OC(=O)C3=CC(OC)=C(OC)C(OC)=C3)[C@H](OC)[C@@H](C(=O)OC)[C@@]1([H])C[C@@]1([H])N(CCC3=C1NC1=C3C=CC(OC)=C1)C2
p57
sVDCC1637
p58
V[H][C@@](CCN1[C@@]2([H])CC[C@]1([H])C[C@]([H])(C2)N1C(C)=NN=C1C(C)C)(N=C(O)C1CCC(F)(F)CC1)C1=CC=CC=C1
p59
sVDCC1639
p60
V[H][C@]12C[C@H](NC(=O)C[C@H](O)C(C)(C)C(=O)[C@H](C)[C@@H](O)[C@@H](C)CCC[C@@]1(C)O2)C(\u005cC)=C\u005cC1=CSC(C)=N1
p61
sVDCC0351
p62
VCC(C)[C@H](N1CCCNC1=O)C(=O)N[C@H](C[C@H](O)[C@H](CC1=CC=CC=C1)NC(=O)COC1=C(C)C=CC=C1C)CC1=CC=CC=C1
p63
sVDCC0350
p64
V[H][C@]12CC(SCC\u005cN=C\u005cN)=C(N1C(=O)[C@]2([H])[C@@H](C)O)C(O)=O
p65
sVDCC0353
p66
V[H][C@]12SC(C)(C)[C@@H](N1C(=O)[C@H]2NC(=O)[C@H](C(O)=O)C1=CSC=C1)C(O)=O
p67
sVDCC0352
p68
V[H][C@@]12CC(=O)N1[C@@H](C(O)=O)[C@](C)(CN1C=CN=N1)S2(=O)=O
p69
sVDCC1208
p70
V[H][C@]12CN(C[C@@]1([H])NCCC2)C1=C(F)C=C2C(=O)C(=CN(C3CC3)C2=C1OC)C(O)=O
p71
sVDCC1209
p72
V[H][C@@]12CCCC[C@]1([H])CN(C[C@@H](O)[C@H](CSC1=CC=CC=C1)NC(=O)C1=C(C)C(O)=CC=C1)[C@@H](C2)C(=O)NC(C)(C)C
p73
sVDCC0357
p74
VCC1=CC2=C(C=C1C1(CC1)C1=CC=C(C=N1)C(O)=O)C(C)(C)CCC2(C)C
p75
sVDCC0210
p76
VCN(C)CCC(C1=CC=C(Br)C=C1)C1=CC=CC=N1
p77
sVDCC0358
p78
VO[C@H](\u005cC=C\u005c[C@@H](C)[C@@]1([H])CC[C@@]2([H])\u005cC(CCC[C@]12C)=C\u005cC=C1\u005cC[C@@H](O)C[C@H](O)C1=C)C1CC1
p79
sVDCC0212
p80
VCC(C)N=C1C=C2N(C3=CC=C(Cl)C=C3)C3=C(C=CC=C3)N=C2C=C1NC1=CC=C(Cl)C=C1
p81
sVDCC1207
p82
VCN(C)CCCC1(OCC2=C1C=CC(=C2)C#N)C1=CC=C(F)C=C1
p83
sVDCC0214
p84
VCN[C@@H](C)[C@@H](O)C1=CC=CC=C1
p85
sVDCC0215
p86
VCN1N=NC2=C(N=CN2C1=O)C(N)=O
p87
sVDCC0216
p88
V[H][C@@]12CC[C@](O)(C(=O)CO)[C@@]1(C)C[C@H](O)[C@@]1([H])[C@@]2([H])CCC2=CC(=O)C=C[C@]12C
p89
sVDCC1203
p90
VClC1=CC=CC=C1CN1CCC2=C(C1)C=CS2
p91
sVDCC0452
p92
V[Cl-].CN(C)C1=CC2=[S+]C3=C(C=CC(=C3)N(C)C)N=C2C=C1
p93
sVDCC0283
p94
VCCOC(=O)C1=C(C)NC(C)=C(C1C1=CC(=CC=C1)[N+]([O-])=O)C(=O)OC
p95
sVDCC0282
p96
VCC(C)CC1=CC=C(C=C1)C(C)C(O)=O
p97
sVDCC0281
p98
VNC1=NC2=C(N=CN2[C@@H]2C[C@H](CO)C=C2)C(NC2CC2)=N1
p99
sVDCC0280
p100
VCO[C@H]1\u005cC=C\u005cO[C@@]2(C)OC3=C(C2=O)C2=C(O)C(\u005cC=N\u005cN4CCN(C)CC4)=C(NC(=O)\u005cC(C)=C/C=C/[C@H](C)[C@H](O)[C@@H](C)[C@@H](O)[C@@H](C)[C@H](OC(C)=O)[C@@H]1C)C(O)=C2C(O)=C3C
p101
sVDCC1684
p102
V[H][C@]12SCC(SC3=NC(=CS3)C3=CC=[N+](C)C=C3)=C(N1C(=O)[C@H]2NC(=O)C(=N/OCC)\u005cC1=NSC(NP(O)(O)=O)=N1)C([O-])=O
p103
sVDCC0286
p104
VCC1=CN=C(C=N1)C(=O)NCCC1=CC=C(C=C1)S(=O)(=O)NC(=O)NC1CCCCC1
p105
sVDCC1686
p106
VCOC1=CC=C(C=C1)N1N=C(C(N)=O)C2=C1C(=O)N(CC2)C1=CC=C(C=C1)N1CCCCC1=O
p107
sVDCC0284
p108
VO=C(C1CCCCC1)N1CC2N(CCC3=CC=CC=C23)C(=O)C1
p109
sVDCC0289
p110
VCN(C)CCOC(C1=CC=CC=C1)C1=CC=CC=C1
p111
sVDCC0288
p112
VNC1=NC(F)=NC2=C1N=CN2[C@@H]1O[C@H](CO)[C@@H](O)[C@@H]1O
p113
sVDCC1199
p114
VCC(C)(N)CC1=CC=CC=C1
p115
sVDCC0421
p116
VOC12CC3CC(C1)CC(C3)(C2)NCC(=O)N1CCC[C@H]1C#N
p117
sVDCC0850
p118
VCC(=O)OC1=CC=C(C=C1)C(C1=CC=C(OC(C)=O)C=C1)C1=CC=CC=N1
p119
sVDCC1702
p120
VC[C@@H](O[C@H]1OCCN(CC2=NC(=O)N(N2)P(O)(O)=O)[C@H]1C1=CC=C(F)C=C1)C1=CC(=CC(=C1)C(F)(F)F)C(F)(F)F
p121
sVDCC1705
p122
V[Ca++].[O-]C([O-])=O
p123
sVDCC1704
p124
V[OH-].[OH-].[OH-].[Al+3]
p125
sVDCC1707
p126
V[H][C@@](O)([C@@H](NC(=O)OC(C)(C)C)C1=CC=CC=C1)C(=O)O[C@@]1([H])C[C@@]2(O)[C@@]([H])(OC(=O)C3=CC=CC=C3)[C@]3([H])[C@@]4(CO[C@]4([H])C[C@]([H])(OC)[C@@]3(C)C(=O)[C@]([H])(OC)C(=C1C)C2(C)C)OC(C)=O
p127
sVDCC1424
p128
VCCN(CC)CCOC1=CC=C(C=C1)C(=C(Cl)C1=CC=CC=C1)C1=CC=CC=C1
p129
sVDCC1425
p130
VOC(CC1=CN=CC=C1)(P(O)(O)=O)P(O)(O)=O
p131
sVDCC1338
p132
VNC1=C2N=CN([C@@H]3O[C@H](CO)[C@@H](O)[C@H]3O)C2=NC=N1
p133
sVDCC1339
p134
VCOC(=O)NC1=NC2=C(N1)C=C(C=C2)C(=O)C1=CC=CC=C1
p135
sVDCC1666
p136
VCC(=O)OC1=CC2=C(CCN(C2)C(C(=O)C2CC2)C2=CC=CC=C2F)S1
p137
sVDCC1330
p138
VCO[C@H]1C[C@@H](O[C@@H](C)[C@@H]1O)O[C@H]1[C@H](C)O[C@H](C[C@@H]1OC)O[C@H]1[C@@H](C)\u005cC=C\u005cC=C2/CO[C@@H]3[C@H](O)C(C)=C[C@@H](C(=O)O[C@H]4C[C@@H](C\u005cC=C1/C)O[C@@]1(CC[C@H](C)[C@@H](C(C)C)O1)C4)[C@]23O.CC[C@@H](C)[C@H]1O[C@@]2(CC[C@@H]1C)O[C@@H]1C\u005cC=C(C)\u005c[C@@
p139
sVDCC1332
p140
V[H][C@]12SC(C)(C)[C@@H](N1C(=O)[C@H]2NC(=O)C1=C(OCC)C=CC2=CC=CC=C12)C(O)=O
p141
sVDCC1333
p142
VCCN(CC)CCCC(C)NC1=C2C=CC(Cl)=CC2=NC=C1
p143
sVDCC1334
p144
V[O-][N+](=O)C1=CC=C(O1)C=NN1CCOC1=O
p145
sVDCC1335
p146
V[H][C@@]12CC[C@](C)(O)[C@@]1(C)CC[C@@]1([H])[C@@]2([H])CCC2=CC(=O)CC[C@]12C
p147
sVDCC1336
p148
VNCCCC(O)(P(O)(O)=O)P(O)(O)=O
p149
sVDCC0034
p150
VN[C@@H]1CONC1=O
p151
sVDCC0035
p152
VCC1=NOC(NS(=O)(=O)C2=CC=C(N)C=C2)=C1C
p153
sVDCC0036
p154
VCOCCC1=CC=C(OCC(O)CNC(C)C)C=C1
p155
sVDCC1812
p156
VCN(C)CCOC(C1=CC=CC=C1)C1=CC=C(Br)C=C1
p157
sVDCC0271
p158
VCC[C@@]1(O)C(=O)OCC2=C1C=C1N(CC3=CC4=C(C=CC(O)=C4CN(C)C)N=C13)C2=O
p159
sVDCC0885
p160
VCC#CCN1C(=NC2=C1C(=O)N(CC1=NC3=C(C=CC=C3)C(C)=N1)C(=O)N2C)N1CCC[C@@H](N)C1
p161
sVDCC0030
p162
VCC1=C2NC(=O)C3=C(N=CC=C3)N(C3CC3)C2=NC=C1
p163
sVDCC0031
p164
VCC(C)CC1(CC=C)C(=O)NC(=O)NC1=O
p165
sVDCC0033
p166
VClC1=CC=CC=C1C(N1C=CN=C1)(C1=CC=CC=C1)C1=CC=CC=C1
p167
sVDCC0439
p168
VO=C1CCNC(=O)N1
p169
sVDCC1417
p170
VCN(C)N=NC1=C(N=CN1)C(N)=O
p171
sVDCC1719
p172
VCCCSC1=NC2=C(N=NN2[C@@H]2C[C@H](OCCO)[C@@H](O)[C@H]2O)C(N[C@@H]2C[C@H]2C2=CC(F)=C(F)C=C2)=N1
p173
sVDCC1411
p174
V[H][C@@]12CC[C@@](O)(C#CC)[C@@]1(C)C[C@H](C1=CC=C(C=C1)N(C)C)C1=C3CCC(=O)C=C3CC[C@@]21[H]
p175
sVDCC1353
p176
VCC1=NC=C2CN=C(C3=CC=CC=C3F)C3=C(C=CC(Cl)=C3)N12
p177
sVDCC1740
p178
VCOC1=NC2=C(C=C(Br)C=C2)C=C1[C@@H](C1=CC=CC=C1)[C@@](O)(CCN(C)C)C1=CC=CC2=C1C=CC=C2
p179
sVDCC0139
p180
V[H][C@@]12C[C@@H](C)[C@](OC(=O)CC)(C(=O)SCF)[C@@]1(C)C[C@H](O)[C@@]1(F)[C@@]2([H])C[C@H](F)C2=CC(=O)C=C[C@]12C
p181
sVDCC1710
p182
VC(N1CCCNCCNCCCNCC1)C1=CC=C(CN2CCCNCCNCCCNCC2)C=C1
p183
sVDCC0135
p184
VCN1[C@H]2CC[C@@H]1C[C@@H](C2)OC(=O)C(CO)C1=CC=CC=C1
p185
sVDCC0134
p186
VCC(C)NCC(O)COC1=CC=CC2=CC=CC=C12
p187
sVDCC0137
p188
VCCOC(=O)[C@H](CCC1=CC=CC=C1)N[C@@H](C)C(=O)N1CCC[C@H]1C(O)=O
p189
sVDCC0136
p190
VClC1=CC=CC(Cl)=C1NC1=NCCN1
p191
sVDCC0131
p192
VCN(CC1=CN=C2N=C(N)N=C(N)C2=N1)C1=CC=C(C=C1)C(=O)N[C@@H](CCC(O)=O)C(O)=O
p193
sVDCC0130
p194
V[H][C@@]12CC3=C(C=C(NC(=O)CNC(C)(C)C)C(O)=C3C(=O)C1=C(O)[C@]1(O)C(=O)C(C(N)=O)=C(O)[C@@H](N(C)C)[C@]1([H])C2)N(C)C
p195
sVDCC0133
p196
V[H][C@]12SCC(C)=C(N1C(=O)[C@H]2NC(=O)[C@H](N)C1=CC=CC=C1)C(O)=O
p197
sVDCC1858
p198
VN[C@@H](CC1=CC=C(O)C=C1)C(O)=O
p199
sVDCC0315
p200
VC[C@H](CS)C(=O)N1CCC[C@H]1C(O)=O
p201
sVDCC1241
p202
V[H][C@@]12CC[C@@](O)(C#C)[C@@]1(CC)CC(=C)[C@]1([H])[C@@]3([H])CCCC=C3CC[C@@]21[H]
p203
sVDCC1242
p204
VCC1=CC2=C(C=C1C(=C)C1=CC=C(C=C1)C(O)=O)C(C)(C)CCC2(C)C
p205
sVDCC0316
p206
VCC[C@H](N1CCCC1=O)C(N)=O
p207
sVDCC1244
p208
VCCCC(C)C1(CC)C(=O)NC(=O)NC1=O
p209
sVDCC1245
p210
VOC[C@H]1O[C@H](C[C@@H]1O)N1C=C(F)C(=O)NC1=O
p211
sVDCC1246
p212
V[H][C@@]12CC[C@](O)(C(C)=O)[C@@]1(C)C[C@H](O)[C@@]1(F)[C@@]2([H])C[C@H](C)C2=CC(=O)C=C[C@]12C
p213
sVDCC1247
p214
V[H][C@@]12OC3=C(O)C=CC4=C3[C@@]11CCN(C)[C@]([H])(C4)[C@]1([H])CCC2=O
p215
sVDCC1249
p216
V[H][C@]1(CC[C@H](Cl)[C@@H](C1)OC)\u005cC=C(/C)[C@@]1([H])OC(=O)[C@]2([H])CCCCN2C(=O)C(=O)[C@]2(O)O[C@@]([H])([C@H](C[C@H]2C)OC)[C@H](C[C@@H](C)C\u005cC(C)=C\u005c[C@@H](CC)C(=O)C[C@H](O)[C@H]1C)OC
p217
sVDCC0319
p218
V[H][C@]12SCC(CSC3=NC(=O)C(=O)NN3C)=C(N1C(=O)[C@H]2NC(=O)C(=N/OC)\u005cC1=CSC(N)=N1)C(O)=O
p219
sVDCC0318
p220
V[H][C@@]1(C[C@@](C)(OC)[C@@H](O)[C@H](C)O1)O[C@H]1[C@H](C)[C@@H](O[C@]2([H])O[C@H](C)C[C@@H]([C@H]2O)N(C)C)[C@@](C)(C[C@@H](C)C(=O)[C@H](C)[C@@H](O)[C@](C)(O)[C@@H](CC)OC(=O)[C@@H]1C)OC
p221
sVDCC1482
p222
V[H][C@@]12CC(=O)[C@H](CCCCCCC(O)=O)[C@@]1([H])CC[C@@](O)(O2)C(F)(F)CCCC
p223
sVDCC0078
p224
VCCCC(C)(COC(N)=O)COC(=O)NC(C)C
p225
sVDCC1481
p226
VCC12CC3CC(C)(C1)CC(N)(C3)C2
p227
sVDCC1486
p228
VCC(C)NCC(O)C1=CC(O)=C(O)C=C1
p229
sVDCC0414
p230
V[Na+].[O-]S(=O)(=O)CCS
p231
sVDCC0098
p232
VCCOC(=O)N1CCC(CC1)=C1C2=C(CCC3=C1N=CC=C3)C=C(Cl)C=C2
p233
sVDCC1854
p234
VCC1=NC(NS(=O)(=O)C2=CC=C(N)C=C2)=NC=C1
p235
sVDCC0096
p236
VCOC1=CC=CC2=C1C(=O)C1=C(O)C3=C(C[C@](O)(C[C@@H]3O[C@H]3C[C@H](N)[C@@H](O)[C@H](C)O3)C(=O)CO)C(O)=C1C2=O
p237
sVDCC0097
p238
VCC1=C(OCC(F)(F)F)C=CN=C1CS(=O)C1=NC2=CC=CC=C2N1
p239
sVDCC0094
p240
VNC1=NC(=O)N(C=C1)[C@@H]1O[C@H](CO)[C@@H](O)C1(F)F
p241
sVDCC0095
p242
V[H][C@@]12C[C@H](C)[C@](O)(C(=O)CO)[C@@]1(C)C[C@H](O)[C@@]1(F)[C@@]2([H])CCC2=CC(=O)C=C[C@]12C
p243
sVDCC0092
p244
VCOCC1=C(C2=CC=C(F)C=C2)C(\u005cC=C\u005c[C@@H](O)C[C@@H](O)CC(O)=O)=C(C(C)C)N=C1C(C)C
p245
sVDCC0093
p246
VCOC1=CC(CC2=CN=C(N)N=C2N)=CC(OC)=C1OC
p247
sVDCC0090
p248
VNS(=O)(=O)C1=CC2=C(NC(CC3=CC=CC=C3)NS2(=O)=O)C=C1C(F)(F)F
p249
sVDCC0091
p250
V[O-]C(=O)C1=C(CS[C@]2([H])[C@H](NC(=O)C(=N/OC(C)(C)C(O)=O)\u005cC3=CSC(N)=N3)C(=O)N12)C[N+]1=CC=CC=C1
p251
sVDCC1856
p252
VNS(=O)(=O)C1=C(Cl)C=C2NC(NS(=O)(=O)C2=C1)C(Cl)Cl
p253
sVDCC0426
p254
VCOC1=C(O)C=C2CCC3C4CC[C@H](O)[C@@]4(C)CCC3C2=C1
p255
sVDCC1745
p256
VNC1=CC=CC2=C1C(=O)N(C1CCC(=O)NC1=O)C2=O
p257
sVDCC0893
p258
V[H][C@@]12CC(=O)N1[C@@]([H])(C(O)=O)C(C)(C)S2(=O)=O
p259
sVDCC1743
p260
V[H][C@]1(O[C@H](CO)[C@@H](O)[C@H](O)[C@H]1O)C1=CC=C(C)C(CC2=CC=C(S2)C2=CC=C(F)C=C2)=C1
p261
sVDCC1742
p262
V[H][C@@]12C[C@@H](C)[C@](OC(=O)C3=CC=CO3)(C(=O)SCF)[C@@]1(C)C[C@H](O)[C@@]1(F)[C@@]2([H])C[C@H](F)C2=CC(=O)C=C[C@]12C
p263
sVDCC1844
p264
VNC1=NC(N)=C(C=C1)\u005cN=N\u005cC1=CC=CC=C1
p265
sVDCC0261
p266
VCC(C)(C)NCC(O)C1=CC(CO)=C(O)C=C1
p267
sVDCC0260
p268
VNS(=O)(=O)C1=C(Cl)C=C2NCNS(=O)(=O)C2=C1
p269
sVDCC0263
p270
VNC(=O)NO
p271
sVDCC0262
p272
VNC1=NC2=C(N=CN2COC(CO)CO)C(=O)N1
p273
sVDCC0265
p274
VCC(C(O)=O)C1=CC(=CC=C1)C(=O)C1=CC=CC=C1
p275
sVDCC0264
p276
VN#CC1=CC=C(C=C1)C(N1C=NC=N1)C1=CC=C(C=C1)C#N
p277
sVDCC0267
p278
VCOC1=C(C=C(Cl)C=C1)C(=O)NCCC1=CC=C(C=C1)S(=O)(=O)NC(=O)NC1CCCCC1
p279
sVDCC0266
p280
VCC1=CC(NS(=O)(=O)C2=CC=C(N)C=C2)=NO1
p281
sVDCC0269
p282
VCCOC(=O)C1=C(C)NC(C)=C(C1C1=C(Cl)C(Cl)=CC=C1)C(=O)OC
p283
sVDCC0268
p284
V[H][C@@]12CC3=C(C(O)=CC=C3N(C)C)C(=O)C1=C(O)[C@]1(O)C(=O)C(C(N)=O)=C(O)[C@@H](N(C)C)[C@]1([H])C2
p285
sVDCC1662
p286
VCC(=O)N[C@@H](CS)C(O)=O
p287
sVDCC0793
p288
VCC(O)C(O)=O
p289
sVDCC0794
p290
VOC[C@H](O)[C@@H](O)[C@H](O)[C@H](O)CO
p291
sVDCC0799
p292
VCCCCOCCOCCOCC1=CC2=C(OCO2)C=C1CCC
p293
sVDCC0106
p294
VBrC1=C(NC2=NCCN2)C=CC2=NC=CN=C12
p295
sVDCC1188
p296
VCC1=C(O)C(CO)=C(CO)C=N1
p297
sVDCC1183
p298
VNC1=NC(=O)C2=NC(CNC3=CC=C(C=C3)C(=O)N[C@@H](CCC(O)=O)C(O)=O)=CN=C2N1
p299
sVDCC1182
p300
VCC(C)[C@@H](C)\u005cC=C\u005c[C@@H](C)[C@@]1([H])CC[C@@]2([H])\u005cC(CCC[C@]12C)=C\u005cC=C1\u005cC[C@@H](O)CCC1=C
p301
sVDCC1181
p302
VCN(CC(O)=O)C(N)=N
p303
sVDCC0218
p304
VCO[C@@H]1C[C@@H](CC[C@H]1O)\u005cC=C(/C)[C@H]1OC(=O)[C@@H]2CCCCN2C(=O)C(=O)[C@]2(O)O[C@@H]([C@H](C[C@H]2C)OC)[C@H](C[C@@H](C)C\u005cC(C)=C\u005c[C@@H](CC=C)C(=O)C[C@H](O)[C@H]1C)OC
p305
sVDCC1345
p306
VCC(=O)NCCCS(O)(=O)=O
p307
sVDCC1347
p308
VCOC1=NC=CN=C1NS(=O)(=O)C1=CC=C(N)C=C1
p309
sVDCC0219
p310
VCCN[C@H]1C[C@H](C)S(=O)(=O)C2=C1C=C(S2)S(N)(=O)=O
p311
sVDCC0949
p312
VNCCNC1=CC=C(NCCN)C2=C1C(=O)C1=C(C=NC=C1)C2=O
p313
sVDCC0355
p314
VOC1=CC=C(C=C1)C1=COC2=C(C(O)=CC(O)=C2)C1=O
p315
sVDCC1845
p316
VC[C@@H](N)[C@@H](O)C1=CC=CC=C1
p317
sVDCC0354
p318
VCN(C)CCC(C1=CC=CC=C1)C1=CC=CC=N1
p319
sVDCC1252
p320
VCN1C2=C(C=C(Cl)C=C2)N(C2=CC=CC=C2)C(=O)CC1=O
p321
sVDCC1204
p322
V[H][C@]12CC[C@]([H])(C[C@@H](C1)OC(=O)C(O)(C1=CC=CC=C1)C1=CC=CC=C1)[N+]21CCCC1
p323
sVDCC1205
p324
VCOC1=CC(C(O)CNC(=O)CN)=C(OC)C=C1
p325
sVDCC1116
p326
VCC(C)C[C@H](NC(=O)[C@@H](COC(C)(C)C)NC(=O)[C@H](CC1=CC=C(O)C=C1)NC(=O)[C@H](CO)NC(=O)[C@H](CC1=CNC2=CC=CC=C12)NC(=O)[C@H](CC1=CN=CN1)NC(=O)[C@@H]1CCC(=O)N1)C(=O)N[C@@H](CCCN=C(N)N)C(=O)N1CCC[C@H]1C(=O)NNC(N)=O
p327
sVDCC0213
p328
VOCCN1CCN(CCCN2C3=CC=CC=C3SC3=C2C=C(Cl)C=C3)CC1
p329
sVDCC1200
p330
VOC(CN1C=NC=N1)(CN1C=NC=N1)C1=C(F)C=C(F)C=C1
p331
sVDCC0881
p332
V[H][C@@]12CC[C@@](O)(CC#N)[C@@]1(C)CCC1=C3CCC(=O)C=C3CC[C@@]21[H]
p333
sVDCC0217
p334
VCN\u005cC(NCCSCC1=CC=C(CN(C)C)O1)=C/[N+]([O-])=O
p335
sVDCC1390
p336
V[H][C@@](N1CCC2=C(C1)C=CS2)(C(=O)OC)C1=CC=CC=C1Cl
p337
sVDCC1446
p338
VCC1=CC(=C(O)C(C)=C1CC1=NCCN1)C(C)(C)C
p339
sVDCC1445
p340
V[H][C@@](CC)(C1=CC(NS(=O)(=O)C2=NC=C(C=C2)C(F)(F)F)=CC=C1)C1=C(O)C[C@@](CCC)(CCC2=CC=CC=C2)OC1=O
p341
sVDCC0764
p342
V[H][C@]12CN([C@H](C(=O)NC(CC3CCC3)C(=O)C(N)=O)[C@@]1([H])C2(C)C)C(=O)[C@@H](NC(=O)NC(C)(C)C)C(C)(C)C
p343
sVDCC1443
p344
VNC1=NC(=O)N(C=N1)[C@@H]1O[C@H](CO)[C@@H](O)[C@H]1O
p345
sVDCC1838
p346
VCN1C(CCl)NC2=CC(Cl)=C(C=C2S1(=O)=O)S(N)(=O)=O
p347
sVDCC0768
p348
V[H]\u005cC(=C(\u005c[H])C1=CC=C(CNCCC2=C(C)NC3=CC=CC=C23)C=C1)C(O)=NO
p349
sVDCC1524
p350
VCN(C)CCC[C@]1(OCC2=C1C=CC(=C2)C#N)C1=CC=C(F)C=C1
p351
sVDCC1521
p352
VCCC(C)N1N=CN(C1=O)C1=CC=C(C=C1)N1CCN(CC1)C1=CC=C(OC[C@H]2CO[C@@](CN3C=NC=N3)(O2)C2=C(Cl)C=C(Cl)C=C2)C=C1
p353
sVDCC1520
p354
VO=C1CCC2=C(N1)C=CC(OCCCCC1=NN=NN1C1CCCCC1)=C2
p355
sVDCC1523
p356
VClC1=CC=C(C=C1)C(=O)NCCN1CCOCC1
p357
sVDCC1522
p358
VCNNCC1=CC=C(C=C1)C(=O)NC(C)C
p359
sVDCC0199
p360
VCNC(C)C1CCC(N)C(OC2C(N)CC(N)C(OC3OCC(C)(O)C(NC)C3O)C2O)O1
p361
sVDCC0198
p362
VCCOC1=NC2=CC=CC(C(O)=O)=C2N1CC1=CC=C(C=C1)C1=CC=CC=C1C1=NNN=N1
p363
sVDCC0193
p364
VCCC(C)CCCCC(=O)NC(CCN)C(=O)NC(C(C)O)C(=O)NC(CCN)C(=O)NC1CCNC(=O)C(NC(=O)C(CCN)NC(=O)C(CCN)NC(=O)C(CC(C)C)NC(=O)C(CC2=CC=CC=C2)NC(=O)C(CCN)NC1=O)C(C)O
p365
sVDCC0192
p366
VNC(=O)N1C2=CC=CC=C2CC(=O)C2=CC=CC=C12
p367
sVDCC0191
p368
V[H][C@]12COC(=O)[C@]1([H])[C@H](C1=CC(OC)=C(O)C(OC)=C1)C1=CC3=C(OCO3)C=C1[C@H]2O[C@@H]1O[C@]2([H])CO[C@@H](C)O[C@@]2([H])[C@H](O)[C@H]1O
p369
sVDCC0442
p370
VCC1=CC(O)=C2C(=O)C3=C(C=C(O)C=C3O)C(=O)C2=C1
p371
sVDCC0197
p372
V[H][C@]12C[C@H](N(C(=O)[C@H](C)N[C@@H](CCC)C(=O)OCC)[C@@]1([H])CCCC2)C(O)=O
p373
sVDCC0196
p374
VCOC1=CC2=C(C=C1)C=C(C=C2)[C@H](C)C(O)=O
p375
sVDCC0195
p376
VNC1=NC(=O)C2=C(N1)N(COCCO)C=N2
p377
sVDCC0194
p378
V[H][C@@]12CC[C@H](O)[C@@]1(C)CC[C@]1([H])C3=C(CC[C@@]21[H])C=C(O)C=C3
p379
sVDCC0328
p380
VCC1=CC(OCCCC(C)(C)C(O)=O)=C(C)C=C1
p381
sVDCC0329
p382
V[H][C@@]12C[C@H](O)[C@@]3(C)C(=O)[C@H](O)C4=C(C)[C@H](C[C@@](O)([C@@H](OC(=O)C5=CC=CC=C5)[C@]3([H])[C@@]1(CO2)OC(C)=O)C4(C)C)OC(=O)[C@H](O)[C@@H](NC(=O)OC(C)(C)C)C1=CC=CC=C1
p383
sVDCC0166
p384
VCNC[C@H](O)C1=CC(O)=C(O)C=C1
p385
sVDCC0167
p386
VCNS(=O)(=O)CC1=CC2=C(NC=C2CCN(C)C)C=C1
p387
sVDCC0164
p388
VCC(C)OC(=O)CCC\u005cC=C/C[C@H]1[C@@H](O)C[C@@H](O)[C@@H]1CC[C@@H](O)CCC1=CC=CC=C1
p389
sVDCC1849
p390
VCOC1=CC=C(CN(CCN(C)C)C2=NC=CC=C2)C=C1
p391
sVDCC0049
p392
VCC(=O)NC1=CC=C(O)C=C1
p393
sVDCC0048
p394
VCCCC(CCC)C(O)=O
p395
sVDCC0160
p396
VCCC(=O)O[C@@](CC1=CC=CC=C1)([C@H](C)CN(C)C)C1=CC=CC=C1
p397
sVDCC0161
p398
VCC1=CN([C@@H]2O[C@H](CO)C=C2)C(=O)NC1=O
p399
sVDCC0045
p400
VC[C@H](CN1C=NC2=C1N=CN=C2N)OCP(O)(O)=O
p401
sVDCC0044
p402
VCCCCN1CCCCC1C(=O)NC1=C(C)C=CC=C1C
p403
sVDCC0047
p404
VNS(=O)(=O)C1=C(Cl)C=CC(=C1)C1(O)NC(=O)C2=CC=CC=C12
p405
sVDCC0046
p406
VCO[C@]12[C@H]3N[C@H]3CN1C1=C([C@H]2COC(N)=O)C(=O)C(N)=C(C)C1=O
p407
sVDCC0041
p408
VCN1CCC[C@@H]1CCO[C@](C)(C1=CC=CC=C1)C1=CC=C(Cl)C=C1
p409
sVDCC0040
p410
VCCN(CC)CC(=O)NC1=C(C)C=CC=C1C
p411
sVDCC0043
p412
V[H][C@@]12OC3=C(O)C=CC4=C3[C@@]11CCN(C)[C@]([H])(C4)[C@]1([H])C=C[C@@H]2O
p413
sVDCC0042
p414
V[H][C@@]12CC[C@@](O)(C#C)[C@@]1(CC)CC(=C)[C@]1([H])[C@@]3([H])CCC(=O)C=C3CC[C@@]21[H]
p415
sVDCC1622
p416
VCCCO
p417
sVDCC0224
p418
VClC1=CC=C(NC(=N)NC(=N)NCCCCCCNC(=N)NC(=N)NC2=CC=C(Cl)C=C2)C=C1
p419
sVDCC0227
p420
V[H][C@]12OC[C@H](O[N+]([O-])=O)[C@@]1([H])OC[C@H]2O[N+]([O-])=O
p421
sVDCC0226
p422
VCCOC(=O)[C@H](CCC1=CC=CC=C1)N[C@@H](C)C(=O)N1CC2=CC=CC=C2C[C@H]1C(O)=O
p423
sVDCC0221
p424
VCOC1=CC=CC=C1OCC(O)CO
p425
sVDCC0220
p426
V[H][C@@]12CC[C@](O)(C(=O)OCCl)[C@@]1(C)C[C@H](O)[C@@]1([H])[C@@]2([H])CCC2=CC(=O)C=C[C@]12C
p427
sVDCC1624
p428
VO=C1NC=CC(=O)N1
p429
sVDCC0222
p430
VCCCCC1=NC=C(\u005cC=C(/CC2=CC=CS2)C(O)=O)N1CC1=CC=C(C=C1)C(O)=O
p431
sVDCC1628
p432
VCCOP(=O)(OCC)[C@@H](C)NC(=O)N(CCCl)N=O
p433
sVDCC0738
p434
VCCC1=C(CC)C=C2CC(CC2=C1)NC[C@H](O)C1=C2C=CC(=O)NC2=C(O)C=C1
p435
sVDCC0229
p436
VCN1CCC(CN2C3=CC=CC=C3SC3=CC=CC=C23)C1
p437
sVDCC0228
p438
VOC[C@@H]1CC[C@@H](O1)N1C=NC2=C1NC=NC2=O
p439
sVDCC1239
p440
V[H][C@]12SC(C)(C)[C@@H](N1C(=O)[C@H]2NC(=O)C1=C(C)ON=C1C1=C(F)C=CC=C1Cl)C(O)=O
p441
sVDCC1238
p442
VCCCN1CCCC[C@H]1C(=O)NC1=C(C)C=CC=C1C
p443
sVDCC0348
p444
V[H][C@@]1(C[C@@H](C)[C@]2([H])CC(=O)[C@H](C)\u005cC=C(C)\u005c[C@@H](O)[C@@H](OC)C(=O)[C@H](C)C[C@H](C)\u005cC=C\u005cC=C\u005cC=C(C)\u005c[C@H](C[C@]3([H])CC[C@@H](C)[C@@](O)(O3)C(=O)C(=O)N3CCCC[C@@]3([H])C(=O)O2)OC)CC[C@@H](OCCO)[C@@H](C1)OC
p445
sVDCC0088
p446
VOC[C@H]1O[C@H](C[C@@H]1O)N1C=C(C(=O)NC1=O)C(F)(F)F
p447
sVDCC1231
p448
VCOC1=CC=C(C=C1)C(CN(C)C)C1(O)CCCCC1
p449
sVDCC0347
p450
VCN[C@@H](C)CC1=CC=CC=C1
p451
sVDCC0344
p452
VCO\u005cN=C(/C(=O)N[C@@H]1C(=O)N2[C@]1([H])SCC(C[N+]1(C)CCCC1)=C2C([O-])=O)C1=CSC(N)=N1
p453
sVDCC0345
p454
VOCCCC([O-])=O
p455
sVDCC1235
p456
VOC(=O)CCCC1=CC=C(C=C1)N(CCCl)CCCl
p457
sVDCC0343
p458
V[H][C@@]12C[C@]1([H])[C@@]1([H])[C@]3([H])[C@]4([H])C[C@]4([H])[C@@]4(CCC(=O)O4)[C@@]3(C)CC[C@]1([H])[C@@]1(C)CCC(=O)C=C21
p459
sVDCC0340
p460
V[H][C@@]12CC[C@@](O)(C#C)[C@@]1(C)CC[C@]1([H])C3=C(CC[C@@]21[H])C=C(OC)C=C3
p461
sVDCC0613
p462
V[H][C@@]12CC=C(C3=CC=CN=C3)[C@@]1(C)CC[C@@]1([H])[C@@]2([H])CC=C2C[C@@H](O)CC[C@]12C
p463
sVDCC1680
p464
VN[C@H](C(=O)N1[C@H]2C[C@H]2C[C@H]1C#N)C12CC3CC(CC(O)(C3)C1)C2
p465
sVDCC0700
p466
VCCCCC1=NC(C)=C(CC(=S)N(C)C)C(=O)N1CC1=CC=C(C=C1)C1=C(C=CC=C1)C1=NN=NN1
p467
sVDCC0325
p468
V[H][C@@]12C[C@@H](C)[C@](O)(C(=O)CO)[C@@]1(C)C[C@H](O)[C@@]1(F)[C@@]2([H])CCC2=CC(=O)C=C[C@]12C
p469
sVDCC0290
p470
VCC(C)C1=C(C(=O)NC2=CC=CC=C2)C(=C(N1CCC(O)CC(O)CC([O-])=O)C1=CC=C(F)C=C1)C1=CC=CC=C1
p471
sVDCC0291
p472
VCCOC(=O)C1(CCN(CCC(C#N)(C2=CC=CC=C2)C2=CC=CC=C2)CC1)C1=CC=CC=C1
p473
sVDCC0292
p474
VCN[C@H]1[C@H](O)[C@@H](O)[C@H](CO)O[C@H]1O[C@H]1[C@H](O[C@H]2[C@H](O)[C@@H](O)[C@H](NC(N)=N)[C@@H](O)[C@@H]2NC(N)=N)O[C@@H](C)[C@]1(O)C=O
p475
sVDCC0293
p476
V[H][C@]12C[C@@H](O)[C@H](\u005cC=C\u005c[C@@H](O)C(C)CC#CC)[C@@]1([H])C\u005cC(C2)=C\u005cCCCC(O)=O
p477
sVDCC0294
p478
VCC(C)C1=NC(=NC(C2=CC=C(F)C=C2)=C1\u005cC=C\u005c[C@@H](O)C[C@@H](O)CC(=O)O)N(C)S(C)(=O)=O
p479
sVDCC0295
p480
VCCCCCOC(=O)NC1=NC(=O)N(C=C1F)[C@@H]1O[C@H](C)[C@@H](O)[C@H]1O
p481
sVDCC0297
p482
VClC1=CC(Cl)=C(COC(CN2C=CN=C2)C2=C(Cl)C=C(Cl)C=C2)C=C1
p483
sVDCC0298
p484
VCN(C)CCC(C1=CC=C(Cl)C=C1)C1=CC=CC=N1
p485
sVDCC0299
p486
VOC1=C([C@H]2CC[C@@H](CC2)C2=CC=C(Cl)C=C2)C(=O)C2=CC=CC=C2C1=O
p487
sVDCC0285
p488
V[H][C@]12SC(C)(C)[C@@H](N1C(=O)[C@H]2NC(=O)[C@H](N)C1=CC=C(O)C=C1)C(O)=O
p489
sVDCC1687
p490
VCOC1=CC(NC2=C(C=NC3=CC(OCCCN4CCN(C)CC4)=C(OC)C=C23)C#N)=C(Cl)C=C1Cl
p491
sVDCC1657
p492
VCOC1=C(OCC2CCN(C)CC2)C=C2N=CN=C(NC3=C(F)C=C(Br)C=C3)C2=C1
p493
sVDCC0532
p494
VNCCNCCNCCN
p495
sVDCC1302
p496
VCC(=O)OC1=CC=CC=C1C(=O)NC1=NC=C(S1)[N+]([O-])=O
p497
sVDCC1659
p498
VO.O.O.O.O.O.O.O.O.[Na+].[Na+].[Na+].[H][C@@]1(O[Sb]2(O)(O[Sb]34([O-])O[C@@H](C([O-])=O)[C@@]([H])(O3)[C@]([H])(O4)[C@H](O)CO)O[C@@H](C([O-])=O)[C@@]1([H])O2)[C@H](O)CO
p499
sVDCC1658
p500
V[H][C@@]12CCC[C@]1([H])[C@H](N(C2)C(=O)[C@@H](NC(=O)[C@@H](NC(=O)C1=NC=CN=C1)C1CCCCC1)C(C)(C)C)C(=O)N[C@@H](CCC)C(=O)C(=O)NC1CC1
p501
sVDCC0908
p502
V[H][C@@]12CC[C@](OC(C)=O)(C(C)=O)[C@@]1(C)CC[C@@]1([H])[C@@]2([H])C[C@H](C)C2=CC(=O)CC[C@]12C
p503
sVDCC0907
p504
V[Na+].OC([O-])=O
p505
sVDCC1437
p506
V[H]C1CC[C@]2(C)[C@]([H])(CC[C@@]2([H])\u005cC1=C\u005cC=C1C[C@@H](O)C[C@H](O)C1)[C@H](C)\u005cC=C\u005c[C@H](C)C(O)(C)C
p507
sVDCC1829
p508
VNC(N)=NCCN1CCCCCCC1
p509
sVDCC0834
p510
VCC(C)C[C@H](NC(=O)[C@@H](CC1=CNC2=CC=CC=C12)NC(=O)[C@H](CC1=CC=C(O)C=C1)NC(=O)[C@H](CO)NC(=O)[C@H](CC1=CNC2=C1C=CC=C2)NC(=O)[C@H](CC1=CNC=N1)NC(=O)[C@@H]1CCC(=O)N1)C(=O)N[C@@H](CCCNC(N)=N)C(=O)N1CCC[C@H]1C(=O)NCC(N)=O
p511
sVDCC0836
p512
V[H][C@@]12CCC3=CC(=O)C=C[C@]3(C)[C@@]1([H])CC[C@]1(C)OC(=O)CC[C@@]21[H]
p513
sVDCC0029
p514
V[H][C@]12[C@H](C[C@@H](C)C=C1C=C[C@H](C)[C@@H]2CC[C@@H]1C[C@@H](O)CC(=O)O1)OC(=O)[C@@H](C)CC
p515
sVDCC0028
p516
VCC(C)(C)NC(=O)[C@@H]1CN(CC2=CN=CC=C2)CCN1C[C@@H](O)C[C@@H](CC1=CC=CC=C1)C(=O)N[C@@H]1[C@H](O)CC2=CC=CC=C12
p517
sVDCC0211
p518
VCN(C)C(=O)C(CCN1CCC(O)(CC1)C1=CC=C(Cl)C=C1)(C1=CC=CC=C1)C1=CC=CC=C1
p519
sVDCC0025
p520
VCOC1=C(C=C(C=C1)C1=CC2=C(C=C1)C=C(C=C2)C(O)=O)C12CC3CC(CC(C3)C1)C2
p521
sVDCC0159
p522
VC[C@H]1OC(OC2CC(O)C(C(O)CC(=O)CC(O)C(O)CCC(O)CC(O)CC(O)CC(=O)OC(C)C(C)C(O)C(C)\u005cC=C\u005cC=C\u005cCC\u005cC=C\u005cC=C\u005cC=C\u005cC=C\u005c2)C(O)=O)[C@@H](O)[C@@H](N)[C@@H]1O
p523
sVDCC0158
p524
V[H][C@@](CCC(O)=O)(NC(=O)C1=CC=C(CCC2=CNC3=C2C(O)=NC(=N)N3)C=C1)C(O)=O
p525
sVDCC0157
p526
V[H][C@]12[C@H](C[C@@H](C)C=C1C=C[C@H](C)[C@@H]2CC[C@@H]1C[C@@H](O)CC(=O)O1)OC(=O)C(C)(C)CC
p527
sVDCC0023
p528
VCCC1=C(C(N)=NC(N)=N1)C1=CC=C(Cl)C=C1
p529
sVDCC0155
p530
VCC(=O)NS(=O)(=O)C1=CC=C(N)C=C1
p531
sVDCC0154
p532
VC[C@H](C1=CNC=N1)C1=C(C)C(C)=CC=C1
p533
sVDCC0153
p534
V[H][C@]1(F)[C@H](O)[C@@H](CO)O[C@H]1N1C=NC2=C(N)N=C(Cl)N=C12
p535
sVDCC0152
p536
VOC(=O)C1=CN=CC=C1
p537
sVDCC0403
p538
VFC1=CN(C2CCCO2)C(=O)NC1=O
p539
sVDCC0022
p540
VCCCC1=NN(C)C2=C1NC(=NC2=O)C1=C(OCC)C=CC(=C1)S(=O)(=O)N1CCN(C)CC1
p541
sVDCC0458
p542
VOC1=CC=C(C=C1)C1=CC2=C(OC1)C=C(O)C=C2
p543
sVDCC1535
p544
VOCCNCCNC1=C2C(=O)C3=C(O)C=CC(O)=C3C(=O)C2=C(NCCNCCO)C=C1
p545
sVDCC0128
p546
VFC1=CNC(=O)NC1=O
p547
sVDCC0129
p548
VNC1=NC(N)=C(N=N1)C1=C(Cl)C(Cl)=CC=C1
p549
sVDCC0122
p550
VCOCCOC1=C(OCCOC)C=C2C(NC3=CC=CC(=C3)C#C)=NC=NC2=C1
p551
sVDCC0123
p552
VClCCN(CCCl)P1(=O)NCCCO1
p553
sVDCC0120
p554
V[H][N]1([H])[C@@H]2CCCC[C@H]2[N]([H])([H])[Pt]11OC(=O)C(=O)O1
p555
sVDCC0121
p556
VCOC(=O)C1=C(C)NC(C)=C(C1C1=CC(=CC=C1)[N+]([O-])=O)C(=O)OC(C)(C)CN(C)CCC(C1=CC=CC=C1)C1=CC=CC=C1
p557
sVDCC0126
p558
V[H][C@@]12N3CC[C@@]11C4=CC(=C(OC)C=C4N(C=O)[C@@]1([H])[C@](O)([C@H](OC(C)=O)[C@]2(CC)C=CC3)C(=O)OC)[C@]1(C[C@]2([H])CN(C[C@](O)(CC)C2)CCC2=C1NC1=CC=CC=C21)C(=O)OC
p559
sVDCC0127
p560
VCCOC(=O)[C@H](CCC1=CC=CC=C1)N[C@H]1CCC2=CC=CC=C2N(CC(O)=O)C1=O
p561
sVDCC0124
p562
VOC(=O)C1=CN(C2CC2)C2=CC(N3CCNCC3)=C(F)C=C2C1=O
p563
sVDCC0125
p564
VCN(C)CCOC1=CC=C(C=C1)C(=C(\u005cCCCl)C1=CC=CC=C1)\u005cC1=CC=CC=C1
p565
sVDCC0302
p566
VCC(C)\u005cN=C(/N)N=C(N)NC1=CC=C(Cl)C=C1
p567
sVDCC1577
p568
V[Ca]
p569
sVDCC0300
p570
VCC1=NS(=O)(=O)C2=C(N1)C=CC(Cl)=C2
p571
sVDCC0301
p572
VCOCCCOC1=C(C)C(CS(=O)C2=NC3=CC=CC=C3N2)=NC=C1
p573
sVDCC0306
p574
VCC(NC(C)(C)C)C(=O)C1=CC(Cl)=CC=C1
p575
sVDCC0307
p576
VCOC1=CC(NCC2=C(C)C3=C(C=C2)N=C(N)N=C3N)=CC(OC)=C1OC
p577
sVDCC0304
p578
VC[C@H]1COC2=C3N1C=C(C(O)=O)C(=O)C3=CC(F)=C2N1CCN(C)CC1
p579
sVDCC0305
p580
VCO\u005cN=C1/CN(CC1CN)C1=NC2=C(C=C1F)C(=O)C(=CN2C1CC1)C(O)=O
p581
sVDCC0308
p582
VO=[As][As](=O)=O
p583
sVDCC0309
p584
VNC[C@H]1O[C@H](O[C@@H]2[C@@H](N)C[C@@H](N)[C@H](O[C@H]3O[C@H](CO)[C@@H](O)[C@H](N)[C@H]3O)[C@H]2O)[C@H](O)[C@@H](O)[C@@H]1O
p585
sVDCC1273
p586
VCOC(=O)C(C1CCCCN1)C1=CC=CC=C1
p587
sVDCC1579
p588
V[Mg++]
p589
sVDCC0494
p590
VCC(C)C1=NC(CN(C)C(=O)N[C@@H](CCN2CCOCC2)C(=O)N[C@H](CC[C@H](CC2=CC=CC=C2)NC(=O)OCC2=CN=CS2)CC2=CC=CC=C2)=CS1
p591
sVDCC1478
p592
VCC(=O)N1CCN(CC1)C1=CC=C(OCC2COC(CN3C=CN=C3)(O2)C2=CC=C(Cl)C=C2Cl)C=C1
p593
sVDCC1477
p594
VCOC1=C(C\u005cC=C(/C)CCC(O)=O)C(O)=C2C(=O)OCC2=C1C
p595
sVDCC1474
p596
V[H][C@@]12C[C@H](C)[C@](OC(=O)CC)(C(=O)CCl)[C@@]1(C)C[C@H](O)[C@@]1(F)[C@@]2([H])CCC2=CC(=O)C=C[C@]12C
p597
sVDCC1473
p598
VC[C@@H](NCCCC1=CC(=CC=C1)C(F)(F)F)C1=CC=CC2=CC=CC=C12
p599
sVDCC1471
p600
VCS(=O)(=O)OCCCCOS(C)(=O)=O
p601
sVDCC1860
p602
VNC(N)=O
p603
sVDCC1861
p604
VNC1=CC=C(C=C1)S(=O)(=O)NC1=NC=CS1
p605
sVDCC0061
p606
VCOC1=CC2=C(C=C1)N=C(N2)S(=O)CC1=NC=C(C)C(OC)=C1C
p607
sVDCC0016
p608
VCC(C)C[C@H](NC(=O)[C@H](CC1=CC=CC=C1)NC(=O)C1=CN=CC=N1)B(O)O
p609
sVDCC0017
p610
VC[C@@](CC1=CC(O)=C(O)C=C1)(NN)C(O)=O
p611
sVDCC0014
p612
VCCCCC(=O)N(CC1=CC=C(C=C1)C1=CC=CC=C1C1=NNN=N1)[C@@H](C(C)C)C(O)=O
p613
sVDCC0015
p614
V[H][C@@]12CCC[C@]1([H])N([C@@H](C2)C(O)=O)C(=O)[C@H](C)N[C@@H](CCC1=CC=CC=C1)C(=O)OCC
p615
sVDCC0398
p616
V[H][C@@](C)(C(O)=O)C1=CC(=CC=C1)C(=O)C1=CC=CC=C1
p617
sVDCC0011
p618
VCC[C@@H]1NC(=O)[C@H]([C@H](O)[C@H](C)C\u005cC=C\u005cC)N(C)C(=O)[C@H](C(C)C)N(C)C(=O)[C@H](CC(C)C)N(C)C(=O)[C@H](CC(C)C)N(C)C(=O)[C@@H](C)NC(=O)[C@H](C)NC(=O)[C@H](CC(C)C)N(C)C(=O)[C@@H](NC(=O)[C@H](CC(C)C)N(C)C(=O)CN(C)C1=O)C(C)C
p619
sVDCC0395
p620
VCCCCOC1=CC=C(OCCCN2CCOCC2)C=C1
p621
sVDCC0394
p622
V[H][C@@]12CCCN1C(=O)[C@H](CC(C)C)NC(=O)[C@@H](C)C(=O)[C@@H](OC(=O)C[C@H](O)[C@]([H])(NC(=O)[C@@H](NC(=O)[C@@H](CC(C)C)N(C)C(=O)[C@@H]1CCCN1C(=O)C(C)=O)[C@@H](C)OC(=O)[C@H](CC1=CC=C(OC)C=C1)N(C)C2=O)[C@@H](C)CC)C(C)C
p623
sVDCC0396
p624
VO=C1C=C(OC2=C1C=CC=C2C1=CC=CC=C1)N1CCOCC1
p625
sVDCC0407
p626
V[O-][N+](=O)C1=CN2C[C@@H](COC2=N1)OCC1=CC=C(OC(F)(F)F)C=C1
p627
sVDCC0018
p628
VCOC1=CC=CC(=C1)[C@@]1(O)CCCC[C@@H]1CN(C)C
p629
sVDCC0019
p630
VCCOC(=O)C1=C[C@@H](OC(CC)CC)[C@H](NC(C)=O)[C@@H](N)C1
p631
sVDCC1407
p632
V[H][C@]12CC3=C(NC4=CC=CC=C34)[C@H](N1C(=O)CN(C)C2=O)C1=CC2=C(OCO2)C=C1
p633
sVDCC0377
p634
VC(N(CC1=CC=CC=C1)C1=CC=CC=C1)C1=NCCN1
p635
sVDCC0376
p636
VOC1=CC(Cl)=CC=C1OC1=C(Cl)C=C(Cl)C=C1
p637
sVDCC0375
p638
VC(C1=NCCN1)C1=CC=CC2=CC=CC=C12
p639
sVDCC0374
p640
VCCCCN(CCCC)CC(O)C1=C2C(=CC(Cl)=C1)\u005cC(=C/C1=CC=C(Cl)C=C1)C1=C2C=CC(Cl)=C1
p641
sVDCC0373
p642
VC[C@H](N)[C@H](O)C1=CC(O)=C(O)C=C1
p643
sVDCC0372
p644
V[H][C@@]12CC[C@@H](C)[C@]3([H])CC[C@@]4(C)OO[C@@]13[C@]([H])(O[C@H](OC)[C@@H]2C)O4
p645
sVDCC0278
p646
VN[C@@H](CC1=CC=C(C=C1)N(CCCl)CCCl)C(O)=O
p647
sVDCC0279
p648
VCOC1=C2N(C=C(C(O)=O)C(=O)C2=CC(F)=C1N1CCNC(C)C1)C1CC1
p649
sVDCC1613
p650
VCCCCC[C@H](O)\u005cC=C\u005cC1=C(C\u005cC=C\u005cCCCC(O)=O)C(=O)CC1
p651
sVDCC0277
p652
VO=C1N(C2CCC(=O)NC2=O)C(=O)C2=CC=CC=C12
p653
sVDCC0274
p654
VCC=CCC=CCCC(=O)[C@H]1O[C@H]1C(N)=O
p655
sVDCC0275
p656
VCCN(CC)CCNC(=O)C1=CC=C(N)C=C1
p657
sVDCC0272
p658
VCCCN(CCC)S(=O)(=O)C1=CC=C(C=C1)C(O)=O
p659
sVDCC0273
p660
VS=C1N=CNC2=C1NC=N2
p661
sVDCC1615
p662
VNC(=O)C1=CC=CN=C1
p663
sVDCC1614
p664
VNCCCC[C@H](NC(=O)[C@@H]1CCCN1C(=O)[C@@H]1CSSC[C@H](NC(=O)CNC(=O)CNC(=O)CN)C(=O)N[C@@H](CC2=CC=C(O)C=C2)C(=O)N[C@@H](CC2=CC=CC=C2)C(=O)N[C@@H](CCC(N)=O)C(=O)N[C@@H](CC(N)=O)C(=O)N1)C(=O)NCC(N)=O
p665
sVDCC1589
p666
VCC(C)CCC[C@@H](C)[C@@]1([H])CC[C@@]2([H])\u005cC(CCC[C@]12C)=C\u005cC=C1\u005cC[C@@H](O)C[C@H](O)C1=C
p667
sVDCC0789
p668
VCN(NC(=O)CC(=O)NN(C)C(=S)C1=CC=CC=C1)C(=S)C1=CC=CC=C1
p669
sVDCC1587
p670
VNC[C@@H]1O[C@H](O[C@@H]2[C@@H](CO)O[C@@H](O[C@@H]3[C@@H](O)[C@H](N)C[C@H](N)[C@H]3O[C@H]3O[C@H](CO)[C@@H](O)[C@H](O)[C@H]3N)[C@@H]2O)[C@H](N)[C@@H](O)[C@@H]1O
p671
sVDCC0920
p672
VOC(=O)C1CCN2C1=CC=C2C(=O)C1=CC=CC=C1
p673
sVDCC1584
p674
V[H][C@]12O[C@@]1([H])[C@]1([H])C[C@@]([H])(C[C@@]2([H])[N+]1(C)C)OC(=O)C(O)(C1=CC=CS1)C1=CC=CS1
p675
sVDCC1262
p676
V[H][C@]12CCCC3=C1C(=CC=C3)C(=O)N(C2)[C@@H]1CN2CCC1CC2
p677
sVDCC0080
p678
VOC(CN1C=CN=C1)(P(O)(O)=O)P(O)(O)=O
p679
sVDCC1479
p680
VCC(C)N(CC[C@H](C1=CC=CC=C1)C1=C(O)C=CC(C)=C1)C(C)C
p681
sVDCC1727
p682
VCC1=CC(\u005cC=C\u005cC#N)=CC(C)=C1NC1=CC=NC(NC2=CC=C(C=C2)C#N)=N1
p683
sVDCC1726
p684
VO[C@H](C[C@H](O)\u005cC=C\u005cC1=C(N=C2C=CC=CC2=C1C1=CC=C(F)C=C1)C1CC1)CC(O)=O
p685
sVDCC1723
p686
VCN1C=CC(=O)C(O)=C1C
p687
sVDCC1722
p688
VCCOC1=NC2=C(N1CC1=CC=C(C=C1)C1=CC=CC=C1C1=NOC(=O)N1)C(=CC=C2)C(=O)OCC1=C(C)OC(=O)O1
p689
sVDCC0552
p690
V[Na+].[H][C@@]12CCC(=O)[C@@]1(C)CC[C@]1([H])C3=CC=C(OS([O-])(=O)=O)C=C3CC[C@@]21[H]
p691
sVDCC1194
p692
VCC(N)CC1=CC=CC=C1
p693
sVDCC1197
p694
VOC1N=C(C2=CC=CC=C2Cl)C2=C(NC1=O)C=CC(Cl)=C2
p695
sVDCC1191
p696
V[H][C@]12[C@H](C[C@H](O)C=C1C=C[C@H](C)[C@@H]2CC[C@@H](O)C[C@@H](O)CC(O)=O)OC(=O)[C@@H](C)CC
p697
sVDCC1297
p698
V[H][C@]12SCC(COC(C)=O)=C(N1C(=O)[C@H]2NC(=O)C(=N/OC)\u005cC1=CSC(N)=N1)C(O)=O
p699
sVDCC1293
p700
VCNCC[C@H](OC1=CC=CC2=CC=CC=C12)C1=CC=CS1
p701
sVDCC1356
p702
VCC1=CC=C(C=C1)N(CC1=NCCN1)C1=CC(O)=CC=C1
p703
sVDCC1357
p704
VCOC1=CC=CC2=C1C(=O)C1=C(O)C3=C(C[C@](O)(C[C@@H]3O[C@H]3C[C@H](N)[C@H](O)[C@H](C)O3)C(C)=O)C(O)=C1C2=O
p705
sVDCC1354
p706
V[H][C@@]12CC[C@](O)(C(=O)CO)[C@@]1(C)C[C@H](O)[C@@]1(F)[C@@]2([H])CCC2=CC(=O)CC[C@]12C
p707
sVDCC1355
p708
VCCOC(=O)[C@H](CCC1=CC=CC=C1)N[C@@H](C)C(=O)N1CC2=CC(OC)=C(OC)C=C2C[C@H]1C(O)=O
p709
sVDCC0875
p710
V[O-][N+](=O)OCCNC(=O)C1=CC=CN=C1
p711
sVDCC1351
p712
VC[C@@H](O[C@H]1OCCN(CC2=NNC(=O)N2)[C@H]1C1=CC=C(F)C=C1)C1=CC(=CC(=C1)C(F)(F)F)C(F)(F)F
p713
sVDCC0059
p714
VCN1CCN(CC1)C1=NC2=CC=CC=C2NC2=C1C=C(C)S2
p715
sVDCC0887
p716
VCC(C)CCC[C@@H](C)[C@@]1([H])CC[C@@]2([H])\u005cC(CCC[C@]12C)=C\u005cC=C1\u005cC[C@@H](O)CCC1=C
p717
sVDCC0085
p718
V[H][C@@]12CC[C@@]3(CCC(=O)O3)[C@@]1(C)CC[C@@]1([H])[C@@]2([H])[C@@]([H])(CC2=CC(=O)CC[C@]12C)SC(C)=O
p719
sVDCC0050
p720
VCOC1=C(OCCCN2CCOCC2)C=C2C(NC3=CC(Cl)=C(F)C=C3)=NC=NC2=C1
p721
sVDCC0118
p722
VCCCSC1=CC2=C(C=C1)N=C(NC(=O)OC)N2
p723
sVDCC0366
p724
VC[C@@]12CC[C@@H](CC1)C(C)(C)O2
p725
sVDCC0084
p726
V[H][C@]12SC(C)(C)[C@@H](N1C(=O)[C@H]2NC(=O)COC1=CC=CC=C1)C(O)=O
p727
sVDCC1433
p728
VCCC(=C)C(=O)C1=C(Cl)C(Cl)=C(OCC(O)=O)C=C1
p729
sVDCC1432
p730
VCCC(=O)N(C1=CC=CC=C1)C1(CCN(CCC(=O)OC)CC1)C(=O)OC
p731
sVDCC1431
p732
VCCO
p733
sVDCC1539
p734
VCC(C)(C#N)C1=CC(=CC(CN2C=NC=N2)=C1)C(C)(C)C#N
p735
sVDCC1828
p736
V[H][C@@]12C[C@@]3([H])[C@]4([H])C[C@]([H])(F)C5=CC(=O)CC[C@]5(C)[C@@]4([H])[C@@H](O)C[C@]3(C)[C@@]1(OC(C)(C)O2)C(=O)CO
p737
sVDCC1436
p738
VNS(=O)(=O)CC1=NOC2=CC=CC=C12
p739
sVDCC0450
p740
VCCCCCCCCCCCCCCCCOP([O-])(=O)OCC[N+](C)(C)C
p741
sVDCC0451
p742
VONC(=O)\u005cC=C\u005cC(\u005cC)=C\u005c[C@](C)([H])C(=O)C1=CC=C(N(C)C)C=C1
p743
sVDCC0027
p744
VCCC1=C(C)CN(C(=O)NCCC2=CC=C(C=C2)S(=O)(=O)NC(=O)NC2CCC(C)CC2)C1=O
p745
sVDCC0026
p746
VCOC1=C(OC)C(CS(=O)C2=NC3=C(N2)C=C(OC(F)F)C=C3)=NC=C1
p747
sVDCC1530
p748
V[H][C@@]12OC3=C(O)C=CC4=C3[C@@]11CCN(C)[C@]([H])(C4)[C@]1(O)CCC2=O
p749
sVDCC0024
p750
VCC[C@H]1OC(=O)[C@H](C)[C@@H](O[C@H]2C[C@@](C)(OC)[C@@H](O)[C@H](C)O2)[C@H](C)[C@@H](O[C@@H]2O[C@H](C)C[C@@H]([C@H]2O)N(C)C)[C@](C)(O)C[C@@H](C)CN(C)[C@H](C)[C@@H](O)[C@]1(C)O
p751
sVDCC1820
p752
V[H][C@@]12CCCN1C(=O)[C@H](CC1=CC=CC=C1)N1C(=O)[C@](C)(NC(=O)[C@H]3CN(C)[C@]4([H])CC5=CNC6=CC=CC(=C56)[C@@]4([H])C3)O[C@@]21O
p753
sVDCC1537
p754
VClCCN(N=O)C(=O)NC1CCCCC1
p755
sVDCC1822
p756
VCC[N+](C)(C)C1=CC(O)=CC=C1
p757
sVDCC0020
p758
VCC[C@H]1OC(=O)[C@H](C)[C@@H](O[C@H]2C[C@@](C)(OC)[C@@H](O)[C@H](C)O2)[C@H](C)[C@@H](O[C@@H]2O[C@H](C)C[C@@H]([C@H]2O)N(C)C)[C@](C)(O)C[C@@H](C)C(=O)[C@H](C)[C@@H](O)[C@]1(C)O
p759
sVDCC0188
p760
V[H][C@]1([C@@H](C)O)C(=O)N2C(C(O)=O)=C(S[C@@H]3CN[C@@H](C3)C(=O)N(C)C)[C@H](C)[C@]12[H]
p761
sVDCC0189
p762
VCCC1=C2CN3C(=CC4=C(COC(=O)[C@]4(O)CC)C3=O)C2=NC2=C1C=C(OC(=O)N1CCC(CC1)N1CCCCC1)C=C2
p763
sVDCC0087
p764
VCC1=CC=C(C=C1)C(=C/CN1CCCC1)\u005cC1=CC=CC=N1
p765
sVDCC1601
p766
VCCN(CCO)CCCC(C)NC1=C2C=CC(Cl)=CC2=NC=C1
p767
sVDCC0180
p768
V[H][C@@]12CC[C@@](O)(C#C)[C@@]1(C)CC[C@]1([H])[C@@]3([H])CCC(=O)C=C3CC[C@@]21[H]
p769
sVDCC0181
p770
VNCCCC[C@H](N[C@@H](CCC1=CC=CC=C1)C(O)=O)C(=O)N1CCC[C@H]1C(O)=O
p771
sVDCC0182
p772
V[Br-].C[N+]1(C)C2CCC1CC(C2)OC(=O)C(O)C1=CC=CC=C1
p773
sVDCC0183
p774
VC[N+]1=C(\u005cC=N\u005cO)C=CC=C1
p775
sVDCC0184
p776
V[H][C@@]12CC[C@](O)(C(=O)CO)[C@@]1(C)C[C@H](O)[C@@]1([H])[C@@]2([H])CCC2=CC(=O)CC[C@]12C
p777
sVDCC0185
p778
VCCCNC(C)C(=O)NC1=CC=CC=C1C
p779
sVDCC0186
p780
VCC(C=CC1=C(C)CCCC1(C)C)=CC=CC(C)=CC(O)=O
p781
sVDCC0187
p782
V[H][C@@]12C[C@@]3([H])C(=C(O)[C@]1(O)C(=O)C(C(N)=O)=C(O)[C@H]2N(C)C)C(=O)C1=C(O)C=CC=C1[C@@]3(C)O
p783
sVDCC0368
p784
VOC1=C(I)C=C(Cl)C2=C1N=CC=C2
p785
sVDCC1221
p786
V[H][C@@]12[C@@H](C)C3=C(C(O)=CC=C3)C(=O)C1=C(O)[C@]1(O)C(=O)C(C(N)=O)=C(O)[C@@H](N(C)C)[C@]1([H])[C@H]2O
p787
sVDCC0369
p788
V[H][C@@]12[C@@H]3SC[C@]4(NCCC5=C4C=C(OC)C(O)=C5)C(=O)OC[C@H](N1[C@@H](O)[C@@H]1CC4=CC(C)=C(OC)C(O)=C4[C@H]2N1C)C1=C2OCOC2=C(C)C(OC(C)=O)=C31
p789
sVDCC0113
p790
VC\u005cN=C(\u005cNCCSCC1=C(C)NC=N1)NC#N
p791
sVDCC0112
p792
V[H][C@@]12OC3=C(OC)C=CC4=C3[C@@]11CCN(C)[C@]([H])(C4)[C@]1(O)CCC2=O
p793
sVDCC0111
p794
VCC1=CN([C@H]2C[C@H](N=[N+]=[N-])[C@@H](CO)O2)C(=O)NC1=O
p795
sVDCC0110
p796
VCCN(CC)C(=O)C(=C\u005cC1=CC(=C(O)C(O)=C1)[N+]([O-])=O)\u005cC#N
p797
sVDCC0117
p798
VN[Pt](N)(Cl)Cl
p799
sVDCC0116
p800
V[H][C@]12CC3=C(C=C(OC)C=C3)[C@@]3(CCCC[C@]13[H])CCN2C
p801
sVDCC0115
p802
VCN[C@H](CC(C)C)C(=O)N[C@@H]1[C@H](O)C2=CC=C(OC3=C(O[C@@H]4O[C@H](CO)[C@@H](O)[C@H](O)[C@H]4O[C@H]4C[C@](C)(N)[C@H](O)[C@H](C)O4)C4=CC(=C3)[C@@H](NC(=O)[C@H](CC(N)=O)NC1=O)C(=O)N[C@@H]1C3=CC(=C(O)C=C3)C3=C(O)C=C(O)C=C3[C@H](NC(=O)[C@@H](NC1=O)[C@H](O)C1=CC
p803
sVDCC0114
p804
VCC(C)[C@H](NC(=O)N(C)CC1=CSC(=N1)C(C)C)C(=O)N[C@H](C[C@H](O)[C@H](CC1=CC=CC=C1)NC(=O)OCC1=CN=CS1)CC1=CC=CC=C1
p805
sVDCC0052
p806
V[H][C@]12SC(C)(C)[C@@H](N1C(=O)[C@H]2NC(=O)[C@H](NC(=O)N1CCN(CC)C(=O)C1=O)C1=CC=CC=C1)C(O)=O
p807
sVDCC0053
p808
VCN(C)CCC=C1C2=CC=CC=C2CCC2=CC=CC=C12
p809
sVDCC0119
p810
V[H][C@@]12C[C@H](N(C(=O)[C@H](C)N[C@@H](CCC3=CC=CC=C3)C(=O)OCC)[C@@]1([H])CCCC2)C(O)=O
p811
sVDCC0051
p812
V[H][C@@]12OC3=C(OC)C=CC4=C3[C@@]11CCN(C)[C@]([H])(C4)[C@]1([H])C=C[C@@H]2O
p813
sVDCC0056
p814
VCC[C@@H](CO)NCCN[C@@H](CC)CO
p815
sVDCC0057
p816
VCN(C)C(=N)NC(N)=N
p817
sVDCC0054
p818
VO=N[Fe--](C#N)(C#N)(C#N)(C#N)C#N
p819
sVDCC0055
p820
VCOC1=CC2=C(C=C1)N(C(=O)C1=CC=C(Cl)C=C1)C(C)=C2CC(O)=O
p821
sVDCC0232
p822
V[H][C@@]12CCN(C[C@@H]1C=C)[C@]([H])(C2)[C@@H](O)C1=C2C=C(OC)C=CC2=NC=C1
p823
sVDCC1227
p824
VC[C@@H]1CCN([C@H](C1)C(O)=O)C(=O)[C@H](CCCN=C(N)N)NS(=O)(=O)C1=CC=CC2=C1NC[C@H](C)C2
p825
sVDCC0230
p826
VCCNC(=O)CCC\u005cC=C/C[C@H]1[C@@H](O)C[C@@H](O)[C@@H]1\u005cC=C\u005c[C@@H](O)CCC1=CC=CC=C1
p827
sVDCC0231
p828
VCC1=C(SC=C1)C(=CCCN1CCC[C@H](C1)C(O)=O)C1=C(C)C=CS1
p829
sVDCC0236
p830
VCO[C@]12CC[C@@]3(C[C@@H]1[C@](C)(O)C(C)(C)C)[C@H]1CC4=C5C(O[C@@H]2[C@@]35CCN1CC1CC1)=C(O)C=C4
p831
sVDCC0237
p832
VNC(N)=NC1=NC(CSCCC(N)=NS(N)(=O)=O)=CS1
p833
sVDCC0234
p834
VNC12CC3CC(CC(C3)C1)C2
p835
sVDCC0235
p836
VCC1=NC=C(N1CCO)[N+]([O-])=O
p837
sVDCC1384
p838
VCC(=O)N(O)CCCCCNC(=O)CCC(=O)N(O)CCCCCNC(=O)CCC(=O)N(O)CCCCCN
p839
sVDCC0238
p840
VCCCCC(C)(O)C\u005cC=C\u005c[C@H]1[C@H](O)CC(=O)[C@@H]1CCCCCCC(=O)OC
p841
sVDCC0239
p842
VOCC1=C(O)C=CC(=C1)C(O)CNCCCCCCOCCCCC1=CC=CC=C1
p843
sVDCC1381
p844
VOC[C@@H](O)[C@@H](O)[C@H](O)[C@H](O)CO
p845
sVDCC1380
p846
VNC1=NC2=C(S1)C=C(OC(F)(F)F)C=C2
p847
sVDCC0089
p848
VCN1CCN(CCCN2C3=CC=CC=C3SC3=C2C=C(Cl)C=C3)CC1
p849
sVDCC0339
p850
VCOC1=NC=NC(NS(=O)(=O)C2=CC=C(N)C=C2)=C1OC
p851
sVDCC0338
p852
VO[Bi]1OC(=O)C2=CC=CC=C2O1
p853
sVDCC1548
p854
VCN(C)CCCN1C2=CC=CC=C2CCC2=C1C=C(Cl)C=C2
p855
sVDCC0333
p856
VN[C@@H](CC(=O)N1CCN2C(C1)=NN=C2C(F)(F)F)CC1=CC(F)=C(F)C=C1F
p857
sVDCC1546
p858
VClC1=CC=CC(N2CCN(CCCCOC3=CC4=C(CCC(=O)N4)C=C3)CC2)=C1Cl
p859
sVDCC0331
p860
VCOCCCOC1=C(OC)C=CC(C[C@@H](C[C@H](N)[C@@H](O)C[C@@H](C(C)C)C(=O)NCC(C)(C)C(N)=O)C(C)C)=C1
p861
sVDCC0330
p862
VCC1=NC(NC2=NC=C(S2)C(=O)NC2=C(C)C=CC=C2Cl)=CC(=N1)N1CCN(CCO)CC1
p863
sVDCC0337
p864
VNNC1=NN=CC2=CC=CC=C12
p865
sVDCC1542
p866
VCC(=O)NC1C(O)OC(COS(O)(=O)=O)C(OC2OC(C(OC3OC(CO)C(OC4OC(C(O)C(O)C4OS(O)(=O)=O)C(O)=O)C(OS(O)(=O)=O)C3NS(O)(=O)=O)C(O)C2OS(O)(=O)=O)C(O)=O)C1O
p867
sVDCC1541
p868
VOCCOCCN1CCN(CC1)C1=NC2=CC=CC=C2SC2=CC=CC=C12
p869
sVDCC0334
p870
VNC1=NC(=O)N(C=N1)[C@H]1C[C@H](O)[C@@H](CO)O1
p871
sVDCC0287
p872
VCC(CN1C2=CC=CC=C2SC2=CC=CC=C12)N(C)C
p873
sVDCC0303
p874
VCCC1=CN=C(CCOC2=CC=C(CC3SC(=O)NC3=O)C=C2)C=C1
p875
sVDCC1574
p876
V[Li+]
p877
sVDCC0021
p878
VCN1C=NC2=C1C(=O)N(C)C(=O)N2C
p879
sVDCC0247
p880
VCCCC1=NC2=C(C=C(C=C2C)C2=NC3=CC=CC=C3N2C)N1CC1=CC=C(C=C1)C1=CC=CC=C1C(O)=O
p881
sVDCC0246
p882
VCN1CCCCC1C(=O)NC1=C(C)C=CC=C1C
p883
sVDCC0245
p884
VN.N.O=C1O[Pt]OC(=O)C11CCC1
p885
sVDCC0244
p886
V[H][C@@]12CC[C@@](OC(C)=O)(C#C)[C@@]1(CC)CC[C@]1([H])[C@@]3([H])CC\u005cC(C=C3CC[C@@]21[H])=N/O
p887
sVDCC0243
p888
V[H][C@@]12OC3=C(OC)C=CC4=C3[C@@]11CCN(C)[C@]([H])(C4)[C@]1([H])CCC2=O
p889
sVDCC1641
p890
VOC(CNCC(O)C1CCC2=C(O1)C=CC(F)=C2)C1CCC2=C(O1)C=CC(F)=C2
p891
sVDCC1314
p892
VCOC1=C2OC(=O)C=CC2=CC2=C1OC=C2
p893
sVDCC0620
p894
V[H][C@](N)(CCC(O)=N[C@@]([H])(CS(=O)(=O)CCOP(=O)(N(CCCl)CCCl)N(CCCl)CCCl)C(O)=N[C@@]([H])(C(O)=O)C1=CC=CC=C1)C(O)=O
p895
sVDCC1545
p896
VCCN(CC)CCNC(=O)C1=CC(Cl)=C(N)C=C1OC
p897
sVDCC1097
p898
V[H][C@@]12CC[C@H](O)[C@@]1(C)CC[C@]1([H])C3=C(CC[C@@]21[H])C=C(O)C=C3
p899
sVDCC0248
p900
VClC1=CC2=C(C=C1)C(=C1CCNCC1)C1=C(CC2)C=CC=N1
p901
sVDCC0336
p902
VCCN(CC)CCNC(=O)C1=C(C)NC(\u005cC=C2/C(=O)NC3=C2C=C(F)C=C3)=C1C
p903
sVDCC0335
p904
V[H][C@@](C)(O)[C@]([H])(CC)N1N=CN(C1=O)C1=CC=C(C=C1)N1CCN(CC1)C1=CC=C(OC[C@]2([H])CO[C@](CN3C=NC=N3)(C2)C2=C(F)C=C(F)C=C2)C=C1
p905
sVDCC1164
p906
V[H][C@]1(NC(=O)[C@H](CCCCN)NC(=O)[C@@H](CC2=CNC3=C2C=CC=C3)NC(=O)[C@H](CC2=CC=CC=C2)NC(=O)[C@H](CSSC[C@H](NC1=O)C(=O)N[C@H](CO)[C@@H](C)O)NC(=O)[C@H](N)CC1=CC=CC=C1)[C@@H](C)O
p907
sVDCC1488
p908
V[O-][N+](=O)C1=CC2=C(NC(=O)CN=C2C2=CC=CC=C2Cl)C=C1
p909
sVDCC1367
p910
VFC1=CC=C(C=C1)[C@@H]1CCNC[C@H]1COC1=CC2=C(OCO2)C=C1
p911
sVDCC1365
p912
V[H][C@]12SC(C)(C)[C@@H](N1C(=O)[C@H]2NC(=O)C1=C(C)ON=C1C1=CC=CC=C1)C(O)=O
p913
sVDCC0802
p914
VCN1C(=O)C(O)=C(N=C1C(C)(C)NC(=O)C1=NN=C(C)O1)C(=O)NCC1=CC=C(F)C=C1
p915
sVDCC1363
p916
VCCCCCN(C)CCC(O)(P(O)(O)=O)P(O)(O)=O
p917
sVDCC1361
p918
VCCOC1=CC=CC=C1OCCN[C@H](C)CC1=CC(=C(OC)C=C1)S(N)(=O)=O
p919
sVDCC1368
p920
VCC(C)(C)C(=O)OCOP(=O)(COCCN1C=NC2=C(N)N=CN=C12)OCOC(=O)C(C)(C)C
p921
sVDCC0148
p922
VCN1CCN(CC2=CC=C(C=C2)C(=O)NC2=CC(NC3=NC=CC(=N3)C3=CN=CC=C3)=C(C)C=C2)CC1
p923
sVDCC0149
p924
V[H][C@@]12C[C@@H](O)[C@](O)(C(=O)CO)[C@@]1(C)C[C@H](O)[C@@]1(F)[C@@]2([H])CCC2=CC(=O)C=C[C@]12C
p925
sVDCC0144
p926
VCC(=O)NC[C@H]1CN(C(=O)O1)C1=CC(F)=C(C=C1)N1CCOCC1
p927
sVDCC0145
p928
VCC(C)NCC(O)COC1=CC=C(COCCOC(C)C)C=C1
p929
sVDCC0146
p930
VCCN(CC)CC1=C(O)C=CC(NC2=C3C=CC(Cl)=CC3=NC=C2)=C1
p931
sVDCC0147
p932
VCO[C@H]1\u005cC=C\u005cO[C@@]2(C)OC3=C(C2=O)C2=C(C(O)=C3C)C(=O)C(NC(=O)\u005cC(C)=C/C=C/[C@H](C)[C@H](O)[C@@H](C)[C@@H](O)[C@@H](C)[C@H](OC(C)=O)[C@@H]1C)=C1NC3(CCN(CC3)CC(C)C)N=C21
p933
sVDCC0140
p934
V[H][C@@]12C[C@@]3([H])[C@]4([H])C[C@]([H])(F)C5=CC(=O)C=C[C@]5(C)[C@@]4(F)[C@@H](O)C[C@]3(C)[C@@]1(OC(C)(C)O2)C(=O)CO
p935
sVDCC0141
p936
VCCC1(C)CC(=O)NC1=O
p937
sVDCC0142
p938
VNC(N)=NC(=O)C1=C(N)N=C(N)C(Cl)=N1
p939
sVDCC0143
p940
V[H][C@@]12[C@@H](O)[C@@]3([H])C(C(=O)C4=C(O)C=CC=C4[C@@]3(C)O)=C(O)[C@]1(O)C(=O)C(C(N)=O)=C(O)[C@H]2N(C)C
p941
sVDCC0156
p942
V[H][C@@]12CC[C@](O)(C(=O)CO)[C@@]1(C)CC(=O)[C@@]1([H])[C@@]2([H])CCC2=CC(=O)C=C[C@]12C
p943
sVDCC1525
p944
VC[C@@H]1O[C@H](C[C@H](N)[C@@H]1O)O[C@H]1C[C@@](O)(CC2=C1C(O)=C1C(=O)C3=CC=CC=C3C(=O)C1=C2O)C(C)=O
p945
sVDCC1503
p946
VO=C1N(CC2=CC=CC=C2)C2C[S+]3CCCC3C2N1CC1=CC=CC=C1
p947
sVDCC1502
p948
VCOC(=O)C1=C(C)NC(C)=C(C1C1=CC=CC=C1[N+]([O-])=O)C(=O)OC
p949
sVDCC1501
p950
VCOC1=C(OC)C=C(CC2=NC=CC3=CC(OC)=C(OC)C=C23)C=C1
p951
sVDCC1500
p952
V[H][C@]12SCC(COC(N)=O)=C(N1C(=O)[C@H]2NC(=O)C(=N/OC)\u005cC1=CC=CO1)C(O)=O
p953
sVDCC1507
p954
V[H][C@@]1(CC[C@@]2([H])[C@]3([H])CC[C@@]4([H])NC(=O)C=C[C@]4(C)[C@@]3([H])CC[C@]12C)C(=O)NC1=CC(=CC=C1C(F)(F)F)C(F)(F)F
p955
sVDCC1505
p956
V[H][C@@]12CCC[C@]1([H])CN(C2)NC(=O)NS(=O)(=O)C1=CC=C(C)C=C1
p957
sVDCC0665
p958
VCC1=C(N(CC2=CC=C(OCCN3CCCCCC3)C=C2)C2=C1C=C(O)C=C2)C1=CC=C(O)C=C1
p959
sVDCC1509
p960
VCOC1=CC=CC=C1OCCNCC(O)COC1=CC=CC2=C1C1=CC=CC=C1N2
p961
sVDCC1508
p962
VCC(O)(CS(=O)(=O)C1=CC=C(F)C=C1)C(=O)NC1=CC(=C(C=C1)C#N)C(F)(F)F
p963
sVDCC1267
p964
V[H][C@@]12CC[C@H](C(C)=O)[C@@]1(C)CC[C@@]1([H])[C@@]2([H])CCC2=CC(=O)CC[C@]12C
p965
sVDCC1468
p966
VCN1C=NC(=C1SC1=NC=NC2=C1NC=N2)[N+]([O-])=O
p967
sVDCC0420
p968
VNC1=[N+]([O-])C2=C(C=CC=C2)[N+]([O-])=N1
p969
sVDCC0468
p970
VO=C(OOC(=O)C1=CC=CC=C1)C1=CC=CC=C1
p971
sVDCC0467
p972
VCCCCNC1=CC=C(C=C1)C(=O)OCCN(C)C
p973
sVDCC1465
p974
VCCN(C)C(=O)OC1=CC=CC(=C1)[C@H](C)N(C)C
p975
sVDCC1466
p976
V[H][C@@]12CCC(=O)[C@@]1(C)CC[C@@]1([H])[C@@]2([H])CC(=C)C2=CC(=O)C=C[C@]12C
p977
sVDCC1830
p978
VNS(=O)(=O)C1=CC2=C(NCNS2(=O)=O)C=C1C(F)(F)F
p979
sVDCC0463
p980
V[H]\u005cC(CN1CCCC1)=C(\u005cC1=CC=C(C)C=C1)C1=CC=CC(=N1)C(\u005c[H])=C(/[H])C(O)=O
p981
sVDCC1461
p982
VC\u005cC(\u005cC=C\u005cC1=C(C)CCCC1(C)C)=C/C=C/C(/C)=C\u005cC(O)=O
p983
sVDCC0818
p984
V[Li+]
p985
sVDCC0063
p986
VOC(=O)COCCN1CCN(CC1)C(C1=CC=CC=C1)C1=CC=C(Cl)C=C1
p987
sVDCC0062
p988
VNC(=O)C1=NC=CN=C1
p989
sVDCC0388
p990
VOC1=CC=C(O)C=C1
p991
sVDCC0060
p992
VCC(C)NCC(O)COC1=CC=C(CC(N)=O)C=C1
p993
sVDCC0067
p994
V[H][C@@]12N(C)C3=CC(OC)=C(C=C3[C@@]11CCN3CC=C[C@@](CC)([C@@H](OC(C)=O)[C@@]2(O)C(=O)OC)[C@@]13[H])[C@]1(C[C@@]2([H])CN(CC(CC)=C2)CC2=C1NC1=CC=CC=C21)C(=O)OC
p995
sVDCC0066
p996
VOC(C1CCCCN1)C1=CC(=NC2=C1C=CC=C2C(F)(F)F)C(F)(F)F
p997
sVDCC0065
p998
VC[C@H]1[C@H](NC(=O)C(=N/OC(C)(C)C(=O)O)\u005cC2=CSC([NH3+])=N2)C(=O)N1S([O-])(=O)=O
p999
sVDCC0064
p1000
VCOC1=CC=C(C=C1)[C@@H]1SC2=CC=CC=C2N(CCN(C)C)C(=O)[C@@H]1OC(C)=O
p1001
sVDCC0069
p1002
VCN1CCN(CC1)C1=NC2=CC(Cl)=CC=C2NC2=CC=CC=C12
p1003
sVDCC0068
p1004
V[H][C@@]12C[C@@H](O)CN1C(=O)[C@@]([H])(NC(=O)[C@H](C[C@@H](O)[C@@H](O)NC(=O)[C@]1([H])[C@@H](O)[C@@H](C)CN1C(=O)[C@@]([H])(NC(=O)[C@@]([H])(NC2=O)[C@H](O)[C@@H](O)C1=CC=C(O)C=C1)[C@@H](C)O)NC(=O)C1=CC=C(C=C1)C1=CC=C(C=C1)C1=CC=C(OCCCCC)C=C1)[C@@H](C)O
p1005
sVDCC0565
p1006
VCC(C)OC(=O)C1=C(C)NC(N)=C(C1C1=CC=CC(=C1)[N+]([O-])=O)C(=O)OC1CN(C1)C(C1=CC=CC=C1)C1=CC=CC=C1
p1007
sVDCC0364
p1008
VCN1CC[C@@H]([C@H](O)C1)C1=C(O)C=C(O)C2=C1OC(=CC2=O)C1=CC=CC=C1Cl
p1009
sVDCC0365
p1010
VO[C@@H]1CC2=C(O[C@@H]1C1=CC(O)=C(O)C(O)=C1)C=C(O)C=C2O
p1011
sVDCC0209
p1012
VCN1C2=C(C=C(Cl)C=C2)C(=NCC1=O)C1=CC=CC=C1
p1013
sVDCC0360
p1014
VOC[C@H]1O[C@H](C[C@@H]1O)N1C=NC2=C1N=CN=C2O
p1015
sVDCC0361
p1016
VONC(=O)CCCCCCC(=O)NC1=CC=CC=C1
p1017
sVDCC0362
p1018
VO[C@@H]1CC[C@@]2(C)[C@@]([H])(CC[C@@]3(C)[C@@]2([H])[C@H](O)C[C@@]2([H])\u005cC([C@@H](OC(=O)C)C[C@]32C)=C(/CCC=C(C)C)C(O)=O)[C@@H]1C
p1019
sVDCC0363
p1020
VCO[C@@H]1C[C@@H](C)CC2=C(NCCN(C)C)C(=O)C=C(NC(=O)\u005cC(C)=C/C=C\u005c[C@@H](OC)[C@H](OC(N)=O)\u005cC(C)=C/[C@@H](C)[C@H]1O)C2=O
p1021
sVDCC0203
p1022
VNC(=O)C1=NN(C=N1)[C@@H]1O[C@H](CO)[C@@H](O)[C@H]1O
p1023
sVDCC0202
p1024
VCCN(CC1=CC=NC=C1)C(=O)C(CO)C1=CC=CC=C1
p1025
sVDCC0201
p1026
VCC1CC2=CC=CC=C2N1NC(=O)C1=CC(=C(Cl)C=C1)S(N)(=O)=O
p1027
sVDCC0200
p1028
V[H]C(C)(CC)CCCC(O)=N[C@@]([H])(CCN)C(O)=N[C@]([H])(C(O)=N[C@@]([H])(CCN)C(O)=N[C@@]1([H])CCN=C(O)C([H])(N=C(O)[C@@]([H])(CCN)N=C(O)[C@]([H])(CCN)N=C(O)[C@@]([H])(CC(C)C)N=C(O)C([H])(CC(C)C)N=C(O)[C@]([H])(CCN)N=C1O)[C@@]([H])(C)O)[C@@]([H])(C)O
p1029
sVDCC0207
p1030
V[H][C@@]12CC[C@@](OC(C)=O)(C#C)[C@@]1(C)CC[C@]1([H])[C@@]3([H])CC[C@H](OC(C)=O)C=C3CC[C@@]21[H]
p1031
sVDCC0206
p1032
VCC(C)C1=CC=CC(C(C)C)=C1O
p1033
sVDCC0205
p1034
V[Na+].CCCCCCCCCCCCOS([O-])(=O)=O
p1035
sVDCC1210
p1036
VCC(C)C[C@H](CN)CC(O)=O
p1037
sVDCC1599
p1038
VOC(=O)C1=CC=C(C=C1)N1N=C(N=C1C1=CC=CC=C1O)C1=CC=CC=C1O
p1039
sVDCC0190
p1040
V[H][C@@]12CC(=O)N1[C@@H](C(O)=O)\u005cC(O2)=C\u005cCO
p1041
sVDCC1590
p1042
V[H][C@@]12OC3=C(OC(C)=O)C=CC4=C3[C@@]11CCN(C)[C@]([H])(C4)[C@]1([H])C=C[C@@H]2OC(C)=O
p1043
sVDCC1593
p1044
VC[C@H](N)CC1=CC=CC=C1
p1045
sVDCC1594
p1046
V[H][C@@]1(CC[C@@]2([H])[C@]3([H])[C@@H](O)C[C@]4([H])C[C@H](O)CC[C@]4(C)[C@@]3([H])CC[C@]12C)[C@H](C)CCC(O)=O
p1047
sVDCC1595
p1048
VO=C(O[C@H]1CN2CCC1CC2)N1CCC2=CC=CC=C2[C@@H]1C1=CC=CC=C1
p1049
sVDCC1414
p1050
VCOC1=C(OC)C=C2C(=O)C(CC3CCN(CC4=CC=CC=C4)CC3)CC2=C1
p1051
sVDCC1699
p1052
V[H][C@@]12CC[C@@](O)(C#C)[C@@]1(CC)CC[C@]1([H])[C@@]3([H])CCC(C=C3CC[C@@]21[H])=NO
p1053
sVDCC0013
p1054
VOC[C@H]1O[C@@H]([C@H](O)[C@@H]1OP(O)(=O)O[C@]([H])(C)CNC(=O)CC[C@]1(C)[C@@H](CC(=O)N)[C@@]2([H])N([Co]C#N)\u005cC1=C(C)/C1=N/C(=C\u005cC3=N\u005cC(=C(C)/C4=N[C@]2(C)[C@@](C)(CC(=O)N)[C@@H]4CCC(=O)N)\u005c[C@@](C)(CC(=O)N)[C@@H]3CCC(=O)N)/C(C)(C)[C@@H]1CCC(=O)N)N1C=NC2=CC(C)=
p1055
sVDCC0151
p1056
VCC[C@H](C)[C@H](N)C1=N[C@@H](CS1)C(=O)N[C@@H](CC(C)C)C(=O)N[C@H](CCC(O)=O)C(=O)N[C@@H]([C@@H](C)CC)C(=O)N[C@H]1CCCCNC(=O)[C@H](CC(N)=O)NC(=O)[C@@H](CC(O)=O)NC(=O)[C@H](CC2=CNC=N2)NC(=O)[C@@H](CC2=CC=CC=C2)NC(=O)[C@@H](NC(=O)[C@@H](CCCN)NC1=O)[C@@H](C)CC
p1057
sVDCC1285
p1058
VCOC1=C(OC)C=C2C(N)=NC(=NC2=C1)N1CCN(CC1)C(=O)C1=CC=CO1
p1059
sVDCC1329
p1060
VCCCC(C)C1(CC)C(=O)NC(=S)NC1=O
p1061
sVDCC1737
p1062
VCC(C)C[C@H](NC(=O)[C@H](CCC1=CC=CC=C1)NC(=O)CN1CCOCC1)C(=O)N[C@@H](CC1=CC=CC=C1)C(=O)N[C@@H](CC(C)C)C(=O)[C@@]1(C)CO1
p1063
sVDCC1046
p1064
VCN(C)C(=O)[C@H]1CC[C@H](NC(=O)C(=O)NC2=NC=C(Cl)C=C2)[C@@H](C1)NC(=O)C1=NC2=C(CN(C)CC2)S1
p1065
sVDCC0204
p1066
VCCC(=O)N(C1CCN(CCC2=CC=CC=C2)CC1)C1=CC=CC=C1
p1067
sVDCC1412
p1068
VCC(CCC1=CC=C(O)C=C1)NCCC1=CC(O)=C(O)C=C1
p1069
sVDCC0168
p1070
VCC\u005cC(=C(/C1=CC=CC=C1)C1=CC=C(OCCN(C)C)C=C1)C1=CC=CC=C1
p1071
sVDCC1284
p1072
VCCOC(=O)C1(CCN(C)CC1)C1=CC=CC=C1
p1073
sVDCC1644
p1074
VOCC(CO)N[C@H]1C[C@](O)(CO)[C@@H](O)[C@H](O)[C@H]1O
p1075
sVDCC0150
p1076
VFC(F)(F)[C@]1(OC(=O)NC2=C1C=C(Cl)C=C2)C#CC1CC1
p1077
sVDCC1328
p1078
VCC(CCC1=CC=CC=C1)NCC(O)C1=CC(C(N)=O)=C(O)C=C1
p1079
sVDCC1280
p1080
VNC1=NC(=O)C2=C(N1)N(C=N2)[C@H]1C[C@H](O)[C@@H](CO)C1=C
p1081
sVDCC1282
p1082
VFC1=CC=C(C=C1)C(=O)CCCN1CCC(=CC1)N1C(=O)NC2=CC=CC=C12
p1083
sVDCC1224
p1084
VClCCNC(=O)N(CCCl)N=O
p1085
sVDCC1321
p1086
V[H][C@@]12N(C)C3=C(C=C(C(OC)=C3)[C@]3(C[C@@H]4CN(C[C@](O)(CC)C4)CCC4=C3NC3=CC=CC=C43)C(=O)OC)[C@@]11CCN3CC=C[C@@](CC)([C@@H](OC(C)=O)[C@]2(O)C(=O)OC)[C@@]13[H]
p1087
sVDCC1288
p1088
VCOC(=O)CCC1=C2NC(\u005cC=C3/N=C(/C=C4\u005cN\u005cC(=C/C5=N/C(=C\u005c2)/C(CCC(O)=O)=C5C)C(C=C)=C4C)C2=CC=C([C@@H](C(=O)OC)[C@@]32C)C(=O)OC)=C1C
p1089
sVDCC0242
p1090
VNNC(=O)C1=CC=NC=C1
p1091
sVDCC0241
p1092
VCC(C)(C(O)=O)C1=CC=C(C=C1)C(O)CCCN1CCC(CC1)C(O)(C1=CC=CC=C1)C1=CC=CC=C1
p1093
sVDCC0240
p1094
VCC(=O)OC1=CC=CC=C1C(O)=O
p1095
sVDCC0429
p1096
VCN(C)C\u005cC=C\u005cC(=O)NC1=C(O[C@H]2CCOC2)C=C2N=CN=C(NC3=CC(Cl)=C(F)C=C3)C2=C1
p1097
sVDCC1135
p1098
VCC(C)C[C@H](NC(=O)[C@@H](CCCNC(N)=O)NC(=O)[C@H](CC1=CC=C(O)C=C1)NC(=O)[C@H](CO)NC(=O)[C@@H](CC1=CN=CC=C1)NC(=O)[C@@H](CC1=CC=C(Cl)C=C1)NC(=O)[C@@H](CC1=CC2=CC=CC=C2C=C1)NC(C)=O)C(=O)N[C@@H](CCCNC(N)=N)C(=O)N1CCC[C@H]1C(=O)N[C@H](C)C(N)=O
p1099
sVDCC0165
p1100
VCOC1=C(OC)C=C(CCN(C)CCCC(C#N)(C(C)C)C2=CC(OC)=C(OC)C=C2)C=C1
p1101
sVDCC0520
p1102
VC[N+](C)(C)CC([O-])=O
p1103
sVDCC0162
p1104
V[H]C(=O)N1C(CNC2=CC=C(C=C2)C(=O)N[C@@H](CCC(O)=O)C(O)=O)CNC2=C1C(=O)NC(N)=N2
p1105
sVDCC0163
p1106
VC[C@H]1[C@H]2CC3=CC=C(O)C=C3[C@]1(C)CCN2CC=C(C)C
p1107
sVDCC1819
p1108
VOC(=O)C1(CCN(CCC(C#N)(C2=CC=CC=C2)C2=CC=CC=C2)CC1)C1=CC=CC=C1
p1109
sVDCC1422
p1110
VCC(C)(C)NCC(O)C1=CC(O)=CC(O)=C1
p1111
sVDCC1423
p1112
VCC1=NC2=C(CCN(C(=O)C3=CC=C(NC(=O)C4=CC=CC=C4C4=CC=CC=C4)C=C3)C3=CC=CC=C23)N1
p1113
sVDCC0038
p1114
VCCCC1=NC(=C(N1CC1=CC=C(C=C1)C1=C(C=CC=C1)C1=NN=NN1)C(O)=O)C(C)(C)O
p1115
sVDCC0039
p1116
VCN1C2=C(NC=N2)C(=O)N(C)C1=O
p1117
sVDCC1427
p1118
VCN1N=C(C(=O)N[C@@H]2C[C@@H]3CCC[C@H](C2)N3C)C2=C1C=CC=C2
p1119
sVDCC1811
p1120
VCC(C)NCC(O)COC1=CC=C(CCOCC2CC2)C=C1
p1121
sVDCC1810
p1122
VCN1CCC(CC1)=C1C2=CC=CC=C2CCC2=C1N=CC=C2
p1123
sVDCC1813
p1124
VOC[C@@H](NC(=O)C(Cl)Cl)[C@H](O)C1=CC=C(C=C1)[N+]([O-])=O
p1125
sVDCC0037
p1126
V[H][C@@]12CO[C@@]3(COS(N)(=O)=O)OC(C)(C)O[C@@]3([H])[C@]1([H])OC(C)(C)O2
p1127
sVDCC1815
p1128
V[H]\u005cC1=C(\u005c[H])/C(/C)=C([H])/[C@@]([H])(O)CC(=O)CC2=NC(=CO2)C(=O)N2CC[C@]([H])([C@]2([H])C(=O)O[C@]([H])(C(C)C)[C@]([H])(C)\u005cC([H])=C([H])\u005cC(O)=NC1)S(=O)(=O)CCN(CC)CC
p1129
sVDCC1814
p1130
VNS(=O)(=O)C1=C(Cl)C=C2NC=NS(=O)(=O)C2=C1
p1131
sVDCC0032
p1132
VO=C1NC(=O)C(N1)(C1=CC=CC=C1)C1=CC=CC=C1
p1133
sVDCC1816
p1134
V[H][C@]12C[C@@H](OC(=O)C3=CC(OC)=C(OC)C(OC)=C3)[C@H](OC)[C@@H](C(=O)OC)[C@@]1([H])C[C@@]1([H])N(CCC3=C1NC1=CC=CC=C31)C2
p1135
sVDCC1842
p1136
VCN(CC#C)CC1=CC=CC=C1
p1137
sVDCC0332
p1138
VCS(=O)(=O)CCNCC1=CC=C(O1)C1=CC2=C(C=C1)N=CN=C2NC1=CC(Cl)=C(OCC2=CC(F)=CC=C2)C=C1
p1139
sVDCC1846
p1140
VCN1C(CSCC(F)(F)F)NC2=CC(Cl)=C(C=C2S1(=O)=O)S(N)(=O)=O
p1141
sVDCC0100
p1142
VCNCCC(OC1=CC=C(C=C1)C(F)(F)F)C1=CC=CC=C1
p1143
sVDCC0101
p1144
VCNC1=NC2=C(C=C(Cl)C=C2)C(C2=CC=CC=C2)=N(=O)C1
p1145
sVDCC0102
p1146
VNCC[C@H](O)C(=O)N[C@@H]1C[C@H](N)[C@@H](O[C@H]2O[C@H](CN)[C@@H](O)[C@H](O)[C@H]2O)[C@H](O)[C@H]1O[C@H]1O[C@H](CO)[C@@H](O)[C@H](N)[C@H]1O
p1147
sVDCC0103
p1148
VNC1=CC=CC2=C1CN(C1CCC(=O)NC1=O)C2=O
p1149
sVDCC0104
p1150
VOC1=CC=C(C=C1)C1=C(C(=O)C2=CC=C(OCCN3CCCCC3)C=C2)C2=C(S1)C=C(O)C=C2
p1151
sVDCC0105
p1152
VCC1=CC=C(C=C1)C1=CC(=NN1C1=CC=C(C=C1)S(N)(=O)=O)C(F)(F)F
p1153
sVDCC1386
p1154
VCCC1=C2NC3=C(CCOC3(CC)CC(O)=O)C2=CC=C1
p1155
sVDCC0107
p1156
VCCN1C=C(C(O)=O)C(=O)C2=CC(F)=C(C=C12)N1CCN(C)CC1
p1157
sVDCC0108
p1158
VCN(C)C1=NC(=NC(=N1)N(C)C)N(C)C
p1159
sVDCC0109
p1160
VCCC(=O)OC(OP(=O)(CCCCC1=CC=CC=C1)CC(=O)N1C[C@@H](C[C@H]1C(O)=O)C1CCCCC1)C(C)C
p1161
sVDCC0169
p1162
VCCCCC1=NC(Cl)=C(CO)N1CC1=CC=C(C=C1)C1=CC=CC=C1C1=NNN=N1
p1163
sVDCC1434
p1164
VCN1C2=C(C3=CC=CC=C13)C(=O)C(CN1C=CN=C1C)CC2
p1165
sVDCC0225
p1166
VNC1=NC(=O)N(C=C1F)[C@@H]1CS[C@H](CO)O1
p1167
sVDCC1399
p1168
VOC(=O)C1=CC(=CC=C1O)\u005cN=N\u005cC1=CC=C(C=C1)S(=O)(=O)NC1=NC=CC=C1
p1169
sVDCC1256
p1170
VNC1=CC=C(C=C1)S(=O)(=O)NC1=NC=CC=N1
p1171
sVDCC1393
p1172
V[H][C@@]12C[C@@H](C)[C@](O)(C(=O)CCl)[C@@]1(C)C[C@H](O)[C@@]1(Cl)[C@@]2([H])CCC2=CC(=O)C=C[C@]12C
p1173
sVDCC1259
p1174
VNC[C@H](O)C1=CC(O)=C(O)C=C1
p1175
sVDCC1258
p1176
VCN(C)CCOC(C)(C1=CC=CC=C1)C1=CC=CC=N1
p1177
sVDCC1396
p1178
VCCCCS(=O)(=O)N[C@@H](CC1=CC=C(OCCCCC2CCNCC2)C=C1)C(O)=O
p1179
sVDCC1395
p1180
VCCCCC[C@H](O)C=C[C@H]1[C@H](O)CC(=O)[C@@H]1CCCCCCC(O)=O
p1181
sVDCC1495
p1182
VCC1=C(C=NO1)C(=O)NC1=CC=C(C=C1)C(F)(F)F
p1183
sVDCC1494
p1184
VCC(C)N1C(\u005cC=C\u005c[C@@H](O)C[C@@H](O)CC(O)=O)=C(C2=CC=CC=C12)C1=CC=C(F)C=C1
p1185
sVDCC0083
p1186
V[H][C@]12SC(C)(C)[C@@H](N1C(=O)[C@H]2NC(=O)[C@H](N)C1=CC=CC=C1)C(O)=O
p1187
sVDCC0082
p1188
VCN(CCOC1=CC=C(CC2SC(=O)NC2=O)C=C1)C1=CC=CC=N1
p1189
sVDCC1491
p1190
VCC[C@H]1[C@@H](CC2=CN=CN2C)COC1=O
p1191
sVDCC1559
p1192
VCOC1=CC=C(C[C@@H](C)NC[C@H](O)C2=CC(NC=O)=C(O)C=C2)C=C1
p1193
sVDCC1493
p1194
VCOC1=CC(NC(C)CCCN)=C2N=CC=CC2=C1
p1195
sVDCC0086
p1196
VCOC1=CC=CC=C1OCC(O)COC(N)=O
p1197
sVDCC0320
p1198
VCNC1(CCCCC1=O)C1=CC=CC=C1Cl
p1199
sVDCC0321
p1200
V[H][C@@]12C[C@H]3OC(CCC)O[C@@]3(C(=O)CO)[C@@]1(C)C[C@H](O)[C@@]1([H])[C@@]2([H])CCC2=CC(=O)C=C[C@]12C
p1201
sVDCC0322
p1202
VNCCN.CN1C2=C(NC=N2)C(=O)N(C)C1=O.CN1C2=C(NC=N2)C(=O)N(C)C1=O
p1203
sVDCC0323
p1204
V[H][C@]12[C@H](OC(=O)C3=CC=CC=C3)[C@]3(O)C[C@H](OC(=O)[C@H](O)[C@@H](NC(=O)C4=CC=CC=C4)C4=CC=CC=C4)C(C)=C([C@@H](OC(C)=O)C(=O)[C@]1(C)[C@@H](O)C[C@H]1OC[C@@]21OC(C)=O)C3(C)C
p1205
sVDCC0324
p1206
V[H][C@@](O)(CN1C[C@@]2([H])CCCC[C@@]2([H])C[C@@]1([H])C(O)=NC(C)(C)C)[C@]([H])(CC1=CC=CC=C1)N=C(O)[C@]([H])(CC(O)=N)NC(=O)C1=NC2=CC=CC=C2C=C1
p1207
sVDCC1551
p1208
VC[C@@H](CC1=CC=CC=C1)NC(=O)[C@@H](N)CCCCN
p1209
sVDCC0326
p1210
VN[C@@H](CC1=CC(O)=C(O)C=C1)C(O)=O
p1211
sVDCC0327
p1212
VFCOC(C(F)(F)F)C(F)(F)F
p1213
sVDCC0223
p1214
V[H][C@@]1(C[C@H](C)[C@]2([H])CC(=O)[C@H](C)\u005cC=C(C)\u005c[C@@H](O)[C@@H](OC)C(=O)[C@H](C)C[C@H](C)\u005cC=C\u005cC=C\u005cC=C(C)\u005c[C@H](C[C@]3([H])CC[C@@H](C)[C@@](O)(O3)C(=O)C(=O)N3CCCC[C@@]3([H])C(=O)O2)OC)CC[C@@H](O)[C@@H](C1)OC
p1215
sVDCC0270
p1216
VCCCCC1=NC2(CCCC2)C(=O)N1CC1=CC=C(C=C1)C1=CC=CC=C1C1=NNN=N1
p1217
sVDCC0378
p1218
VCCCCCCCCC1=CC=C(CCC(N)(CO)CO)C=C1
p1219
sVDCC0138
p1220
VOC(=O)CC1=CC=CC=C1NC1=C(Cl)C=CC=C1Cl
p1221
sVDCC1534
p1222
VCO[C@H]1\u005cC=C\u005cO[C@@]2(C)OC3=C(C2=O)C2=C(C(O)=C3C)C(O)=C(NC(=O)\u005cC(C)=C/C=C/[C@H](C)[C@H](O)[C@@H](C)[C@@H](O)[C@@H](C)[C@H](OC(C)=O)[C@@H]1C)C(\u005cC=N\u005cN1CCN(CC1)C1CCCC1)=C2O
p1223
sVDCC0254
p1224
VCN(C)CCOC(=O)C(C1=CC=CC=C1)C1(O)CCCC1
p1225
sVDCC0255
p1226
VCOC1=CC=C(CC(C)NCC(O)C2=CC(NC=O)=C(O)C=C2)C=C1
p1227
sVDCC0256
p1228
VNC1=NC(=O)N(C=C1)[C@@H]1O[C@H](CO)[C@@H](O)[C@@H]1O
p1229
sVDCC0257
p1230
VNC[C@@H]1O[C@H](O[C@@H]2[C@@H](CO)O[C@@H](O[C@@H]3[C@@H](O)[C@H](N)C[C@H](N)[C@H]3O[C@H]3O[C@H](CN)[C@@H](O)[C@H](O)[C@H]3N)[C@@H]2O)[C@H](N)[C@@H](O)[C@@H]1O
p1231
sVDCC0250
p1232
VO[C@@H](CC[C@@H]1[C@H](N(C1=O)C1=CC=C(F)C=C1)C1=CC=C(O)C=C1)C1=CC=C(F)C=C1
p1233
sVDCC0251
p1234
VOCCN(CCO)C1=NC2=C(N=C(N=C2N2CCCCC2)N(CCO)CCO)C(=N1)N1CCCCC1
p1235
sVDCC0252
p1236
V[H][C@@]12CC[C@@](O)(C#C)[C@@]1(C)CC[C@]1([H])C3=C(CC[C@@]21[H])C=C(O)C=C3
p1237
sVDCC0253
p1238
VCCN1C=C(C(O)=O)C(=O)C2=CC(F)=C(N3CCNC(C)C3)C(F)=C12
p1239
sVDCC1679
p1240
VCCN1CCCC1CNC(=O)C1=CC(=C(N)C=C1OC)S(=O)(=O)CC
p1241
sVDCC1678
p1242
VOCC(C)(CO)C(=O)O[C@@H]1CC[C@@H](C[C@@H](C)[C@]2([H])CC(=O)[C@H](C)\u005cC=C(C)\u005c[C@@H](O)[C@@H](OC)C(=O)[C@H](C)C[C@H](C)\u005cC=C\u005cC=C\u005cC=C(C)\u005c[C@@H](OC)C[C@]3([H])CC[C@@H](C)[C@@](O)(O3)C(=O)C(=O)N3CCCC[C@H]3C(=O)O2)C[C@H]1OC
p1243
sVDCC0258
p1244
VNCC1(CC(O)=O)CCCCC1
p1245
sVDCC0259
p1246
VCOC1=CC=CC2=C1C(=O)C1=C(O)C3=C(C[C@](O)(C[C@@H]3O[C@H]3C[C@H](N)[C@H](O)[C@H](C)O3)C(=O)CO)C(O)=C1C2=O
p1247
sVDCC0410
p1248
VCN1C=NC=C1[C@@](N)(C1=CC=C(Cl)C=C1)C1=CC2=C(C=C1)N(C)C(=O)C=C2C1=CC(Cl)=CC=C1
p1249
sVDCC0886
p1250
VCC(C)O
p1251
sVDCC0132
p1252
VNC(=O)N1C2=CC=CC=C2C=CC2=CC=CC=C12
p1253
sVDCC1240
p1254
V[H][C@]12[C@@H](C)C(S[C@]3([H])CN[C@@]([H])(C3)C(=O)NC3=CC=CC(=C3)C(O)=O)=C(N1C(=O)[C@]2([H])[C@@H](C)O)C(O)=O
p1255
sVDCC0314
p1256
VCCN[C@H]1CN(CCCOC)S(=O)(=O)C2=C1C=C(S2)S(N)(=O)=O
p1257
sVDCC0349
p1258
VN[C@@H](CSCCCC\u005cC=C(/NC(=O)[C@H]1CC1(C)C)C(=O)O)C(=O)O
p1259
sVDCC0317
p1260
VCC(C)(C)NCC(O)COC1=CC=CC2=C1C[C@H](O)[C@H](O)C2
p1261
sVDCC1172
p1262
VN[C@@H](CCCNC(N)=N)C(O)=O
p1263
sVDCC0346
p1264
V[H][C@@]12OC3=C(OC)C=CC4=C3[C@@]11CCN(C)[C@]([H])(C4)[C@]1([H])CC[C@@H]2O
p1265
sVDCC0311
p1266
VClCCNP1(=O)OCCCN1CCCl
p1267
sVDCC0416
p1268
VOC(=O)C1=NC(=O)NC(=O)N1
p1269
sVDCC0310
p1270
VCN(C)CCOC(C1=CC=CC=C1)C1=CC=CC=C1C
p1271
sVDCC1374
p1272
VCC(C)C1CC[C@@H](CC1)C(=O)N[C@H](CC1=CC=CC=C1)C(O)=O
p1273
sVDCC1376
p1274
VCC1=C(CCN2CCC(CC2)C2=NOC3=C2C=CC(F)=C3)C(=O)N2CCCCC2=N1
p1275
sVDCC1377
p1276
VCOC1=CC2=C(NC(=N2)[S@@](=O)CC2=NC=C(C)C(OC)=C2C)C=C1
p1277
sVDCC1370
p1278
VCCN(CC)CCOC(=O)C1=CC=C(N)C=C1
p1279
sVDCC0313
p1280
VCCC[C@@H]1C[C@H](N(C)C1)C(=O)NC(C(C)Cl)[C@H]1O[C@H](SC)[C@H](O)[C@@H](O)[C@H]1O
p1281
sVDCC1372
p1282
V[O-][N+](=O)OCC(CO[N+]([O-])=O)O[N+]([O-])=O
p1283
sVDCC0342
p1284
VCOC1=CC2=C(C(OC)=C1OC)C1=CC=C(OC)C(=O)C=C1C(CC2)NC(C)=O
p1285
sVDCC0312
p1286
V[H][C@@]12OC3=C(O)C=CC4=C3[C@@]11CCN(CC=C)[C@]([H])(C4)[C@]1(O)CCC2=O
p1287
sVDCC1234
p1288
VC[C@@H](O)[C@H](NC(=O)[C@@H](C)[C@H](O)[C@@H](C)NC(=O)[C@@H](NC(=O)C1=C(C)C(N)=NC(=N1)[C@H](CC(N)=O)NC[C@H](N)C(N)=O)[C@@H](OC1OC(CO)C(O)C(O)C1OC1OC(CO)C(O)C(OC(N)=O)C1O)C1=CN=CN1)C(=O)NCCC1=NC(=CS1)C1=NC(=CS1)C(=O)NCCC[S+](C)C
p1289
sVDCC0371
p1290
VCN1C(=O)C=C(N2CCC[C@@H](N)C2)N(CC2=C(C=CC=C2)C#N)C1=O
p1291
sVDCC0341
p1292
V[Na+].OC([O-])=O
p1293
sVDCC0179
p1294
VNC1=NC(=O)N(C=C1)[C@@H]1CS[C@H](CO)O1
p1295
sVDCC0178
p1296
VCC(C)NC1=C(N=CC=C1)N1CCN(CC1)C(=O)C1=CC2=C(N1)C=CC(NS(C)(=O)=O)=C2
p1297
sVDCC1552
p1298
V[H][C@@]12CCO[C@]1([H])OC[C@@H]2OC(=O)N[C@@H](CC1=CC=CC=C1)[C@H](O)CN(CC(C)C)S(=O)(=O)C1=CC=C(N)C=C1
p1299
sVDCC0058
p1300
V[Br-].[H][C@]12CC[C@]([H])(C[C@@H](C1)OC(=O)C(CO)C1=CC=CC=C1)[N@+]2(C)C(C)C
p1301
sVDCC0171
p1302
VCC(=O)CC(C1=CC=CC=C1)C1=C(O)C2=C(OC1=O)C=CC=C2
p1303
sVDCC0170
p1304
V[H][C@]12C[C@@H](O[C@@H]3O[C@H](C)[C@@H](O)[C@H](N)[C@@H]3O)\u005cC=C\u005cC=C\u005cC=C\u005cC=C\u005cC=C\u005cC=C\u005cC=C\u005c[C@H](C)[C@@H](O)[C@@H](C)[C@H](C)OC(=O)C[C@H](O)C[C@H](O)CC[C@@H](O)[C@H](O)C[C@H](O)C[C@](O)(C[C@H](O)[C@H]1C(O)=O)O2
p1305
sVDCC0173
p1306
VCOC1=C(C\u005cC=C(/C)CCC(=O)OCCN2CCOCC2)C(O)=C2C(=O)OCC2=C1C
p1307
sVDCC0172
p1308
VNC[C@H]1O[C@H](O[C@@H]2[C@@H](N)C[C@@H](N)[C@H](O[C@H]3O[C@H](CO)[C@@H](O)[C@H](N)[C@H]3O)[C@H]2O)[C@H](N)C[C@@H]1O
p1309
sVDCC0175
p1310
V[H][C@@]12CCCN1C(=O)[C@H](CC1=CC=CC=C1)N1C(=O)[C@](C)(NC(=O)[C@H]3CN(C)[C@]4([H])CC5=CNC6=CC=CC(=C56)C4=C3)O[C@@]21O
p1311
sVDCC0174
p1312
VNS(=O)(=O)C1=C(Cl)C=C(NCC2=CC=CO2)C(=C1)C(O)=O
p1313
sVDCC0177
p1314
V[H][C@@]12OC3=C(O)C=CC4=C3[C@@]11CCN(CC3CC3)[C@]([H])(C4)[C@]1(O)CCC2=O
p1315
sVDCC0176
p1316
V[O-][N+](=O)C1=CC=C(O1)\u005cC=N\u005cN1CC(=O)NC1=O
p1317
sVDCC0233
p1318
VCCOC1=C(C=CC(CC(=O)N[C@@H](CC(C)C)C2=CC=CC=C2N2CCCCC2)=C1)C(O)=O
p1319
sVDCC0249
p1320
VC[C@](N)(CC1=CC=C(O)C(O)=C1)C(O)=O
p1321
sVDCC0276
p1322
VCC(C)OC(=O)C(C)(C)OC1=CC=C(C=C1)C(=O)C1=CC=C(Cl)C=C1
p1323
s.