(dp1
VDCC0770
p2
c__builtin__
set
p3
((lp4
I6869
atRp5
sVDCC0777
p6
g3
((lp7
I10019
aI5156
aI2246
aI3815
aI5159
aI3791
aI2321
aI2324
aI2261
aI3702
atRp8
sVDCC1515
p9
g3
((lp10
I6530
aI6532
aI3269
aI1128
aI1129
aI6609
aI148
aI153
aI154
aI3356
atRp11
sVDCC0482
p12
g3
((lp13
I4988
aI6530
aI6532
aI4986
atRp14
sVDCC1459
p15
g3
((lp16
I3269
atRp17
sVDCC1561
p18
g3
((lp19
I3480
aI3482
aI3643
aI3486
atRp20
sVDCC1560
p21
g3
((lp22
I2740
atRp23
sVDCC1450
p24
g3
((lp25
I2099
atRp26
sVDCC1131
p27
g3
((lp28
I2205
aI2206
atRp29
sVDCC1455
p30
g3
((lp31
I153
aI154
aI3350
aI3351
atRp32
sVDCC1454
p33
g3
((lp34
I2908
atRp35
sVDCC0472
p36
g3
((lp37
I207
atRp38
sVDCC1218
p39
g3
((lp40
I3362
aI150
aI1128
aI1129
aI3351
aI1815
aI147
aI148
aI1813
aI3350
aI151
aI1816
aI1812
aI3354
aI3356
aI3358
aI3269
atRp41
sVDCC0322
p42
g3
((lp43
I3066
aI5139
aI134
atRp44
sVDCC1564
p45
g3
((lp46
I941
aI942
atRp47
sVDCC0070
p48
g3
((lp49
I5241
aI2099
aI367
atRp50
sVDCC0071
p51
g3
((lp52
I2554
aI2555
aI2556
aI2557
aI2559
atRp53
sVDCC0072
p54
g3
((lp55
I153
aI154
atRp56
sVDCC0073
p57
g3
((lp58
I774
aI775
aI776
aI779
aI781
aI783
aI759
atRp59
sVDCC0074
p60
g3
((lp61
I6337
aI6338
aI6339
aI6340
atRp62
sVDCC1567
p63
g3
((lp64
I3643
atRp65
sVDCC0076
p66
g3
((lp67
I196
aI775
aI776
aI779
aI782
aI783
aI784
aI785
aI4306
atRp68
sVDCC0077
p69
g3
((lp70
I2908
atRp71
sVDCC0079
p72
g3
((lp73
I673
aI5894
aI5159
aI3815
aI3791
aI2321
aI2322
aI2324
aI2260
aI5979
atRp74
sVDCC1857
p75
g3
((lp76
I7153
atRp77
sVDCC1856
p78
g3
((lp79
I6559
atRp80
sVDCC1850
p81
g3
((lp82
I6559
atRp83
sVDCC1852
p84
g3
((lp85
I6571
atRp86
sVDCC1637
p87
g3
((lp88
I1234
atRp89
sVDCC0596
p90
g3
((lp91
I203068
atRp92
sVDCC1639
p93
g3
((lp94
I10381
atRp95
sVDCC0218
p96
g3
((lp97
I2280
atRp98
sVDCC0219
p99
g3
((lp100
I760
aI762
aI759
atRp101
sVDCC1208
p102
g3
((lp103
I7153
atRp104
sVDCC0354
p105
g3
((lp106
I3269
atRp107
sVDCC0357
p108
g3
((lp109
I6257
atRp110
sVDCC0608
p111
g3
((lp112
I7298
atRp113
sVDCC1204
p114
g3
((lp115
I1128
atRp116
sVDCC1205
p117
g3
((lp118
I147
aI148
atRp119
sVDCC1207
p120
g3
((lp121
I1128
aI148
aI6532
aI3269
atRp122
sVDCC0603
p123
g3
((lp124
I2492
atRp125
sVDCC0601
p126
g3
((lp127
I3454
aI3455
atRp128
sVDCC1726
p129
g3
((lp130
I3156
atRp131
sVDCC1680
p132
g3
((lp133
I1803
atRp134
sVDCC1681
p135
g3
((lp136
I2064
atRp137
sVDCC1682
p138
g3
((lp139
I3552
aI3553
aI3557
atRp140
sVDCC0280
p141
g3
((lp142
I8856
atRp143
sVDCC0287
p144
g3
((lp145
I801
aI3269
aI1128
aI1129
aI808
aI148
aI1813
aI3356
aI805
atRp146
sVDCC0286
p147
g3
((lp148
I5468
atRp149
sVDCC1686
p150
g3
((lp151
I2159
atRp152
sVDCC1687
p153
g3
((lp154
I4067
aI5604
aI613
aI3055
aI818
aI1017
aI25
aI6714
aI10746
aI5605
atRp155
sVDCC1688
p156
g3
((lp157
I2321
aI2324
aI3791
atRp158
sVDCC1689
p159
g3
((lp160
I8600
atRp161
sVDCC0289
p162
g3
((lp163
I3269
atRp164
sVDCC0288
p165
g3
((lp166
I6240
aI1633
aI5422
atRp167
sVDCC1199
p168
g3
((lp169
I4129
aI6530
aI6531
aI6532
atRp170
sVDCC0423
p171
g3
((lp172
I2185
atRp173
sVDCC0421
p174
g3
((lp175
I1803
atRp176
sVDCC0853
p177
g3
((lp178
I2321
aI2322
aI3791
aI1436
aI5159
atRp179
sVDCC1703
p180
g3
((lp181
I3973
aI2798
atRp182
sVDCC0420
p183
g3
((lp184
I1436
atRp185
sVDCC1707
p186
g3
((lp187
I81027
aI7277
atRp188
sVDCC0038
p189
g3
((lp190
I185
atRp191
sVDCC0039
p192
g3
((lp193
I134
aI135
aI136
aI8654
aI5139
aI5141
aI5142
aI3066
atRp194
sVDCC1338
p195
g3
((lp196
I136
aI134
aI135
atRp197
sVDCC1339
p198
g3
((lp199
I7846
aI10383
atRp200
sVDCC1330
p201
g3
((lp202
I2562
atRp203
sVDCC1333
p204
g3
((lp205
I54106
aI2939
aI7124
atRp206
sVDCC0917
p207
g3
((lp208
I2209
aI2212
aI2213
aI2214
aI2215
aI712
aI713
aI714
aI715
aI9103
atRp209
sVDCC1335
p210
g3
((lp211
I367
atRp212
sVDCC1336
p213
g3
((lp214
I2224
aI5802
aI523
aI5791
aI5775
atRp215
sVDCC1191
p216
g3
((lp217
I3156
atRp218
sVDCC1436
p219
g3
((lp220
I768
aI4129
aI771
aI6329
aI6331
aI8911
aI23632
aI8913
aI6323
aI6325
aI6326
aI759
aI760
aI761
aI762
aI6328
aI765
aI767
atRp221
sVDCC1813
p222
g3
((lp223
I3678
atRp224
sVDCC1812
p225
g3
((lp226
I3269
atRp227
sVDCC0031
p228
g3
((lp229
I89832
aI2891
aI1137
aI2898
aI1139
aI2554
aI2555
aI2556
aI2557
aI2559
atRp230
sVDCC0051
p231
g3
((lp232
I4985
aI4986
aI4988
atRp233
sVDCC0033
p234
g3
((lp235
I3783
atRp236
sVDCC0427
p237
g3
((lp238
I1024
aI1017
aI1019
aI1021
aI983
atRp239
sVDCC0652
p240
g3
((lp241
I1909
aI1910
atRp242
sVDCC1024
p243
g3
((lp244
I3480
atRp245
sVDCC1149
p246
g3
((lp247
I2209
aI2212
aI2213
aI2214
aI2215
aI712
aI713
aI714
aI715
aI716
aI9103
aI3560
aI3559
atRp248
sVDCC1020
p249
g3
((lp250
I284
aI285
atRp251
sVDCC1143
p252
g3
((lp253
I7124
atRp254
sVDCC1142
p255
g3
((lp256
I3690
atRp257
sVDCC1140
p258
g3
((lp259
I3454
aI3455
atRp260
sVDCC1145
p261
g3
((lp262
I552
aI554
atRp263
sVDCC1144
p264
g3
((lp265
I2492
atRp266
sVDCC1357
p267
g3
((lp268
I7153
aI7155
atRp269
sVDCC0009
p270
g3
((lp271
I2209
aI931
aI2212
aI2213
aI2214
aI2215
aI712
aI713
aI714
aI715
aI716
aI9103
atRp272
sVDCC0008
p273
g3
((lp274
I2209
aI1956
aI2213
aI2214
aI2215
aI712
aI713
aI714
aI715
aI716
aI9103
aI2064
aI2212
atRp275
sVDCC0001
p276
g3
((lp277
I2209
aI1956
aI2213
aI2214
aI2215
aI712
aI713
aI714
aI715
aI716
aI9103
aI2212
atRp278
sVDCC1414
p279
g3
((lp280
I43
aI3356
atRp281
sVDCC1417
p282
g3
((lp283
I23649
aI5226
atRp284
sVDCC0002
p285
g3
((lp286
I3454
aI3455
atRp287
sVDCC1411
p288
g3
((lp289
I5241
aI2908
atRp290
sVDCC0007
p291
g3
((lp292
I2209
aI2212
aI2213
aI2214
aI2215
aI712
aI713
aI714
aI715
aI716
aI9103
aI7124
atRp293
sVDCC0006
p294
g3
((lp295
I3560
aI3561
aI3559
atRp296
sVDCC0139
p297
g3
((lp298
I5241
aI4306
aI2908
aI5321
atRp299
sVDCC1710
p300
g3
((lp301
I7852
atRp302
sVDCC0135
p303
g3
((lp304
I1128
aI1129
atRp305
sVDCC0134
p306
g3
((lp307
I153
aI154
aI3350
aI3351
atRp308
sVDCC0137
p309
g3
((lp310
I1636
atRp311
sVDCC0136
p312
g3
((lp313
I150
aI151
atRp314
sVDCC0131
p315
g3
((lp316
I1719
atRp317
sVDCC0146
p318
g3
((lp319
I3176
atRp320
sVDCC0132
p321
g3
((lp322
I6331
atRp323
sVDCC0315
p324
g3
((lp325
I4313
aI1636
aI4318
atRp326
sVDCC1241
p327
g3
((lp328
I5241
aI2099
atRp329
sVDCC1242
p330
g3
((lp331
I6256
aI6257
aI6258
atRp332
sVDCC0147
p333
g3
((lp334
I7184
aI3320
atRp335
sVDCC1244
p336
g3
((lp337
I89832
aI2891
aI1137
aI2898
aI1139
aI2554
aI2555
aI2556
aI2557
aI2559
atRp338
sVDCC1245
p339
g3
((lp340
I7298
atRp341
sVDCC1246
p342
g3
((lp343
I2908
atRp344
sVDCC1247
p345
g3
((lp346
I4985
aI4986
aI4988
atRp347
sVDCC1249
p348
g3
((lp349
I2280
aI2475
atRp350
sVDCC0141
p351
g3
((lp352
I8913
atRp353
sVDCC1482
p354
g3
((lp355
I1181
atRp356
sVDCC1481
p357
g3
((lp358
I2904
aI116443
aI2903
atRp359
sVDCC1486
p360
g3
((lp361
I5295
aI5296
aI8503
aI153
aI154
aI5594
atRp362
sVDCC0118
p363
g3
((lp364
I7846
aI10383
atRp365
sVDCC0098
p366
g3
((lp367
I3269
atRp368
sVDCC0099
p369
g3
((lp370
I240
aI10800
atRp371
sVDCC0096
p372
g3
((lp373
I1105
aI7153
atRp374
sVDCC0097
p375
g3
((lp376
I495
atRp377
sVDCC1488
p378
g3
((lp379
I2560
aI2561
aI2562
aI2563
aI2565
aI2566
aI2567
aI2569
aI2570
aI706
aI2554
aI2555
aI2556
aI2557
atRp380
sVDCC0095
p381
g3
((lp382
I2908
atRp383
sVDCC0092
p384
g3
((lp385
I3156
atRp386
sVDCC0093
p387
g3
((lp388
I7298
aI1719
atRp389
sVDCC0090
p390
g3
((lp391
I760
aI762
aI6559
aI3778
aI759
atRp392
sVDCC0723
p393
g3
((lp394
I2321
aI2324
aI3791
atRp395
sVDCC1370
p396
g3
((lp397
I6336
aI116443
aI6531
atRp398
sVDCC1745
p399
g3
((lp400
I51185
aI7124
aI5743
atRp401
sVDCC1744
p402
g3
((lp403
I9817
atRp404
sVDCC1742
p405
g3
((lp406
I2908
atRp407
sVDCC1749
p408
g3
((lp409
I3643
atRp410
sVDCC0261
p411
g3
((lp412
I153
aI154
atRp413
sVDCC0260
p414
g3
((lp415
I768
aI3778
aI771
aI759
aI760
aI762
aI6559
atRp416
sVDCC0263
p417
g3
((lp418
I6240
atRp419
sVDCC0265
p420
g3
((lp421
I3577
aI5742
aI5743
atRp422
sVDCC0267
p423
g3
((lp424
I8647
aI10060
aI3758
aI3762
aI19
aI1080
atRp425
sVDCC0269
p426
g3
((lp427
I801
aI805
aI9254
aI775
aI776
aI779
aI781
aI783
aI5136
aI808
aI4306
aI7125
aI7134
aI5153
atRp428
sVDCC0268
p429
g3
((lp430
I3553
aI834
aI836
aI240
aI4318
aI54205
aI7422
atRp431
sVDCC1664
p432
g3
((lp433
I3553
atRp434
sVDCC0797
p435
g3
((lp436
I154
atRp437
sVDCC1188
p438
g3
((lp439
I8566
atRp440
sVDCC1183
p441
g3
((lp442
I2352
atRp443
sVDCC1182
p444
g3
((lp445
I7421
atRp446
sVDCC1181
p447
g3
((lp448
I1152
aI2593
aI1158
aI6535
aI1160
aI1159
aI548596
atRp449
sVDCC0944
p450
g3
((lp451
I10203
atRp452
sVDCC0945
p453
g3
((lp454
I3609
atRp455
sVDCC0868
p456
g3
((lp457
I931
atRp458
sVDCC1345
p459
g3
((lp460
I2912
aI2913
aI2915
aI116443
aI2911
atRp461
sVDCC0355
p462
g3
((lp463
I10499
aI8648
aI2185
aI7153
aI2099
aI2100
atRp464
sVDCC1845
p465
g3
((lp466
I153
aI148
aI150
aI1812
atRp467
sVDCC0210
p468
g3
((lp469
I1128
aI1129
aI3269
atRp470
sVDCC0358
p471
g3
((lp472
I7421
atRp473
sVDCC1116
p474
g3
((lp475
I3973
aI2798
atRp476
sVDCC1117
p477
g3
((lp478
I5329
aI2243
aI5340
aI5054
atRp479
sVDCC1110
p480
g3
((lp481
I2209
aI2212
aI2213
aI2214
aI2215
aI712
aI713
aI714
aI715
aI716
aI9103
aI4049
aI7124
aI7133
atRp482
sVDCC1112
p483
g3
((lp484
I2798
atRp485
sVDCC0214
p486
g3
((lp487
I6530
aI6531
aI6532
aI148
aI150
aI153
aI154
atRp488
sVDCC1118
p489
g3
((lp490
I2057
atRp491
sVDCC0216
p492
g3
((lp493
I2908
atRp494
sVDCC1446
p495
g3
((lp496
I148
aI150
atRp497
sVDCC1443
p498
g3
((lp499
I1786
atRp500
sVDCC1838
p501
g3
((lp502
I6559
atRp503
sVDCC0768
p504
g3
((lp505
I3065
atRp506
sVDCC1524
p507
g3
((lp508
I6530
aI6531
aI6532
aI3269
aI1128
aI148
atRp509
sVDCC1521
p510
g3
((lp511
I1595
atRp512
sVDCC1520
p513
g3
((lp514
I5139
atRp515
sVDCC1831
p516
g3
((lp517
I153
aI148
aI150
aI1812
atRp518
sVDCC1830
p519
g3
((lp520
I6559
atRp521
sVDCC0199
p522
g3
((lp523
I4036
atRp524
sVDCC0198
p525
g3
((lp526
I185
atRp527
sVDCC0192
p528
g3
((lp529
I6331
atRp530
sVDCC0191
p531
g3
((lp532
I7153
aI7155
atRp533
sVDCC0442
p534
g3
((lp535
I7150
atRp536
sVDCC0197
p537
g3
((lp538
I1636
atRp539
sVDCC0196
p540
g3
((lp541
I5742
aI5743
atRp542
sVDCC0446
p543
g3
((lp544
I3454
aI3455
atRp545
sVDCC0081
p546
g3
((lp547
I3269
atRp548
sVDCC0080
p549
g3
((lp550
I2224
aI9453
atRp551
sVDCC0166
p552
g3
((lp553
I146
aI147
aI148
aI150
aI151
aI153
aI154
aI5053
atRp554
sVDCC0167
p555
g3
((lp556
I3350
aI3351
atRp557
sVDCC1849
p558
g3
((lp559
I3269
atRp560
sVDCC0049
p561
g3
((lp562
I5742
aI5743
atRp563
sVDCC0048
p564
g3
((lp565
I18
aI7915
aI36
aI9734
aI4967
atRp566
sVDCC0160
p567
g3
((lp568
I4985
aI4986
aI4988
atRp569
sVDCC1842
p570
g3
((lp571
I4129
atRp572
sVDCC0044
p573
g3
((lp574
I6336
aI5731
atRp575
sVDCC0047
p576
g3
((lp577
I6557
atRp578
sVDCC1846
p579
g3
((lp580
I6559
atRp581
sVDCC0040
p582
g3
((lp583
I6336
aI6331
aI1956
atRp584
sVDCC1844
p585
g3
((lp586
I6323
atRp587
sVDCC0169
p588
g3
((lp589
I185
atRp590
sVDCC1622
p591
g3
((lp592
I4069
atRp593
sVDCC0227
p594
g3
((lp595
I4881
atRp596
sVDCC0226
p597
g3
((lp598
I1636
atRp599
sVDCC1493
p600
g3
((lp601
I4835
aI3855
atRp602
sVDCC1624
p603
g3
((lp604
I54963
aI1806
atRp605
sVDCC0222
p606
g3
((lp607
I185
atRp608
sVDCC1628
p609
g3
((lp610
I7296
atRp611
sVDCC0738
p612
g3
((lp613
I154
atRp614
sVDCC0229
p615
g3
((lp616
I3269
atRp617
sVDCC0228
p618
g3
((lp619
I4860
atRp620
sVDCC1238
p621
g3
((lp622
I6336
atRp623
sVDCC0348
p624
g3
((lp625
I2475
atRp626
sVDCC1555
p627
g3
((lp628
I1956
atRp629
sVDCC1231
p630
g3
((lp631
I6530
aI6531
aI6532
atRp632
sVDCC0347
p633
g3
((lp634
I4129
aI6530
aI6531
aI6532
aI6571
aI150
aI151
atRp635
sVDCC0345
p636
g3
((lp637
I2560
atRp638
sVDCC0094
p639
g3
((lp640
I6240
aI7298
aI51727
atRp641
sVDCC0343
p642
g3
((lp643
I5241
aI4306
aI367
atRp644
sVDCC0340
p645
g3
((lp646
I2099
atRp647
sVDCC0613
p648
g3
((lp649
I1586
atRp650
sVDCC0283
p651
g3
((lp652
I9254
aI775
aI776
aI779
aI781
aI783
aI786
atRp653
sVDCC1505
p654
g3
((lp655
I7422
atRp656
sVDCC0282
p657
g3
((lp658
I5742
aI5327
aI7056
aI596
aI1080
aI2169
aI5743
aI5468
atRp659
sVDCC0325
p660
g3
((lp661
I4843
aI2908
aI301
aI190
atRp662
sVDCC0290
p663
g3
((lp664
I196
aI1803
aI3156
atRp665
sVDCC0291
p666
g3
((lp667
I4985
aI4988
atRp668
sVDCC0293
p669
g3
((lp670
I5731
aI5739
aI5327
aI5141
aI5142
aI5143
aI5144
atRp671
sVDCC0294
p672
g3
((lp673
I3156
atRp674
sVDCC0295
p675
g3
((lp676
I7298
atRp677
sVDCC0296
p678
g3
((lp679
I6403
aI462
aI2159
atRp680
sVDCC0297
p681
g3
((lp682
I3778
aI3779
aI3781
aI3783
aI4843
aI3757
aI4846
aI90134
atRp683
sVDCC0298
p684
g3
((lp685
I6530
aI6531
aI6532
aI3269
atRp686
sVDCC0299
p687
g3
((lp688
I1723
atRp689
sVDCC0327
p690
g3
((lp691
I513
aI2890
aI27032
aI4535
aI3736
aI2554
atRp692
sVDCC0834
p693
g3
((lp694
I2798
atRp695
sVDCC1508
p696
g3
((lp697
I367
atRp698
sVDCC1657
p699
g3
((lp700
I5753
aI7010
aI1956
aI7422
atRp701
sVDCC1659
p702
g3
((lp703
I7150
atRp704
sVDCC0908
p705
g3
((lp706
I5241
aI2099
atRp707
sVDCC0329
p708
g3
((lp709
I4137
aI81027
aI596
aI4133
aI4134
atRp710
sVDCC0904
p711
g3
((lp712
I2064
atRp713
sVDCC1820
p714
g3
((lp715
I3357
aI150
aI3351
atRp716
sVDCC1437
p717
g3
((lp718
I7421
atRp719
sVDCC1829
p720
g3
((lp721
I6530
atRp722
sVDCC1011
p723
g3
((lp724
I4803
atRp725
sVDCC0836
p726
g3
((lp727
I367
atRp728
sVDCC1017
p729
g3
((lp730
I1111
atRp731
sVDCC1824
p732
g3
((lp733
I2099
aI2100
atRp734
sVDCC0211
p735
g3
((lp736
I801
aI5443
aI773
aI808
aI4985
aI4986
aI4988
aI805
atRp737
sVDCC1530
p738
g3
((lp739
I4985
aI4988
atRp740
sVDCC0158
p741
g3
((lp742
I7298
aI471
aI2618
aI1719
atRp743
sVDCC0157
p744
g3
((lp745
I3689
aI3156
atRp746
sVDCC0404
p747
g3
((lp748
I100
aI5422
atRp749
sVDCC1400
p750
g3
((lp751
I6257
aI5914
aI5915
aI5916
atRp752
sVDCC0154
p753
g3
((lp754
I150
atRp755
sVDCC0153
p756
g3
((lp757
I6240
aI5422
atRp758
sVDCC0400
p759
g3
((lp760
I4790
atRp761
sVDCC0151
p762
g3
((lp763
I3416
aI2
atRp764
sVDCC1537
p765
g3
((lp766
I81551
atRp767
sVDCC1822
p768
g3
((lp769
I43
aI590
atRp770
sVDCC1823
p771
g3
((lp772
I2099
aI2100
atRp773
sVDCC0328
p774
g3
((lp775
I5465
atRp776
sVDCC0128
p777
g3
((lp778
I7298
atRp779
sVDCC0129
p780
g3
((lp781
I6325
aI6326
atRp782
sVDCC0122
p783
g3
((lp784
I8856
aI1956
atRp785
sVDCC0121
p786
g3
((lp787
I786
atRp788
sVDCC0126
p789
g3
((lp790
I203068
aI7277
atRp791
sVDCC0127
p792
g3
((lp793
I1636
atRp794
sVDCC0124
p795
g3
((lp796
I7153
atRp797
sVDCC0125
p798
g3
((lp799
I2099
atRp800
sVDCC0302
p801
g3
((lp802
I1719
atRp803
sVDCC0303
p804
g3
((lp805
I5468
atRp806
sVDCC0300
p807
g3
((lp808
I760
aI3778
aI759
aI476
aI6559
atRp809
sVDCC0301
p810
g3
((lp811
I495
atRp812
sVDCC0306
p813
g3
((lp814
I1136
aI6530
aI6531
atRp815
sVDCC0307
p816
g3
((lp817
I1719
atRp818
sVDCC0304
p819
g3
((lp820
I7153
atRp821
sVDCC0308
p822
g3
((lp823
I7296
aI3725
aI207
aI595
aI5594
aI5595
aI3551
atRp824
sVDCC1273
p825
g3
((lp826
I6530
aI6531
aI6532
atRp827
sVDCC1579
p828
g3
((lp829
I476
atRp830
sVDCC1479
p831
g3
((lp832
I1128
aI1129
atRp833
sVDCC1477
p834
g3
((lp835
I3614
aI3615
atRp836
sVDCC0140
p837
g3
((lp838
I2908
atRp839
sVDCC1474
p840
g3
((lp841
I2908
atRp842
sVDCC1473
p843
g3
((lp844
I846
atRp845
sVDCC0043
p846
g3
((lp847
I4985
aI4986
aI4988
atRp848
sVDCC0717
p849
g3
((lp850
I4352
atRp851
sVDCC0230
p852
g3
((lp853
I5731
aI8644
aI5733
atRp854
sVDCC0388
p855
g3
((lp856
I18
atRp857
sVDCC1775
p858
g3
((lp859
I3688
aI3678
atRp860
sVDCC0017
p861
g3
((lp862
I1644
atRp863
sVDCC0014
p864
g3
((lp865
I185
atRp866
sVDCC0015
p867
g3
((lp868
I1636
atRp869
sVDCC0399
p870
g3
((lp871
I5465
atRp872
sVDCC0013
p873
g3
((lp874
I4552
aI166785
aI4524
aI25974
aI4548
atRp875
sVDCC0156
p876
g3
((lp877
I3290
aI2908
atRp878
sVDCC0397
p879
g3
((lp880
I3553
aI834
aI836
aI54205
aI4318
atRp881
sVDCC0393
p882
g3
((lp883
I586
aI781
aI774
aI134
atRp884
sVDCC0019
p885
g3
((lp886
I1066
aI4758
aI4759
atRp887
sVDCC1407
p888
g3
((lp889
I8654
atRp890
sVDCC0377
p891
g3
((lp892
I3269
atRp893
sVDCC0376
p894
g3
((lp895
I1666
atRp896
sVDCC0375
p897
g3
((lp898
I148
aI150
atRp899
sVDCC0373
p900
g3
((lp901
I6530
aI148
atRp902
sVDCC0403
p903
g3
((lp904
I2939
atRp905
sVDCC0371
p906
g3
((lp907
I1803
atRp908
sVDCC0276
p909
g3
((lp910
I5465
atRp911
sVDCC0277
p912
g3
((lp913
I51185
aI2263
aI7124
aI4790
aI5743
atRp914
sVDCC0274
p915
g3
((lp916
I2194
atRp917
sVDCC0275
p918
g3
((lp919
I1786
aI6331
atRp920
sVDCC0272
p921
g3
((lp922
I24145
aI55867
aI9356
atRp923
sVDCC0273
p924
g3
((lp925
I3251
atRp926
sVDCC0379
p927
g3
((lp928
I706
aI2555
aI2556
atRp929
sVDCC0271
p930
g3
((lp931
I7150
aI116447
atRp932
sVDCC1589
p933
g3
((lp934
I7421
atRp935
sVDCC0787
p936
g3
((lp937
I1493
atRp938
sVDCC0256
p939
g3
((lp940
I5423
atRp941
sVDCC1584
p942
g3
((lp943
I1128
aI1129
atRp944
sVDCC1828
p945
g3
((lp946
I2908
atRp947
sVDCC0252
p948
g3
((lp949
I8856
aI2099
atRp950
sVDCC1676
p951
g3
((lp952
I3570
atRp953
sVDCC1727
p954
g3
((lp955
I8856
atRp956
sVDCC1679
p957
g3
((lp958
I3356
aI1813
atRp959
sVDCC1722
p960
g3
((lp961
I185
atRp962
sVDCC1678
p963
g3
((lp964
I2475
atRp965
sVDCC1194
p966
g3
((lp967
I6531
aI6571
aI9607
atRp968
sVDCC1197
p969
g3
((lp970
I2560
aI2561
aI2562
aI2563
aI2565
aI2566
aI2567
aI2569
aI2570
aI706
aI2554
aI2555
aI2556
aI2557
aI2559
atRp971
sVDCC0168
p972
g3
((lp973
I2099
aI2100
atRp974
sVDCC1293
p975
g3
((lp976
I6530
aI6531
aI6532
atRp977
sVDCC1356
p978
g3
((lp979
I148
aI150
atRp980
sVDCC0885
p981
g3
((lp982
I1803
atRp983
sVDCC1354
p984
g3
((lp985
I4306
aI2908
aI367
atRp986
sVDCC1355
p987
g3
((lp988
I59272
aI1636
atRp989
sVDCC0058
p990
g3
((lp991
I1128
aI1129
atRp992
sVDCC1351
p993
g3
((lp994
I6869
atRp995
sVDCC0059
p996
g3
((lp997
I3362
aI150
aI1128
aI1129
aI3351
aI1815
aI147
aI148
aI1813
aI3350
aI151
aI1816
aI1812
aI3354
aI3356
aI3358
aI3269
atRp998
sVDCC0494
p999
g3
((lp1000
I1576
atRp1001
sVDCC0082
p1002
g3
((lp1003
I5468
aI2182
atRp1004
sVDCC0684
p1005
g3
((lp1006
I2280
atRp1007
sVDCC0050
p1008
g3
((lp1009
I1956
atRp1010
sVDCC1121
p1011
g3
((lp1012
I5553
aI6383
aI3563
aI1438
aI1439
atRp1013
sVDCC1120
p1014
g3
((lp1015
I1441
aI1991
atRp1016
sVDCC1122
p1017
g3
((lp1018
I3554
atRp1019
sVDCC1124
p1020
g3
((lp1021
I3490
aI4036
aI1509
aI94121
aI4856
aI3480
aI1363
aI3416
aI3643
aI5925
atRp1022
sVDCC1127
p1023
g3
((lp1024
I3454
aI3455
atRp1025
sVDCC1126
p1026
g3
((lp1027
I3459
aI3460
atRp1028
sVDCC1129
p1029
g3
((lp1030
I3339
aI2260
aI2261
aI2263
aI2264
aI8829
atRp1031
sVDCC1433
p1032
g3
((lp1033
I476
aI6557
atRp1034
sVDCC1432
p1035
g3
((lp1036
I4985
aI4986
aI4988
atRp1037
sVDCC1431
p1038
g3
((lp1039
I2554
aI116443
aI124
aI125
aI2742
atRp1040
sVDCC0455
p1041
g3
((lp1042
I2064
atRp1043
sVDCC0452
p1044
g3
((lp1045
I1803
atRp1046
sVDCC0453
p1047
g3
((lp1048
I4843
aI4846
atRp1049
sVDCC0029
p1050
g3
((lp1051
I3066
aI3683
aI3156
atRp1052
sVDCC1434
p1053
g3
((lp1054
I3360
aI4988
aI3350
aI3351
atRp1055
sVDCC0027
p1056
g3
((lp1057
I3758
atRp1058
sVDCC0026
p1059
g3
((lp1060
I495
atRp1061
sVDCC0025
p1062
g3
((lp1063
I6256
aI6257
aI6258
aI5914
aI5915
aI5916
atRp1064
sVDCC1827
p1065
g3
((lp1066
I2162
atRp1067
sVDCC0023
p1068
g3
((lp1069
I1719
atRp1070
sVDCC0022
p1071
g3
((lp1072
I5148
aI5149
aI8654
atRp1073
sVDCC0021
p1074
g3
((lp1075
I5142
aI6261
aI134
aI135
atRp1076
sVDCC0459
p1077
g3
((lp1078
I2902
atRp1079
sVDCC0189
p1080
g3
((lp1081
I7150
aI116447
atRp1082
sVDCC1601
p1083
g3
((lp1084
I54106
aI51284
atRp1085
sVDCC0180
p1086
g3
((lp1087
I5241
atRp1088
sVDCC0181
p1089
g3
((lp1090
I59272
aI1636
atRp1091
sVDCC0182
p1092
g3
((lp1093
I1128
aI1129
atRp1094
sVDCC0183
p1095
g3
((lp1096
I43
aI590
atRp1097
sVDCC0184
p1098
g3
((lp1099
I2908
aI301
atRp1100
sVDCC0185
p1101
g3
((lp1102
I6331
atRp1103
sVDCC0186
p1104
g3
((lp1105
I9052
aI6257
aI6258
aI8854
aI216
aI5916
aI190
atRp1106
sVDCC0187
p1107
g3
((lp1108
I5621
atRp1109
sVDCC0112
p1110
g3
((lp1111
I4985
aI4986
aI4988
atRp1112
sVDCC0111
p1113
g3
((lp1114
I7015
atRp1115
sVDCC0110
p1116
g3
((lp1117
I1312
atRp1118
sVDCC0116
p1119
g3
((lp1120
I10280
aI116443
aI6532
atRp1121
sVDCC0053
p1122
g3
((lp1123
I6530
aI6532
aI3269
aI3751
aI1128
aI1129
aI146
aI3752
aI4914
aI4915
aI148
aI3350
aI3785
aI3736
aI4985
aI4986
aI3356
aI150
atRp1124
sVDCC0119
p1125
g3
((lp1126
I1636
atRp1127
sVDCC0204
p1128
g3
((lp1129
I4985
aI4986
aI4988
atRp1130
sVDCC0057
p1131
g3
((lp1132
I5564
atRp1133
sVDCC0054
p1134
g3
((lp1135
I4881
atRp1136
sVDCC0055
p1137
g3
((lp1138
I5320
aI2739
aI5468
aI5742
aI5743
atRp1139
sVDCC0232
p1140
g3
((lp1141
I6331
aI3757
aI3775
atRp1142
sVDCC1227
p1143
g3
((lp1144
I2147
atRp1145
sVDCC1224
p1146
g3
((lp1147
I2936
atRp1148
sVDCC0239
p1149
g3
((lp1150
I154
atRp1151
sVDCC0236
p1152
g3
((lp1153
I4985
aI4986
aI4988
atRp1154
sVDCC0234
p1155
g3
((lp1156
I116443
aI1813
atRp1157
sVDCC0238
p1158
g3
((lp1159
I5733
aI5734
atRp1160
sVDCC1386
p1161
g3
((lp1162
I6256
aI5742
aI5743
atRp1163
sVDCC1380
p1164
g3
((lp1165
I23657
aI6331
atRp1166
sVDCC0089
p1167
g3
((lp1168
I1813
atRp1169
sVDCC0629
p1170
g3
((lp1171
I945
atRp1172
sVDCC1548
p1173
g3
((lp1174
I6530
aI6532
aI2950
aI3356
aI3357
aI3358
atRp1175
sVDCC0333
p1176
g3
((lp1177
I1803
atRp1178
sVDCC0620
p1179
g3
((lp1180
I2950
atRp1181
sVDCC0331
p1182
g3
((lp1183
I5972
atRp1184
sVDCC0622
p1185
g3
((lp1186
I142
atRp1187
sVDCC0337
p1188
g3
((lp1189
I5033
aI8639
atRp1190
sVDCC1542
p1191
g3
((lp1192
I462
aI2159
atRp1193
sVDCC1541
p1194
g3
((lp1195
I3362
aI150
aI1128
aI1129
aI3351
aI1815
aI146
aI147
aI148
aI1813
aI3350
aI151
aI1816
aI1812
aI3354
aI3356
aI3358
aI3269
atRp1196
sVDCC0334
p1197
g3
((lp1198
I1786
atRp1199
sVDCC0088
p1200
g3
((lp1201
I7298
atRp1202
sVDCC0075
p1203
g3
((lp1204
I146
aI147
aI148
atRp1205
sVDCC1577
p1206
g3
((lp1207
I801
aI805
aI775
aI808
aI6285
aI7125
aI6711
aI27032
aI831
aI7134
aI1311
atRp1208
sVDCC1574
p1209
g3
((lp1210
I2932
aI2892
aI3613
aI3612
atRp1211
sVDCC0247
p1212
g3
((lp1213
I185
aI5468
atRp1214
sVDCC0246
p1215
g3
((lp1216
I6336
atRp1217
sVDCC0244
p1218
g3
((lp1219
I5241
aI2099
atRp1220
sVDCC0243
p1221
g3
((lp1222
I4985
aI4988
atRp1223
sVDCC1641
p1224
g3
((lp1225
I153
aI154
atRp1226
sVDCC0241
p1227
g3
((lp1228
I3269
atRp1229
sVDCC1546
p1230
g3
((lp1231
I3362
aI150
aI1128
aI1129
aI3351
aI1815
aI147
aI148
aI1813
aI3350
aI151
aI1816
aI1812
aI3354
aI3356
aI3358
aI3269
atRp1232
sVDCC1545
p1233
g3
((lp1234
I1128
aI3360
aI1813
atRp1235
sVDCC1097
p1236
g3
((lp1237
I2099
atRp1238
sVDCC0248
p1239
g3
((lp1240
I3269
atRp1241
sVDCC0330
p1242
g3
((lp1243
I7525
aI2534
aI3815
aI5159
aI1969
aI6777
aI25
aI6714
aI27
aI3932
atRp1244
sVDCC0336
p1245
g3
((lp1246
I5156
aI3815
aI5159
aI3791
aI2321
aI2322
aI2324
aI1436
atRp1247
sVDCC0440
p1248
g3
((lp1249
I81027
atRp1250
sVDCC1165
p1251
g3
((lp1252
I3454
aI3455
atRp1253
sVDCC1164
p1254
g3
((lp1255
I6752
aI6755
aI6751
atRp1256
sVDCC1166
p1257
g3
((lp1258
I5020
atRp1259
sVDCC1161
p1260
g3
((lp1261
I3683
aI3140
aI2213
aI3688
aI3690
aI909
aI942
aI9103
aI920
aI7449
aI3685
atRp1262
sVDCC1160
p1263
g3
((lp1264
I2492
aI3973
atRp1265
sVDCC1162
p1266
g3
((lp1267
I1441
aI1991
atRp1268
sVDCC0142
p1269
g3
((lp1270
I6337
aI6338
aI6339
aI6340
aI40
aI41
aI5328
aI6548
aI26
atRp1271
sVDCC1367
p1272
g3
((lp1273
I1128
aI1129
aI6530
aI6532
aI3356
atRp1274
sVDCC1363
p1275
g3
((lp1276
I2224
atRp1277
sVDCC1361
p1278
g3
((lp1279
I146
aI147
aI148
atRp1280
sVDCC0148
p1281
g3
((lp1282
I5156
aI3815
aI5159
aI780
aI4914
aI25
aI1436
atRp1283
sVDCC0149
p1284
g3
((lp1285
I2908
atRp1286
sVDCC0145
p1287
g3
((lp1288
I153
aI154
atRp1289
sVDCC0410
p1290
g3
((lp1291
I6531
atRp1292
sVDCC0411
p1293
g3
((lp1294
I1719
atRp1295
sVDCC0416
p1296
g3
((lp1297
I116443
aI6869
atRp1298
sVDCC0417
p1299
g3
((lp1300
I596
atRp1301
sVDCC0414
p1302
g3
((lp1303
I8913
aI9900
aI759
atRp1304
sVDCC1353
p1305
g3
((lp1306
I2560
aI2561
aI2562
aI2563
aI2565
aI2566
aI2567
aI2569
aI2570
aI2554
aI2555
aI2556
aI2557
aI2559
atRp1307
sVDCC1525
p1308
g3
((lp1309
I7153
atRp1310
sVDCC1502
p1311
g3
((lp1312
I801
aI805
aI775
aI776
aI779
aI781
aI783
aI808
aI3736
atRp1313
sVDCC1501
p1314
g3
((lp1315
I10846
aI5142
atRp1316
sVDCC0700
p1317
g3
((lp1318
I186
atRp1319
sVDCC0665
p1320
g3
((lp1321
I2099
aI2100
atRp1322
sVDCC1509
p1323
g3
((lp1324
I7412
aI2697
aI3757
aI4879
aI148
aI153
aI154
aI7422
atRp1325
sVDCC0666
p1326
g3
((lp1327
I4255
atRp1328
sVDCC1267
p1329
g3
((lp1330
I5241
aI4306
aI2099
aI1586
atRp1331
sVDCC1468
p1332
g3
((lp1333
I3251
atRp1334
sVDCC0469
p1335
g3
((lp1336
I5321
atRp1337
sVDCC1465
p1338
g3
((lp1339
I43
aI590
atRp1340
sVDCC0465
p1341
g3
((lp1342
I6241
atRp1343
sVDCC1461
p1344
g3
((lp1345
I5914
atRp1346
sVDCC0460
p1347
g3
((lp1348
I1025
aI1020
aI1022
atRp1349
sVDCC1040
p1350
g3
((lp1351
I3480
atRp1352
sVDCC0063
p1353
g3
((lp1354
I3269
atRp1355
sVDCC0061
p1356
g3
((lp1357
I495
atRp1358
sVDCC0060
p1359
g3
((lp1360
I153
atRp1361
sVDCC0067
p1362
g3
((lp1363
I203068
atRp1364
sVDCC0066
p1365
g3
((lp1366
I3040
aI3039
aI135
atRp1367
sVDCC0064
p1368
g3
((lp1369
I786
atRp1370
sVDCC0383
p1371
g3
((lp1372
I2280
atRp1373
sVDCC0069
p1374
g3
((lp1375
I3362
aI3350
aI50632
aI1129
aI3351
aI1128
aI3356
aI147
aI148
aI1813
aI150
aI1815
aI1812
aI3354
aI151
aI3358
aI3269
atRp1376
sVDCC0387
p1377
g3
((lp1378
I5731
atRp1379
sVDCC0213
p1380
g3
((lp1381
I808
aI801
aI1812
aI1813
aI805
atRp1382
sVDCC0565
p1383
g3
((lp1384
I775
atRp1385
sVDCC0364
p1386
g3
((lp1387
I1024
aI1025
aI1956
aI5837
aI983
aI1017
aI1019
aI1020
aI1021
aI1022
atRp1388
sVDCC0209
p1389
g3
((lp1390
I2560
aI2561
aI2562
aI2563
aI2565
aI2566
aI2567
aI2569
aI2570
aI706
aI2554
aI2555
aI2556
atRp1391
sVDCC0361
p1392
g3
((lp1393
I8841
aI3066
aI3065
aI10013
aI55869
atRp1394
sVDCC0363
p1395
g3
((lp1396
I3320
atRp1397
sVDCC0203
p1398
g3
((lp1399
I22978
aI132
aI3614
atRp1400
sVDCC0202
p1401
g3
((lp1402
I1128
aI1129
atRp1403
sVDCC0201
p1404
g3
((lp1405
I3784
aI3753
atRp1406
sVDCC0811
p1407
g3
((lp1408
I10060
atRp1409
sVDCC0207
p1410
g3
((lp1411
I5241
aI2099
atRp1412
sVDCC0206
p1413
g3
((lp1414
I2561
aI2562
aI6325
aI6326
aI6329
atRp1415
sVDCC1210
p1416
g3
((lp1417
I773
atRp1418
sVDCC0016
p1419
g3
((lp1420
I5689
aI5690
aI5707
aI5708
aI5693
atRp1421
sVDCC0152
p1422
g3
((lp1423
I23475
aI4837
atRp1424
sVDCC1590
p1425
g3
((lp1426
I4985
aI4986
aI4988
atRp1427
sVDCC1593
p1428
g3
((lp1429
I6571
aI6530
aI6531
aI148
aI147
atRp1430
sVDCC1594
p1431
g3
((lp1432
I101930400
atRp1433
sVDCC1595
p1434
g3
((lp1435
I1128
aI1129
atRp1436
sVDCC1693
p1437
g3
((lp1438
I941
aI942
atRp1439
sVDCC1692
p1440
g3
((lp1441
I7124
atRp1442
sVDCC1690
p1443
g3
((lp1444
I2740
atRp1445
sVDCC0012
p1446
g3
((lp1447
I2209
aI2212
aI2213
aI2214
aI2215
aI712
aI713
aI714
aI715
aI9103
aI7422
atRp1448
sVDCC1699
p1449
g3
((lp1450
I5241
atRp1451
sVDCC0194
p1452
g3
((lp1453
I8856
aI2099
aI2100
atRp1454
sVDCC0003
p1455
g3
((lp1456
I3454
aI3455
atRp1457
sVDCC0398
p1458
g3
((lp1459
I3251
aI3614
atRp1460
sVDCC0741
p1461
g3
((lp1462
I2740
atRp1463
sVDCC1285
p1464
g3
((lp1465
I146
aI147
aI148
aI3757
aI90134
atRp1466
sVDCC0011
p1467
g3
((lp1468
I819
aI5478
aI5535
atRp1469
sVDCC1736
p1470
g3
((lp1471
I5228
aI7422
aI7423
atRp1472
sVDCC1737
p1473
g3
((lp1474
I5696
aI5698
aI5699
aI5689
aI5690
aI5693
atRp1475
sVDCC1046
p1476
g3
((lp1477
I2159
atRp1478
sVDCC1733
p1479
g3
((lp1480
I1723
atRp1481
sVDCC1412
p1482
g3
((lp1483
I153
aI154
atRp1484
sVDCC0849
p1485
g3
((lp1486
I7056
aI2147
aI2153
aI1356
aI2157
aI10544
aI5104
aI2677
aI5627
aI5054
aI5269
atRp1487
sVDCC1284
p1488
g3
((lp1489
I2902
aI2903
aI2904
aI2905
aI4986
aI2906
atRp1490
sVDCC1644
p1491
g3
((lp1492
I8972
atRp1493
sVDCC1329
p1494
g3
((lp1495
I89832
aI2891
aI1137
aI2898
aI1139
aI2166
aI2554
aI2555
aI2556
aI2557
aI2559
atRp1496
sVDCC1328
p1497
g3
((lp1498
I153
aI154
aI147
aI148
atRp1499
sVDCC1282
p1500
g3
((lp1501
I148
aI1813
atRp1502
sVDCC1098
p1503
g3
((lp1504
I9900
atRp1505
sVDCC1321
p1506
g3
((lp1507
I7283
aI203068
aI7846
aI51174
aI3725
atRp1508
sVDCC0969
p1509
g3
((lp1510
I241
atRp1511
sVDCC0018
p1512
g3
((lp1513
I6530
aI6532
aI4985
aI4986
aI116443
aI4988
aI3358
atRp1514
sVDCC0429
p1515
g3
((lp1516
I2064
aI2066
aI1956
atRp1517
sVDCC0932
p1518
g3
((lp1519
I10038
aI142
atRp1520
sVDCC1138
p1521
g3
((lp1522
I2209
aI2212
aI2213
aI2214
aI2215
aI712
aI713
aI714
aI715
aI716
aI9103
aI945
atRp1523
sVDCC1136
p1524
g3
((lp1525
I2690
aI5618
atRp1526
sVDCC1137
p1527
g3
((lp1528
I2209
aI2212
aI2213
aI2214
aI2215
aI712
aI713
aI714
aI715
aI716
aI9103
aI7448
aI3674
aI3690
atRp1529
sVDCC1135
p1530
g3
((lp1531
I3973
aI2798
atRp1532
sVDCC1132
p1533
g3
((lp1534
I3480
aI3643
atRp1535
sVDCC1133
p1536
g3
((lp1537
I3480
aI3643
atRp1538
sVDCC1649
p1539
g3
((lp1540
I136
aI134
aI135
atRp1541
sVDCC0165
p1542
g3
((lp1543
I6532
aI773
aI774
aI775
aI776
aI779
aI3757
aI782
aI783
aI784
aI785
aI8913
aI6331
aI8911
atRp1544
sVDCC0249
p1545
g3
((lp1546
I150
atRp1547
sVDCC0162
p1548
g3
((lp1549
I7298
atRp1550
sVDCC0163
p1551
g3
((lp1552
I10280
aI4986
aI4988
atRp1553
sVDCC1819
p1554
g3
((lp1555
I4988
atRp1556
sVDCC1422
p1557
g3
((lp1558
I154
atRp1559
sVDCC1423
p1560
g3
((lp1561
I552
aI554
atRp1562
sVDCC1424
p1563
g3
((lp1564
I2099
atRp1565
sVDCC1425
p1566
g3
((lp1567
I2224
atRp1568
sVDCC0424
p1569
g3
((lp1570
I3615
atRp1571
sVDCC1811
p1572
g3
((lp1573
I153
atRp1574
sVDCC1810
p1575
g3
((lp1576
I3269
atRp1577
sVDCC0036
p1578
g3
((lp1579
I153
aI154
atRp1580
sVDCC0037
p1581
g3
((lp1582
I760
aI2897
aI2554
aI6323
aI762
atRp1583
sVDCC1814
p1584
g3
((lp1585
I6559
atRp1586
sVDCC0032
p1587
g3
((lp1588
I6323
aI6331
atRp1589
sVDCC1816
p1590
g3
((lp1591
I6571
atRp1592
sVDCC1491
p1593
g3
((lp1594
I1128
aI1129
atRp1595
sVDCC0332
p1596
g3
((lp1597
I2064
aI1956
atRp1598
sVDCC1615
p1599
g3
((lp1600
I3939
aI683
aI142
atRp1601
sVDCC0041
p1602
g3
((lp1603
I3269
atRp1604
sVDCC0875
p1605
g3
((lp1606
I2984
atRp1607
sVDCC0100
p1608
g3
((lp1609
I6532
atRp1610
sVDCC0101
p1611
g3
((lp1612
I2560
aI2561
aI2562
aI2563
aI2565
aI2566
aI2567
aI2569
aI2570
aI2554
aI2555
aI2556
aI2557
aI2559
atRp1613
sVDCC0103
p1614
g3
((lp1615
I8600
aI51185
aI1003
aI7422
aI5743
atRp1616
sVDCC0104
p1617
g3
((lp1618
I2099
aI2100
atRp1619
sVDCC0105
p1620
g3
((lp1621
I5170
aI5743
atRp1622
sVDCC0106
p1623
g3
((lp1624
I150
aI151
atRp1625
sVDCC0107
p1626
g3
((lp1627
I7153
atRp1628
sVDCC0109
p1629
g3
((lp1630
I1636
atRp1631
sVDCC0042
p1632
g3
((lp1633
I5241
aI2099
atRp1634
sVDCC1252
p1635
g3
((lp1636
I2560
aI2561
aI2562
aI2563
aI2565
aI2566
aI2567
aI2569
aI2570
aI2554
aI2555
aI2556
aI2557
aI2559
atRp1637
sVDCC0634
p1638
g3
((lp1639
I5579
atRp1640
sVDCC1399
p1641
g3
((lp1642
I38
aI23657
aI5742
aI5743
aI240
aI1147
aI5468
aI3551
atRp1643
sVDCC0630
p1644
g3
((lp1645
I5243
atRp1646
sVDCC1393
p1647
g3
((lp1648
I2908
atRp1649
sVDCC1259
p1650
g3
((lp1651
I146
aI147
aI148
aI150
aI151
aI153
aI154
aI5053
atRp1652
sVDCC1258
p1653
g3
((lp1654
I1128
aI3269
atRp1655
sVDCC1396
p1656
g3
((lp1657
I3674
aI3690
atRp1658
sVDCC1395
p1659
g3
((lp1660
I5731
atRp1661
sVDCC1495
p1662
g3
((lp1663
I2185
aI1723
aI196
atRp1664
sVDCC1494
p1665
g3
((lp1666
I3156
atRp1667
sVDCC0990
p1668
g3
((lp1669
I153
aI154
atRp1670
sVDCC0085
p1671
g3
((lp1672
I4306
aI367
atRp1673
sVDCC1559
p1674
g3
((lp1675
I154
atRp1676
sVDCC0087
p1677
g3
((lp1678
I3269
atRp1679
sVDCC0086
p1680
g3
((lp1681
I759
atRp1682
sVDCC0320
p1683
g3
((lp1684
I116443
aI1813
aI6869
atRp1685
sVDCC0321
p1686
g3
((lp1687
I2908
atRp1688
sVDCC1556
p1689
g3
((lp1690
I7422
atRp1691
sVDCC0323
p1692
g3
((lp1693
I81027
aI4133
aI4134
aI4137
aI596
aI8856
atRp1694
sVDCC1498
p1695
g3
((lp1696
I6531
aI6532
atRp1697
sVDCC0326
p1698
g3
((lp1699
I1816
aI1812
aI1813
aI1815
atRp1700
sVDCC0220
p1701
g3
((lp1702
I2908
atRp1703
sVDCC0240
p1704
g3
((lp1705
I1645
aI5742
aI5743
atRp1706
sVDCC0223
p1707
g3
((lp1708
I2280
aI2475
aI2247
atRp1709
sVDCC0270
p1710
g3
((lp1711
I185
aI3725
atRp1712
sVDCC1614
p1713
g3
((lp1714
I552
aI554
atRp1715
sVDCC0138
p1716
g3
((lp1717
I5320
aI3785
aI3786
aI5742
aI5743
aI240
aI41
aI6329
atRp1718
sVDCC0639
p1719
g3
((lp1720
I1909
atRp1721
sVDCC1084
p1722
g3
((lp1723
I931
atRp1724
sVDCC1106
p1725
g3
((lp1726
I931
atRp1727
sVDCC0254
p1728
g3
((lp1729
I1128
atRp1730
sVDCC0255
p1731
g3
((lp1732
I154
atRp1733
sVDCC0920
p1734
g3
((lp1735
I5742
aI5743
atRp1736
sVDCC0250
p1737
g3
((lp1738
I6646
atRp1739
sVDCC0251
p1740
g3
((lp1741
I100
aI5141
aI8654
aI10846
atRp1742
sVDCC1677
p1743
g3
((lp1744
I5745
atRp1745
sVDCC0253
p1746
g3
((lp1747
I7153
atRp1748
sVDCC0881
p1749
g3
((lp1750
I5241
atRp1751
sVDCC0552
p1752
g3
((lp1753
I2099
atRp1754
sVDCC0551
p1755
g3
((lp1756
I2147
atRp1757
sVDCC0258
p1758
g3
((lp1759
I774
aI9254
aI134
aI781
atRp1760
sVDCC0259
p1761
g3
((lp1762
I7153
atRp1763
sVDCC0887
p1764
g3
((lp1765
I7421
atRp1766
sVDCC1535
p1767
g3
((lp1768
I7153
atRp1769
sVDCC0488
p1770
g3
((lp1771
I2220
atRp1772
sVDCC0314
p1773
g3
((lp1774
I760
aI762
aI759
atRp1775
sVDCC0349
p1776
g3
((lp1777
I1800
atRp1778
sVDCC0317
p1779
g3
((lp1780
I153
aI154
atRp1781
sVDCC1172
p1782
g3
((lp1783
I384
aI4843
aI113451
aI6541
aI4846
aI435
aI445
atRp1784
sVDCC0316
p1785
g3
((lp1786
I9900
aI774
atRp1787
sVDCC0310
p1788
g3
((lp1789
I6336
aI6530
aI3269
aI2902
aI2906
aI116443
aI116444
atRp1790
sVDCC1374
p1791
g3
((lp1792
I5468
atRp1793
sVDCC0956
p1794
g3
((lp1795
I596
atRp1796
sVDCC1376
p1797
g3
((lp1798
I3269
aI151
aI147
aI148
aI1813
aI3350
aI1815
aI1812
aI150
aI3356
aI3358
atRp1799
sVDCC1377
p1800
g3
((lp1801
I495
atRp1802
sVDCC1551
p1803
g3
((lp1804
I147
aI6531
atRp1805
sVDCC1372
p1806
g3
((lp1807
I4881
atRp1808
sVDCC0342
p1809
g3
((lp1810
I81027
aI203068
atRp1811
sVDCC0312
p1812
g3
((lp1813
I1385
aI2099
aI4985
aI4986
aI7099
aI4988
atRp1814
sVDCC1234
p1815
g3
((lp1816
I3978
aI3980
atRp1817
sVDCC0171
p1818
g3
((lp1819
I79001
atRp1820
sVDCC0173
p1821
g3
((lp1822
I3614
aI3615
atRp1823
sVDCC0175
p1824
g3
((lp1825
I6530
aI3351
aI146
aI147
aI148
aI1813
aI150
aI151
aI3356
atRp1826
sVDCC0174
p1827
g3
((lp1828
I760
aI6557
atRp1829
sVDCC0177
p1830
g3
((lp1831
I4985
aI4986
aI4988
atRp1832
sVDCC1569
p1833
g3
((lp1834
I3643
atRp1835
sVDCC1105
p1836
g3
((lp1837
I3486
atRp1838
sVDCC0233
p1839
g3
((lp1840
I5468
atRp1841
sVDCC0480
p1842
g3
((lp1843
I5578
aI5579
atRp1844
s.