c__builtin__
set
p1
((lp2
S'DCC0236---DCC1590___DCC1367---DCC0177'
p3
aS'DCC1247---DCC0112___DCC1590---DCC0312'
p4
aS'DCC0112---DCC0240___DCC0236---DCC1590'
p5
aS'DCC0236---DCC0312___DCC0306---DCC0177'
p6
aS'DCC1247---DCC0112___DCC0236---DCC1590'
p7
aS'DCC0236---DCC0312___DCC1367---DCC0177'
p8
aS'DCC0043---DCC0177___DCC1590---DCC0312'
p9
aS'DCC0236---DCC1590___DCC0306---DCC0177'
p10
aS'DCC0236---DCC0177___DCC0043---DCC0320'
p11
aS'DCC0043---DCC0177___DCC0163---DCC0312'
p12
aS'DCC0236---DCC0177___DCC1247---DCC0112'
p13
aS'DCC0166---DCC1259___DCC1486---DCC0075'
p14
aS'DCC0236---DCC0177___DCC0282---DCC0112'
p15
aS'DCC0166---DCC0043___DCC0236---DCC1590'
p16
aS'DCC1515---DCC0177___DCC0112---DCC0312'
p17
aS'DCC0166---DCC0040___DCC1486---DCC0075'
p18
aS'DCC0112---DCC0312___DCC0306---DCC0177'
p19
aS'DCC0236---DCC0177___DCC0043---DCC0258'
p20
aS'DCC1247---DCC0112___DCC1515---DCC0177'
p21
aS'DCC0043---DCC0177___DCC0112---DCC0240'
p22
aS'DCC0039---DCC0322___DCC0021---DCC0031'
p23
aS'DCC0236---DCC1590___DCC0163---DCC0312'
p24
aS'DCC0043---DCC0258___DCC1590---DCC0312'
p25
aS'DCC0043---DCC0258___DCC0236---DCC1590'
p26
aS'DCC0214---DCC0075___DCC0166---DCC1259'
p27
aS'DCC0075---DCC1545___DCC0166---DCC1259'
p28
aS'DCC1247---DCC0112___DCC1367---DCC0177'
p29
aS'DCC1590---DCC0312___DCC0306---DCC0177'
p30
aS'DCC0236---DCC0312___DCC0282---DCC0112'
p31
aS'DCC0166---DCC0043___DCC0112---DCC0312'
p32
aS'DCC1590---DCC0312___DCC1367---DCC0177'
p33
aS'DCC1590---DCC0312___DCC0282---DCC0112'
p34
aS'DCC1247---DCC0112___DCC0043---DCC0320'
p35
aS'DCC0236---DCC0312___DCC0043---DCC0320'
p36
aS'DCC1515---DCC0177___DCC0236---DCC1590'
p37
aS'DCC0236---DCC0177___DCC0112---DCC0240'
p38
aS'DCC0039---DCC0322___DCC0160---DCC0021'
p39
aS'DCC1515---DCC0177___DCC0236---DCC0312'
p40
aS'DCC0112---DCC0240___DCC1590---DCC0312'
p41
aS'DCC0166---DCC0043___DCC1486---DCC0075'
p42
aS'DCC1247---DCC0112___DCC0166---DCC0043'
p43
aS'DCC0236---DCC1590___DCC0112---DCC0312'
p44
aS'DCC0236---DCC0177___DCC0163---DCC0312'
p45
aS'DCC0236---DCC0312___DCC0166---DCC0043'
p46
aS'DCC0039---DCC0322___DCC0021---DCC0310'
p47
aS'DCC0043---DCC0258___DCC0112---DCC0312'
p48
aS'DCC0031---DCC0240___DCC1244---DCC1329'
p49
aS'DCC1259---DCC1370___DCC1486---DCC0075'
p50
aS'DCC1247---DCC0112___DCC0163---DCC0312'
p51
aS'DCC0043---DCC0177___DCC0236---DCC0312'
p52
aS'DCC1247---DCC0112___DCC0306---DCC0177'
p53
aS'DCC1590---DCC0312___DCC0043---DCC0320'
p54
aS'DCC0043---DCC0320___DCC0112---DCC0312'
p55
aS'DCC0166---DCC1370___DCC1486---DCC0075'
p56
aS'DCC0112---DCC0312___DCC1367---DCC0177'
p57
aS'DCC0021---DCC0031___DCC1244---DCC1329'
p58
aS'DCC0166---DCC1259___DCC0282---DCC0075'
p59
aS'DCC1515---DCC0177___DCC1590---DCC0312'
p60
aS'DCC0236---DCC0177___DCC0112---DCC0312'
p61
aS'DCC0043---DCC0258___DCC0236---DCC0312'
p62
aS'DCC0043---DCC0320___DCC0236---DCC1590'
p63
aS'DCC0166---DCC1259___DCC0287---DCC0075'
p64
aS'DCC1247---DCC0112___DCC0236---DCC0312'
p65
aS'DCC1247---DCC0112___DCC0043---DCC0177'
p66
aS'DCC0298---DCC0075___DCC0166---DCC1259'
p67
aS'DCC0112---DCC0240___DCC0236---DCC0312'
p68
aS'DCC0039---DCC0322___DCC0021---DCC0055'
p69
aS'DCC0166---DCC0204___DCC1486---DCC0075'
p70
aS'DCC0236---DCC0177___DCC1590---DCC0312'
p71
aS'DCC0214---DCC0075___DCC1845---DCC0298'
p72
aS'DCC0236---DCC0177___DCC0166---DCC0043'
p73
aS'DCC0043---DCC0177___DCC0282---DCC0112'
p74
aS'DCC1590---DCC0312___DCC0166---DCC0043'
p75
aS'DCC0021---DCC0240___DCC0039---DCC0322'
p76
aS'DCC0282---DCC0112___DCC0236---DCC1590'
p77
aS'DCC0043---DCC0177___DCC0236---DCC1590'
p78
aS'DCC0021---DCC0175___DCC0039---DCC0322'
p79
aS'DCC0043---DCC0177___DCC0112---DCC0312'
p80
aS'DCC1247---DCC0112___DCC0043---DCC0258'
p81
atRp82
.