c__builtin__
set
p1
((lp2
S'DCC0214---DCC0075'
p3
aS'DCC0329---DCC0323'
p4
aS'DCC0236---DCC0312'
p5
aS'DCC1244---DCC1329'
p6
aS'DCC0043---DCC0177'
p7
aS'DCC1486---DCC0075'
p8
aS'DCC0112---DCC0312'
p9
aS'DCC0166---DCC1259'
p10
aS'DCC1590---DCC0312'
p11
aS'DCC0236---DCC1590'
p12
aS'DCC0236---DCC0177'
p13
aS'DCC1247---DCC0112'
p14
aS'DCC0039---DCC0322'
p15
atRp16
.